
wolfboot.elf:     file format elf32-littlearm


Disassembly of section .text:

08000000 <IV>:
 8000000:	ff 7f 01 30 45 14 00 08 8f 14 00 08 89 14 00 08     ...0E...........
 8000010:	89 14 00 08 89 14 00 08 89 14 00 08 00 00 00 00     ................
	...
 800002c:	8f 14 00 08 8f 14 00 08 00 00 00 00 8f 14 00 08     ................
 800003c:	8f 14 00 08 8f 14 00 08 8f 14 00 08 8f 14 00 08     ................
 800004c:	8f 14 00 08 8f 14 00 08 8f 14 00 08 8f 14 00 08     ................
 800005c:	8f 14 00 08 8f 14 00 08 8f 14 00 08 8f 14 00 08     ................
 800006c:	8f 14 00 08 8f 14 00 08 8f 14 00 08 8f 14 00 08     ................
 800007c:	8f 14 00 08 8f 14 00 08 8f 14 00 08 8f 14 00 08     ................
 800008c:	8f 14 00 08 8f 14 00 08 8f 14 00 08 8f 14 00 08     ................
 800009c:	8f 14 00 08 8f 14 00 08 8f 14 00 08 8f 14 00 08     ................
 80000ac:	8f 14 00 08 8f 14 00 08 8f 14 00 08 8f 14 00 08     ................
 80000bc:	8f 14 00 08 8f 14 00 08 8f 14 00 08 8f 14 00 08     ................
 80000cc:	8f 14 00 08 8f 14 00 08 8f 14 00 08 8f 14 00 08     ................
 80000dc:	8f 14 00 08 8f 14 00 08 8f 14 00 08 8f 14 00 08     ................
 80000ec:	8f 14 00 08 8f 14 00 08 8f 14 00 08 8f 14 00 08     ................
 80000fc:	8f 14 00 08 8f 14 00 08 8f 14 00 08 8f 14 00 08     ................
 800010c:	8f 14 00 08 8f 14 00 08 8f 14 00 08 8f 14 00 08     ................
 800011c:	8f 14 00 08 8f 14 00 08 8f 14 00 08 8f 14 00 08     ................
 800012c:	8f 14 00 08 8f 14 00 08 8f 14 00 08 8f 14 00 08     ................
 800013c:	8f 14 00 08                                         ....

08000140 <TZ_SAU_Setup>:
 8000140:	b480      	push	{r7}
 8000142:	af00      	add	r7, sp, #0
 8000144:	4b26      	ldr	r3, [pc, #152]	; (80001e0 <TZ_SAU_Setup+0xa0>)
 8000146:	2200      	movs	r2, #0
 8000148:	601a      	str	r2, [r3, #0]
 800014a:	4b26      	ldr	r3, [pc, #152]	; (80001e4 <TZ_SAU_Setup+0xa4>)
 800014c:	4a26      	ldr	r2, [pc, #152]	; (80001e8 <TZ_SAU_Setup+0xa8>)
 800014e:	601a      	str	r2, [r3, #0]
 8000150:	4b26      	ldr	r3, [pc, #152]	; (80001ec <TZ_SAU_Setup+0xac>)
 8000152:	4a27      	ldr	r2, [pc, #156]	; (80001f0 <TZ_SAU_Setup+0xb0>)
 8000154:	601a      	str	r2, [r3, #0]
 8000156:	4b22      	ldr	r3, [pc, #136]	; (80001e0 <TZ_SAU_Setup+0xa0>)
 8000158:	2201      	movs	r2, #1
 800015a:	601a      	str	r2, [r3, #0]
 800015c:	4b21      	ldr	r3, [pc, #132]	; (80001e4 <TZ_SAU_Setup+0xa4>)
 800015e:	4a25      	ldr	r2, [pc, #148]	; (80001f4 <TZ_SAU_Setup+0xb4>)
 8000160:	601a      	str	r2, [r3, #0]
 8000162:	4b22      	ldr	r3, [pc, #136]	; (80001ec <TZ_SAU_Setup+0xac>)
 8000164:	4a24      	ldr	r2, [pc, #144]	; (80001f8 <TZ_SAU_Setup+0xb8>)
 8000166:	601a      	str	r2, [r3, #0]
 8000168:	4b1d      	ldr	r3, [pc, #116]	; (80001e0 <TZ_SAU_Setup+0xa0>)
 800016a:	2202      	movs	r2, #2
 800016c:	601a      	str	r2, [r3, #0]
 800016e:	4b1d      	ldr	r3, [pc, #116]	; (80001e4 <TZ_SAU_Setup+0xa4>)
 8000170:	4a22      	ldr	r2, [pc, #136]	; (80001fc <TZ_SAU_Setup+0xbc>)
 8000172:	601a      	str	r2, [r3, #0]
 8000174:	4b1d      	ldr	r3, [pc, #116]	; (80001ec <TZ_SAU_Setup+0xac>)
 8000176:	4a22      	ldr	r2, [pc, #136]	; (8000200 <TZ_SAU_Setup+0xc0>)
 8000178:	601a      	str	r2, [r3, #0]
 800017a:	4b19      	ldr	r3, [pc, #100]	; (80001e0 <TZ_SAU_Setup+0xa0>)
 800017c:	2203      	movs	r2, #3
 800017e:	601a      	str	r2, [r3, #0]
 8000180:	4b18      	ldr	r3, [pc, #96]	; (80001e4 <TZ_SAU_Setup+0xa4>)
 8000182:	f04f 4280 	mov.w	r2, #1073741824	; 0x40000000
 8000186:	601a      	str	r2, [r3, #0]
 8000188:	4b18      	ldr	r3, [pc, #96]	; (80001ec <TZ_SAU_Setup+0xac>)
 800018a:	4a1e      	ldr	r2, [pc, #120]	; (8000204 <TZ_SAU_Setup+0xc4>)
 800018c:	601a      	str	r2, [r3, #0]
 800018e:	4b14      	ldr	r3, [pc, #80]	; (80001e0 <TZ_SAU_Setup+0xa0>)
 8000190:	2204      	movs	r2, #4
 8000192:	601a      	str	r2, [r3, #0]
 8000194:	4b13      	ldr	r3, [pc, #76]	; (80001e4 <TZ_SAU_Setup+0xa4>)
 8000196:	f04f 42c0 	mov.w	r2, #1610612736	; 0x60000000
 800019a:	601a      	str	r2, [r3, #0]
 800019c:	4b13      	ldr	r3, [pc, #76]	; (80001ec <TZ_SAU_Setup+0xac>)
 800019e:	4a1a      	ldr	r2, [pc, #104]	; (8000208 <TZ_SAU_Setup+0xc8>)
 80001a0:	601a      	str	r2, [r3, #0]
 80001a2:	4b0f      	ldr	r3, [pc, #60]	; (80001e0 <TZ_SAU_Setup+0xa0>)
 80001a4:	2205      	movs	r2, #5
 80001a6:	601a      	str	r2, [r3, #0]
 80001a8:	4b0e      	ldr	r3, [pc, #56]	; (80001e4 <TZ_SAU_Setup+0xa4>)
 80001aa:	4a18      	ldr	r2, [pc, #96]	; (800020c <TZ_SAU_Setup+0xcc>)
 80001ac:	601a      	str	r2, [r3, #0]
 80001ae:	4b0f      	ldr	r3, [pc, #60]	; (80001ec <TZ_SAU_Setup+0xac>)
 80001b0:	4a17      	ldr	r2, [pc, #92]	; (8000210 <TZ_SAU_Setup+0xd0>)
 80001b2:	601a      	str	r2, [r3, #0]
 80001b4:	4b17      	ldr	r3, [pc, #92]	; (8000214 <TZ_SAU_Setup+0xd4>)
 80001b6:	2201      	movs	r2, #1
 80001b8:	601a      	str	r2, [r3, #0]
 80001ba:	4b17      	ldr	r3, [pc, #92]	; (8000218 <TZ_SAU_Setup+0xd8>)
 80001bc:	681b      	ldr	r3, [r3, #0]
 80001be:	4a16      	ldr	r2, [pc, #88]	; (8000218 <TZ_SAU_Setup+0xd8>)
 80001c0:	f443 6340 	orr.w	r3, r3, #3072	; 0xc00
 80001c4:	6013      	str	r3, [r2, #0]
 80001c6:	4b15      	ldr	r3, [pc, #84]	; (800021c <TZ_SAU_Setup+0xdc>)
 80001c8:	681b      	ldr	r3, [r3, #0]
 80001ca:	f023 53e0 	bic.w	r3, r3, #469762048	; 0x1c000000
 80001ce:	4a13      	ldr	r2, [pc, #76]	; (800021c <TZ_SAU_Setup+0xdc>)
 80001d0:	f043 5380 	orr.w	r3, r3, #268435456	; 0x10000000
 80001d4:	6013      	str	r3, [r2, #0]
 80001d6:	bf00      	nop
 80001d8:	46bd      	mov	sp, r7
 80001da:	bc80      	pop	{r7}
 80001dc:	4770      	bx	lr
 80001de:	bf00      	nop
 80001e0:	e000edd8 	.word	0xe000edd8
 80001e4:	e000eddc 	.word	0xe000eddc
 80001e8:	0c03e000 	.word	0x0c03e000
 80001ec:	e000ede0 	.word	0xe000ede0
 80001f0:	0c03ffe3 	.word	0x0c03ffe3
 80001f4:	08040000 	.word	0x08040000
 80001f8:	0807ffe1 	.word	0x0807ffe1
 80001fc:	20018000 	.word	0x20018000
 8000200:	2003ffe1 	.word	0x2003ffe1
 8000204:	4fffffe1 	.word	0x4fffffe1
 8000208:	9fffffe1 	.word	0x9fffffe1
 800020c:	0bf90000 	.word	0x0bf90000
 8000210:	0bfa8fe1 	.word	0x0bfa8fe1
 8000214:	e000edd0 	.word	0xe000edd0
 8000218:	e000ed8c 	.word	0xe000ed8c
 800021c:	e000ef34 	.word	0xe000ef34

08000220 <flash_set_waitstates>:
 8000220:	b480      	push	{r7}
 8000222:	b085      	sub	sp, #20
 8000224:	af00      	add	r7, sp, #0
 8000226:	6078      	str	r0, [r7, #4]
 8000228:	4b0a      	ldr	r3, [pc, #40]	; (8000254 <flash_set_waitstates+0x34>)
 800022a:	681b      	ldr	r3, [r3, #0]
 800022c:	60fb      	str	r3, [r7, #12]
 800022e:	68fb      	ldr	r3, [r7, #12]
 8000230:	f003 030f 	and.w	r3, r3, #15
 8000234:	687a      	ldr	r2, [r7, #4]
 8000236:	429a      	cmp	r2, r3
 8000238:	d006      	beq.n	8000248 <flash_set_waitstates+0x28>
 800023a:	68fb      	ldr	r3, [r7, #12]
 800023c:	f023 020f 	bic.w	r2, r3, #15
 8000240:	4904      	ldr	r1, [pc, #16]	; (8000254 <flash_set_waitstates+0x34>)
 8000242:	687b      	ldr	r3, [r7, #4]
 8000244:	4313      	orrs	r3, r2
 8000246:	600b      	str	r3, [r1, #0]
 8000248:	bf00      	nop
 800024a:	3714      	adds	r7, #20
 800024c:	46bd      	mov	sp, r7
 800024e:	bc80      	pop	{r7}
 8000250:	4770      	bx	lr
 8000252:	bf00      	nop
 8000254:	40022000 	.word	0x40022000

08000258 <flash_wait_complete>:
 8000258:	b480      	push	{r7}
 800025a:	b083      	sub	sp, #12
 800025c:	af00      	add	r7, sp, #0
 800025e:	4603      	mov	r3, r0
 8000260:	71fb      	strb	r3, [r7, #7]
 8000262:	bf00      	nop
 8000264:	4b06      	ldr	r3, [pc, #24]	; (8000280 <flash_wait_complete+0x28>)
 8000266:	681b      	ldr	r3, [r3, #0]
 8000268:	f403 3380 	and.w	r3, r3, #65536	; 0x10000
 800026c:	f5b3 3f80 	cmp.w	r3, #65536	; 0x10000
 8000270:	d0f8      	beq.n	8000264 <flash_wait_complete+0xc>
 8000272:	bf00      	nop
 8000274:	bf00      	nop
 8000276:	370c      	adds	r7, #12
 8000278:	46bd      	mov	sp, r7
 800027a:	bc80      	pop	{r7}
 800027c:	4770      	bx	lr
 800027e:	bf00      	nop
 8000280:	40022020 	.word	0x40022020

08000284 <flash_clear_errors>:
 8000284:	b480      	push	{r7}
 8000286:	b083      	sub	sp, #12
 8000288:	af00      	add	r7, sp, #0
 800028a:	4603      	mov	r3, r0
 800028c:	71fb      	strb	r3, [r7, #7]
 800028e:	4b06      	ldr	r3, [pc, #24]	; (80002a8 <flash_clear_errors+0x24>)
 8000290:	681b      	ldr	r3, [r3, #0]
 8000292:	4a05      	ldr	r2, [pc, #20]	; (80002a8 <flash_clear_errors+0x24>)
 8000294:	f443 5303 	orr.w	r3, r3, #8384	; 0x20c0
 8000298:	f043 033a 	orr.w	r3, r3, #58	; 0x3a
 800029c:	6013      	str	r3, [r2, #0]
 800029e:	bf00      	nop
 80002a0:	370c      	adds	r7, #12
 80002a2:	46bd      	mov	sp, r7
 80002a4:	bc80      	pop	{r7}
 80002a6:	4770      	bx	lr
 80002a8:	40022020 	.word	0x40022020

080002ac <hal_flash_write>:
 80002ac:	b580      	push	{r7, lr}
 80002ae:	b08c      	sub	sp, #48	; 0x30
 80002b0:	af00      	add	r7, sp, #0
 80002b2:	60f8      	str	r0, [r7, #12]
 80002b4:	60b9      	str	r1, [r7, #8]
 80002b6:	607a      	str	r2, [r7, #4]
 80002b8:	2300      	movs	r3, #0
 80002ba:	62fb      	str	r3, [r7, #44]	; 0x2c
 80002bc:	4b29      	ldr	r3, [pc, #164]	; (8000364 <hal_flash_write+0xb8>)
 80002be:	62bb      	str	r3, [r7, #40]	; 0x28
 80002c0:	4b29      	ldr	r3, [pc, #164]	; (8000368 <hal_flash_write+0xbc>)
 80002c2:	627b      	str	r3, [r7, #36]	; 0x24
 80002c4:	2000      	movs	r0, #0
 80002c6:	f7ff ffdd 	bl	8000284 <flash_clear_errors>
 80002ca:	68bb      	ldr	r3, [r7, #8]
 80002cc:	623b      	str	r3, [r7, #32]
 80002ce:	68fb      	ldr	r3, [r7, #12]
 80002d0:	61fb      	str	r3, [r7, #28]
 80002d2:	e03d      	b.n	8000350 <hal_flash_write+0xa4>
 80002d4:	6afb      	ldr	r3, [r7, #44]	; 0x2c
 80002d6:	109b      	asrs	r3, r3, #2
 80002d8:	009b      	lsls	r3, r3, #2
 80002da:	6a3a      	ldr	r2, [r7, #32]
 80002dc:	4413      	add	r3, r2
 80002de:	681b      	ldr	r3, [r3, #0]
 80002e0:	617b      	str	r3, [r7, #20]
 80002e2:	6afb      	ldr	r3, [r7, #44]	; 0x2c
 80002e4:	109b      	asrs	r3, r3, #2
 80002e6:	3301      	adds	r3, #1
 80002e8:	009b      	lsls	r3, r3, #2
 80002ea:	6a3a      	ldr	r2, [r7, #32]
 80002ec:	4413      	add	r3, r2
 80002ee:	681b      	ldr	r3, [r3, #0]
 80002f0:	61bb      	str	r3, [r7, #24]
 80002f2:	6abb      	ldr	r3, [r7, #40]	; 0x28
 80002f4:	681b      	ldr	r3, [r3, #0]
 80002f6:	f043 0201 	orr.w	r2, r3, #1
 80002fa:	6abb      	ldr	r3, [r7, #40]	; 0x28
 80002fc:	601a      	str	r2, [r3, #0]
 80002fe:	6afb      	ldr	r3, [r7, #44]	; 0x2c
 8000300:	109b      	asrs	r3, r3, #2
 8000302:	009b      	lsls	r3, r3, #2
 8000304:	69fa      	ldr	r2, [r7, #28]
 8000306:	4413      	add	r3, r2
 8000308:	697a      	ldr	r2, [r7, #20]
 800030a:	601a      	str	r2, [r3, #0]
 800030c:	f3bf 8f6f 	isb	sy
 8000310:	6afb      	ldr	r3, [r7, #44]	; 0x2c
 8000312:	109b      	asrs	r3, r3, #2
 8000314:	3301      	adds	r3, #1
 8000316:	009b      	lsls	r3, r3, #2
 8000318:	69fa      	ldr	r2, [r7, #28]
 800031a:	4413      	add	r3, r2
 800031c:	69ba      	ldr	r2, [r7, #24]
 800031e:	601a      	str	r2, [r3, #0]
 8000320:	2000      	movs	r0, #0
 8000322:	f7ff ff99 	bl	8000258 <flash_wait_complete>
 8000326:	6a7b      	ldr	r3, [r7, #36]	; 0x24
 8000328:	681b      	ldr	r3, [r3, #0]
 800032a:	f003 0301 	and.w	r3, r3, #1
 800032e:	2b00      	cmp	r3, #0
 8000330:	d005      	beq.n	800033e <hal_flash_write+0x92>
 8000332:	6a7b      	ldr	r3, [r7, #36]	; 0x24
 8000334:	681b      	ldr	r3, [r3, #0]
 8000336:	f043 0201 	orr.w	r2, r3, #1
 800033a:	6a7b      	ldr	r3, [r7, #36]	; 0x24
 800033c:	601a      	str	r2, [r3, #0]
 800033e:	6abb      	ldr	r3, [r7, #40]	; 0x28
 8000340:	681b      	ldr	r3, [r3, #0]
 8000342:	f023 0201 	bic.w	r2, r3, #1
 8000346:	6abb      	ldr	r3, [r7, #40]	; 0x28
 8000348:	601a      	str	r2, [r3, #0]
 800034a:	6afb      	ldr	r3, [r7, #44]	; 0x2c
 800034c:	3308      	adds	r3, #8
 800034e:	62fb      	str	r3, [r7, #44]	; 0x2c
 8000350:	6afa      	ldr	r2, [r7, #44]	; 0x2c
 8000352:	687b      	ldr	r3, [r7, #4]
 8000354:	429a      	cmp	r2, r3
 8000356:	dbbd      	blt.n	80002d4 <hal_flash_write+0x28>
 8000358:	2300      	movs	r3, #0
 800035a:	4618      	mov	r0, r3
 800035c:	3730      	adds	r7, #48	; 0x30
 800035e:	46bd      	mov	sp, r7
 8000360:	bd80      	pop	{r7, pc}
 8000362:	bf00      	nop
 8000364:	40022028 	.word	0x40022028
 8000368:	40022020 	.word	0x40022020

0800036c <hal_flash_unlock>:
 800036c:	b580      	push	{r7, lr}
 800036e:	af00      	add	r7, sp, #0
 8000370:	2000      	movs	r0, #0
 8000372:	f7ff ff71 	bl	8000258 <flash_wait_complete>
 8000376:	4b0a      	ldr	r3, [pc, #40]	; (80003a0 <hal_flash_unlock+0x34>)
 8000378:	681b      	ldr	r3, [r3, #0]
 800037a:	2b00      	cmp	r3, #0
 800037c:	da0e      	bge.n	800039c <hal_flash_unlock+0x30>
 800037e:	4b09      	ldr	r3, [pc, #36]	; (80003a4 <hal_flash_unlock+0x38>)
 8000380:	4a09      	ldr	r2, [pc, #36]	; (80003a8 <hal_flash_unlock+0x3c>)
 8000382:	601a      	str	r2, [r3, #0]
 8000384:	f3bf 8f5f 	dmb	sy
 8000388:	4b06      	ldr	r3, [pc, #24]	; (80003a4 <hal_flash_unlock+0x38>)
 800038a:	4a08      	ldr	r2, [pc, #32]	; (80003ac <hal_flash_unlock+0x40>)
 800038c:	601a      	str	r2, [r3, #0]
 800038e:	f3bf 8f5f 	dmb	sy
 8000392:	bf00      	nop
 8000394:	4b02      	ldr	r3, [pc, #8]	; (80003a0 <hal_flash_unlock+0x34>)
 8000396:	681b      	ldr	r3, [r3, #0]
 8000398:	2b00      	cmp	r3, #0
 800039a:	dbfb      	blt.n	8000394 <hal_flash_unlock+0x28>
 800039c:	bf00      	nop
 800039e:	bd80      	pop	{r7, pc}
 80003a0:	40022028 	.word	0x40022028
 80003a4:	40022008 	.word	0x40022008
 80003a8:	45670123 	.word	0x45670123
 80003ac:	cdef89ab 	.word	0xcdef89ab

080003b0 <hal_flash_lock>:
 80003b0:	b580      	push	{r7, lr}
 80003b2:	af00      	add	r7, sp, #0
 80003b4:	2000      	movs	r0, #0
 80003b6:	f7ff ff4f 	bl	8000258 <flash_wait_complete>
 80003ba:	4b06      	ldr	r3, [pc, #24]	; (80003d4 <hal_flash_lock+0x24>)
 80003bc:	681b      	ldr	r3, [r3, #0]
 80003be:	2b00      	cmp	r3, #0
 80003c0:	db05      	blt.n	80003ce <hal_flash_lock+0x1e>
 80003c2:	4b04      	ldr	r3, [pc, #16]	; (80003d4 <hal_flash_lock+0x24>)
 80003c4:	681b      	ldr	r3, [r3, #0]
 80003c6:	4a03      	ldr	r2, [pc, #12]	; (80003d4 <hal_flash_lock+0x24>)
 80003c8:	f043 4300 	orr.w	r3, r3, #2147483648	; 0x80000000
 80003cc:	6013      	str	r3, [r2, #0]
 80003ce:	bf00      	nop
 80003d0:	bd80      	pop	{r7, pc}
 80003d2:	bf00      	nop
 80003d4:	40022028 	.word	0x40022028

080003d8 <hal_flash_opt_unlock>:
 80003d8:	b580      	push	{r7, lr}
 80003da:	af00      	add	r7, sp, #0
 80003dc:	2000      	movs	r0, #0
 80003de:	f7ff ff3b 	bl	8000258 <flash_wait_complete>
 80003e2:	4b0b      	ldr	r3, [pc, #44]	; (8000410 <hal_flash_opt_unlock+0x38>)
 80003e4:	681b      	ldr	r3, [r3, #0]
 80003e6:	f003 4380 	and.w	r3, r3, #1073741824	; 0x40000000
 80003ea:	2b00      	cmp	r3, #0
 80003ec:	d00e      	beq.n	800040c <hal_flash_opt_unlock+0x34>
 80003ee:	4b09      	ldr	r3, [pc, #36]	; (8000414 <hal_flash_opt_unlock+0x3c>)
 80003f0:	4a09      	ldr	r2, [pc, #36]	; (8000418 <hal_flash_opt_unlock+0x40>)
 80003f2:	601a      	str	r2, [r3, #0]
 80003f4:	f3bf 8f5f 	dmb	sy
 80003f8:	4b06      	ldr	r3, [pc, #24]	; (8000414 <hal_flash_opt_unlock+0x3c>)
 80003fa:	4a08      	ldr	r2, [pc, #32]	; (800041c <hal_flash_opt_unlock+0x44>)
 80003fc:	601a      	str	r2, [r3, #0]
 80003fe:	f3bf 8f5f 	dmb	sy
 8000402:	bf00      	nop
 8000404:	4b02      	ldr	r3, [pc, #8]	; (8000410 <hal_flash_opt_unlock+0x38>)
 8000406:	681b      	ldr	r3, [r3, #0]
 8000408:	2b00      	cmp	r3, #0
 800040a:	dbfb      	blt.n	8000404 <hal_flash_opt_unlock+0x2c>
 800040c:	bf00      	nop
 800040e:	bd80      	pop	{r7, pc}
 8000410:	40022028 	.word	0x40022028
 8000414:	40022010 	.word	0x40022010
 8000418:	08192a3b 	.word	0x08192a3b
 800041c:	4c5d6e7f 	.word	0x4c5d6e7f

08000420 <hal_flash_opt_lock>:
 8000420:	b580      	push	{r7, lr}
 8000422:	af00      	add	r7, sp, #0
 8000424:	4b0e      	ldr	r3, [pc, #56]	; (8000460 <hal_flash_opt_lock+0x40>)
 8000426:	681b      	ldr	r3, [r3, #0]
 8000428:	4a0d      	ldr	r2, [pc, #52]	; (8000460 <hal_flash_opt_lock+0x40>)
 800042a:	f443 3300 	orr.w	r3, r3, #131072	; 0x20000
 800042e:	6013      	str	r3, [r2, #0]
 8000430:	2000      	movs	r0, #0
 8000432:	f7ff ff11 	bl	8000258 <flash_wait_complete>
 8000436:	4b0a      	ldr	r3, [pc, #40]	; (8000460 <hal_flash_opt_lock+0x40>)
 8000438:	681b      	ldr	r3, [r3, #0]
 800043a:	4a09      	ldr	r2, [pc, #36]	; (8000460 <hal_flash_opt_lock+0x40>)
 800043c:	f043 6300 	orr.w	r3, r3, #134217728	; 0x8000000
 8000440:	6013      	str	r3, [r2, #0]
 8000442:	4b07      	ldr	r3, [pc, #28]	; (8000460 <hal_flash_opt_lock+0x40>)
 8000444:	681b      	ldr	r3, [r3, #0]
 8000446:	f003 4380 	and.w	r3, r3, #1073741824	; 0x40000000
 800044a:	2b00      	cmp	r3, #0
 800044c:	d105      	bne.n	800045a <hal_flash_opt_lock+0x3a>
 800044e:	4b04      	ldr	r3, [pc, #16]	; (8000460 <hal_flash_opt_lock+0x40>)
 8000450:	681b      	ldr	r3, [r3, #0]
 8000452:	4a03      	ldr	r2, [pc, #12]	; (8000460 <hal_flash_opt_lock+0x40>)
 8000454:	f043 4380 	orr.w	r3, r3, #1073741824	; 0x40000000
 8000458:	6013      	str	r3, [r2, #0]
 800045a:	bf00      	nop
 800045c:	bd80      	pop	{r7, pc}
 800045e:	bf00      	nop
 8000460:	40022028 	.word	0x40022028

08000464 <hal_flash_erase>:
 8000464:	b580      	push	{r7, lr}
 8000466:	b088      	sub	sp, #32
 8000468:	af00      	add	r7, sp, #0
 800046a:	6078      	str	r0, [r7, #4]
 800046c:	6039      	str	r1, [r7, #0]
 800046e:	2000      	movs	r0, #0
 8000470:	f7ff ff08 	bl	8000284 <flash_clear_errors>
 8000474:	683b      	ldr	r3, [r7, #0]
 8000476:	2b00      	cmp	r3, #0
 8000478:	d102      	bne.n	8000480 <hal_flash_erase+0x1c>
 800047a:	f04f 33ff 	mov.w	r3, #4294967295	; 0xffffffff
 800047e:	e068      	b.n	8000552 <hal_flash_erase+0xee>
 8000480:	687b      	ldr	r3, [r7, #4]
 8000482:	f1b3 6f00 	cmp.w	r3, #134217728	; 0x8000000
 8000486:	d202      	bcs.n	800048e <hal_flash_erase+0x2a>
 8000488:	f04f 33ff 	mov.w	r3, #4294967295	; 0xffffffff
 800048c:	e061      	b.n	8000552 <hal_flash_erase+0xee>
 800048e:	683a      	ldr	r2, [r7, #0]
 8000490:	687b      	ldr	r3, [r7, #4]
 8000492:	4413      	add	r3, r2
 8000494:	3b01      	subs	r3, #1
 8000496:	613b      	str	r3, [r7, #16]
 8000498:	687b      	ldr	r3, [r7, #4]
 800049a:	61fb      	str	r3, [r7, #28]
 800049c:	e04e      	b.n	800053c <hal_flash_erase+0xd8>
 800049e:	2300      	movs	r3, #0
 80004a0:	617b      	str	r3, [r7, #20]
 80004a2:	4b2e      	ldr	r3, [pc, #184]	; (800055c <hal_flash_erase+0xf8>)
 80004a4:	681b      	ldr	r3, [r3, #0]
 80004a6:	f403 0380 	and.w	r3, r3, #4194304	; 0x400000
 80004aa:	2b00      	cmp	r3, #0
 80004ac:	d103      	bne.n	80004b6 <hal_flash_erase+0x52>
 80004ae:	69fb      	ldr	r3, [r7, #28]
 80004b0:	4a2b      	ldr	r2, [pc, #172]	; (8000560 <hal_flash_erase+0xfc>)
 80004b2:	4293      	cmp	r3, r2
 80004b4:	d903      	bls.n	80004be <hal_flash_erase+0x5a>
 80004b6:	69fb      	ldr	r3, [r7, #28]
 80004b8:	4a2a      	ldr	r2, [pc, #168]	; (8000564 <hal_flash_erase+0x100>)
 80004ba:	4293      	cmp	r3, r2
 80004bc:	d803      	bhi.n	80004c6 <hal_flash_erase+0x62>
 80004be:	f04f 6300 	mov.w	r3, #134217728	; 0x8000000
 80004c2:	61bb      	str	r3, [r7, #24]
 80004c4:	e015      	b.n	80004f2 <hal_flash_erase+0x8e>
 80004c6:	69fb      	ldr	r3, [r7, #28]
 80004c8:	4a26      	ldr	r2, [pc, #152]	; (8000564 <hal_flash_erase+0x100>)
 80004ca:	4293      	cmp	r3, r2
 80004cc:	d909      	bls.n	80004e2 <hal_flash_erase+0x7e>
 80004ce:	69fb      	ldr	r3, [r7, #28]
 80004d0:	4a23      	ldr	r2, [pc, #140]	; (8000560 <hal_flash_erase+0xfc>)
 80004d2:	4293      	cmp	r3, r2
 80004d4:	d805      	bhi.n	80004e2 <hal_flash_erase+0x7e>
 80004d6:	f44f 6300 	mov.w	r3, #2048	; 0x800
 80004da:	617b      	str	r3, [r7, #20]
 80004dc:	4b22      	ldr	r3, [pc, #136]	; (8000568 <hal_flash_erase+0x104>)
 80004de:	61bb      	str	r3, [r7, #24]
 80004e0:	e007      	b.n	80004f2 <hal_flash_erase+0x8e>
 80004e2:	4b22      	ldr	r3, [pc, #136]	; (800056c <hal_flash_erase+0x108>)
 80004e4:	681b      	ldr	r3, [r3, #0]
 80004e6:	4a21      	ldr	r2, [pc, #132]	; (800056c <hal_flash_erase+0x108>)
 80004e8:	f023 0302 	bic.w	r3, r3, #2
 80004ec:	6013      	str	r3, [r2, #0]
 80004ee:	2300      	movs	r3, #0
 80004f0:	e02f      	b.n	8000552 <hal_flash_erase+0xee>
 80004f2:	4b1e      	ldr	r3, [pc, #120]	; (800056c <hal_flash_erase+0x108>)
 80004f4:	681b      	ldr	r3, [r3, #0]
 80004f6:	f423 633f 	bic.w	r3, r3, #3056	; 0xbf0
 80004fa:	f023 0308 	bic.w	r3, r3, #8
 80004fe:	60fb      	str	r3, [r7, #12]
 8000500:	69fa      	ldr	r2, [r7, #28]
 8000502:	69bb      	ldr	r3, [r7, #24]
 8000504:	1ad3      	subs	r3, r2, r3
 8000506:	0adb      	lsrs	r3, r3, #11
 8000508:	00da      	lsls	r2, r3, #3
 800050a:	697b      	ldr	r3, [r7, #20]
 800050c:	431a      	orrs	r2, r3
 800050e:	68fb      	ldr	r3, [r7, #12]
 8000510:	4313      	orrs	r3, r2
 8000512:	f043 0302 	orr.w	r3, r3, #2
 8000516:	60fb      	str	r3, [r7, #12]
 8000518:	4a14      	ldr	r2, [pc, #80]	; (800056c <hal_flash_erase+0x108>)
 800051a:	68fb      	ldr	r3, [r7, #12]
 800051c:	6013      	str	r3, [r2, #0]
 800051e:	f3bf 8f5f 	dmb	sy
 8000522:	4b12      	ldr	r3, [pc, #72]	; (800056c <hal_flash_erase+0x108>)
 8000524:	681b      	ldr	r3, [r3, #0]
 8000526:	4a11      	ldr	r2, [pc, #68]	; (800056c <hal_flash_erase+0x108>)
 8000528:	f443 3380 	orr.w	r3, r3, #65536	; 0x10000
 800052c:	6013      	str	r3, [r2, #0]
 800052e:	2000      	movs	r0, #0
 8000530:	f7ff fe92 	bl	8000258 <flash_wait_complete>
 8000534:	69fb      	ldr	r3, [r7, #28]
 8000536:	f503 6300 	add.w	r3, r3, #2048	; 0x800
 800053a:	61fb      	str	r3, [r7, #28]
 800053c:	69fa      	ldr	r2, [r7, #28]
 800053e:	693b      	ldr	r3, [r7, #16]
 8000540:	429a      	cmp	r2, r3
 8000542:	d3ac      	bcc.n	800049e <hal_flash_erase+0x3a>
 8000544:	4b09      	ldr	r3, [pc, #36]	; (800056c <hal_flash_erase+0x108>)
 8000546:	681b      	ldr	r3, [r3, #0]
 8000548:	4a08      	ldr	r2, [pc, #32]	; (800056c <hal_flash_erase+0x108>)
 800054a:	f023 0302 	bic.w	r3, r3, #2
 800054e:	6013      	str	r3, [r2, #0]
 8000550:	2300      	movs	r3, #0
 8000552:	4618      	mov	r0, r3
 8000554:	3720      	adds	r7, #32
 8000556:	46bd      	mov	sp, r7
 8000558:	bd80      	pop	{r7, pc}
 800055a:	bf00      	nop
 800055c:	40022040 	.word	0x40022040
 8000560:	0807ffff 	.word	0x0807ffff
 8000564:	0803ffff 	.word	0x0803ffff
 8000568:	08040000 	.word	0x08040000
 800056c:	40022028 	.word	0x40022028

08000570 <clock_pll_off>:
 8000570:	b480      	push	{r7}
 8000572:	b083      	sub	sp, #12
 8000574:	af00      	add	r7, sp, #0
 8000576:	4b10      	ldr	r3, [pc, #64]	; (80005b8 <clock_pll_off+0x48>)
 8000578:	681b      	ldr	r3, [r3, #0]
 800057a:	607b      	str	r3, [r7, #4]
 800057c:	687b      	ldr	r3, [r7, #4]
 800057e:	f023 0303 	bic.w	r3, r3, #3
 8000582:	607b      	str	r3, [r7, #4]
 8000584:	4a0c      	ldr	r2, [pc, #48]	; (80005b8 <clock_pll_off+0x48>)
 8000586:	687b      	ldr	r3, [r7, #4]
 8000588:	6013      	str	r3, [r2, #0]
 800058a:	f3bf 8f5f 	dmb	sy
 800058e:	bf00      	nop
 8000590:	4b09      	ldr	r3, [pc, #36]	; (80005b8 <clock_pll_off+0x48>)
 8000592:	681b      	ldr	r3, [r3, #0]
 8000594:	f003 0303 	and.w	r3, r3, #3
 8000598:	2b00      	cmp	r3, #0
 800059a:	d1f9      	bne.n	8000590 <clock_pll_off+0x20>
 800059c:	4b07      	ldr	r3, [pc, #28]	; (80005bc <clock_pll_off+0x4c>)
 800059e:	681b      	ldr	r3, [r3, #0]
 80005a0:	4a06      	ldr	r2, [pc, #24]	; (80005bc <clock_pll_off+0x4c>)
 80005a2:	f023 7380 	bic.w	r3, r3, #16777216	; 0x1000000
 80005a6:	6013      	str	r3, [r2, #0]
 80005a8:	f3bf 8f5f 	dmb	sy
 80005ac:	bf00      	nop
 80005ae:	370c      	adds	r7, #12
 80005b0:	46bd      	mov	sp, r7
 80005b2:	bc80      	pop	{r7}
 80005b4:	4770      	bx	lr
 80005b6:	bf00      	nop
 80005b8:	40021008 	.word	0x40021008
 80005bc:	40021000 	.word	0x40021000

080005c0 <clock_pll_on>:
 80005c0:	b580      	push	{r7, lr}
 80005c2:	b08c      	sub	sp, #48	; 0x30
 80005c4:	af00      	add	r7, sp, #0
 80005c6:	6078      	str	r0, [r7, #4]
 80005c8:	4b7c      	ldr	r3, [pc, #496]	; (80007bc <clock_pll_on+0x1fc>)
 80005ca:	681b      	ldr	r3, [r3, #0]
 80005cc:	4a7b      	ldr	r2, [pc, #492]	; (80007bc <clock_pll_on+0x1fc>)
 80005ce:	f043 0301 	orr.w	r3, r3, #1
 80005d2:	6013      	str	r3, [r2, #0]
 80005d4:	4b7a      	ldr	r3, [pc, #488]	; (80007c0 <clock_pll_on+0x200>)
 80005d6:	681b      	ldr	r3, [r3, #0]
 80005d8:	4a79      	ldr	r2, [pc, #484]	; (80007c0 <clock_pll_on+0x200>)
 80005da:	f043 5380 	orr.w	r3, r3, #268435456	; 0x10000000
 80005de:	6013      	str	r3, [r2, #0]
 80005e0:	4b78      	ldr	r3, [pc, #480]	; (80007c4 <clock_pll_on+0x204>)
 80005e2:	681b      	ldr	r3, [r3, #0]
 80005e4:	4a77      	ldr	r2, [pc, #476]	; (80007c4 <clock_pll_on+0x204>)
 80005e6:	f443 4380 	orr.w	r3, r3, #16384	; 0x4000
 80005ea:	6013      	str	r3, [r2, #0]
 80005ec:	4b76      	ldr	r3, [pc, #472]	; (80007c8 <clock_pll_on+0x208>)
 80005ee:	681b      	ldr	r3, [r3, #0]
 80005f0:	4a75      	ldr	r2, [pc, #468]	; (80007c8 <clock_pll_on+0x208>)
 80005f2:	f423 63c0 	bic.w	r3, r3, #1536	; 0x600
 80005f6:	6013      	str	r3, [r2, #0]
 80005f8:	4b73      	ldr	r3, [pc, #460]	; (80007c8 <clock_pll_on+0x208>)
 80005fa:	4a73      	ldr	r2, [pc, #460]	; (80007c8 <clock_pll_on+0x208>)
 80005fc:	681b      	ldr	r3, [r3, #0]
 80005fe:	6013      	str	r3, [r2, #0]
 8000600:	4b71      	ldr	r3, [pc, #452]	; (80007c8 <clock_pll_on+0x208>)
 8000602:	681b      	ldr	r3, [r3, #0]
 8000604:	62fb      	str	r3, [r7, #44]	; 0x2c
 8000606:	bf00      	nop
 8000608:	4b70      	ldr	r3, [pc, #448]	; (80007cc <clock_pll_on+0x20c>)
 800060a:	681b      	ldr	r3, [r3, #0]
 800060c:	f403 6380 	and.w	r3, r3, #1024	; 0x400
 8000610:	2b00      	cmp	r3, #0
 8000612:	d1f9      	bne.n	8000608 <clock_pll_on+0x48>
 8000614:	bf00      	nop
 8000616:	4b6e      	ldr	r3, [pc, #440]	; (80007d0 <clock_pll_on+0x210>)
 8000618:	681b      	ldr	r3, [r3, #0]
 800061a:	f003 0302 	and.w	r3, r3, #2
 800061e:	2b00      	cmp	r3, #0
 8000620:	d0f9      	beq.n	8000616 <clock_pll_on+0x56>
 8000622:	2302      	movs	r3, #2
 8000624:	62bb      	str	r3, [r7, #40]	; 0x28
 8000626:	6ab8      	ldr	r0, [r7, #40]	; 0x28
 8000628:	f7ff fdfa 	bl	8000220 <flash_set_waitstates>
 800062c:	4b68      	ldr	r3, [pc, #416]	; (80007d0 <clock_pll_on+0x210>)
 800062e:	681b      	ldr	r3, [r3, #0]
 8000630:	4a67      	ldr	r2, [pc, #412]	; (80007d0 <clock_pll_on+0x210>)
 8000632:	f043 0308 	orr.w	r3, r3, #8
 8000636:	6013      	str	r3, [r2, #0]
 8000638:	4b65      	ldr	r3, [pc, #404]	; (80007d0 <clock_pll_on+0x210>)
 800063a:	681b      	ldr	r3, [r3, #0]
 800063c:	62fb      	str	r3, [r7, #44]	; 0x2c
 800063e:	6afb      	ldr	r3, [r7, #44]	; 0x2c
 8000640:	f023 03f0 	bic.w	r3, r3, #240	; 0xf0
 8000644:	62fb      	str	r3, [r7, #44]	; 0x2c
 8000646:	6afb      	ldr	r3, [r7, #44]	; 0x2c
 8000648:	f043 03b0 	orr.w	r3, r3, #176	; 0xb0
 800064c:	62fb      	str	r3, [r7, #44]	; 0x2c
 800064e:	4a60      	ldr	r2, [pc, #384]	; (80007d0 <clock_pll_on+0x210>)
 8000650:	6afb      	ldr	r3, [r7, #44]	; 0x2c
 8000652:	6013      	str	r3, [r2, #0]
 8000654:	4b5e      	ldr	r3, [pc, #376]	; (80007d0 <clock_pll_on+0x210>)
 8000656:	681b      	ldr	r3, [r3, #0]
 8000658:	62fb      	str	r3, [r7, #44]	; 0x2c
 800065a:	f3bf 8f5f 	dmb	sy
 800065e:	230c      	movs	r3, #12
 8000660:	627b      	str	r3, [r7, #36]	; 0x24
 8000662:	2337      	movs	r3, #55	; 0x37
 8000664:	623b      	str	r3, [r7, #32]
 8000666:	2307      	movs	r3, #7
 8000668:	61fb      	str	r3, [r7, #28]
 800066a:	2300      	movs	r3, #0
 800066c:	61bb      	str	r3, [r7, #24]
 800066e:	2300      	movs	r3, #0
 8000670:	617b      	str	r3, [r7, #20]
 8000672:	2300      	movs	r3, #0
 8000674:	613b      	str	r3, [r7, #16]
 8000676:	2300      	movs	r3, #0
 8000678:	60fb      	str	r3, [r7, #12]
 800067a:	2300      	movs	r3, #0
 800067c:	60bb      	str	r3, [r7, #8]
 800067e:	2305      	movs	r3, #5
 8000680:	62bb      	str	r3, [r7, #40]	; 0x28
 8000682:	4b53      	ldr	r3, [pc, #332]	; (80007d0 <clock_pll_on+0x210>)
 8000684:	681b      	ldr	r3, [r3, #0]
 8000686:	4a52      	ldr	r2, [pc, #328]	; (80007d0 <clock_pll_on+0x210>)
 8000688:	f023 7380 	bic.w	r3, r3, #16777216	; 0x1000000
 800068c:	6013      	str	r3, [r2, #0]
 800068e:	bf00      	nop
 8000690:	4b4f      	ldr	r3, [pc, #316]	; (80007d0 <clock_pll_on+0x210>)
 8000692:	681b      	ldr	r3, [r3, #0]
 8000694:	f003 7300 	and.w	r3, r3, #33554432	; 0x2000000
 8000698:	2b00      	cmp	r3, #0
 800069a:	d1f9      	bne.n	8000690 <clock_pll_on+0xd0>
 800069c:	4b4d      	ldr	r3, [pc, #308]	; (80007d4 <clock_pll_on+0x214>)
 800069e:	681b      	ldr	r3, [r3, #0]
 80006a0:	62fb      	str	r3, [r7, #44]	; 0x2c
 80006a2:	6afb      	ldr	r3, [r7, #44]	; 0x2c
 80006a4:	f043 0301 	orr.w	r3, r3, #1
 80006a8:	62fb      	str	r3, [r7, #44]	; 0x2c
 80006aa:	6a7b      	ldr	r3, [r7, #36]	; 0x24
 80006ac:	3b01      	subs	r3, #1
 80006ae:	011b      	lsls	r3, r3, #4
 80006b0:	6afa      	ldr	r2, [r7, #44]	; 0x2c
 80006b2:	4313      	orrs	r3, r2
 80006b4:	62fb      	str	r3, [r7, #44]	; 0x2c
 80006b6:	6a3b      	ldr	r3, [r7, #32]
 80006b8:	021b      	lsls	r3, r3, #8
 80006ba:	6afa      	ldr	r2, [r7, #44]	; 0x2c
 80006bc:	4313      	orrs	r3, r2
 80006be:	62fb      	str	r3, [r7, #44]	; 0x2c
 80006c0:	69fb      	ldr	r3, [r7, #28]
 80006c2:	06db      	lsls	r3, r3, #27
 80006c4:	6afa      	ldr	r2, [r7, #44]	; 0x2c
 80006c6:	4313      	orrs	r3, r2
 80006c8:	62fb      	str	r3, [r7, #44]	; 0x2c
 80006ca:	69bb      	ldr	r3, [r7, #24]
 80006cc:	055b      	lsls	r3, r3, #21
 80006ce:	6afa      	ldr	r2, [r7, #44]	; 0x2c
 80006d0:	4313      	orrs	r3, r2
 80006d2:	62fb      	str	r3, [r7, #44]	; 0x2c
 80006d4:	697b      	ldr	r3, [r7, #20]
 80006d6:	065b      	lsls	r3, r3, #25
 80006d8:	6afa      	ldr	r2, [r7, #44]	; 0x2c
 80006da:	4313      	orrs	r3, r2
 80006dc:	62fb      	str	r3, [r7, #44]	; 0x2c
 80006de:	4a3d      	ldr	r2, [pc, #244]	; (80007d4 <clock_pll_on+0x214>)
 80006e0:	6afb      	ldr	r3, [r7, #44]	; 0x2c
 80006e2:	6013      	str	r3, [r2, #0]
 80006e4:	f3bf 8f5f 	dmb	sy
 80006e8:	4b39      	ldr	r3, [pc, #228]	; (80007d0 <clock_pll_on+0x210>)
 80006ea:	681b      	ldr	r3, [r3, #0]
 80006ec:	4a38      	ldr	r2, [pc, #224]	; (80007d0 <clock_pll_on+0x210>)
 80006ee:	f043 7380 	orr.w	r3, r3, #16777216	; 0x1000000
 80006f2:	6013      	str	r3, [r2, #0]
 80006f4:	bf00      	nop
 80006f6:	4b36      	ldr	r3, [pc, #216]	; (80007d0 <clock_pll_on+0x210>)
 80006f8:	681b      	ldr	r3, [r3, #0]
 80006fa:	f003 7300 	and.w	r3, r3, #33554432	; 0x2000000
 80006fe:	2b00      	cmp	r3, #0
 8000700:	d0f9      	beq.n	80006f6 <clock_pll_on+0x136>
 8000702:	4b34      	ldr	r3, [pc, #208]	; (80007d4 <clock_pll_on+0x214>)
 8000704:	681b      	ldr	r3, [r3, #0]
 8000706:	4a33      	ldr	r2, [pc, #204]	; (80007d4 <clock_pll_on+0x214>)
 8000708:	f043 7380 	orr.w	r3, r3, #16777216	; 0x1000000
 800070c:	6013      	str	r3, [r2, #0]
 800070e:	6ab8      	ldr	r0, [r7, #40]	; 0x28
 8000710:	f7ff fd86 	bl	8000220 <flash_set_waitstates>
 8000714:	4b30      	ldr	r3, [pc, #192]	; (80007d8 <clock_pll_on+0x218>)
 8000716:	681b      	ldr	r3, [r3, #0]
 8000718:	62fb      	str	r3, [r7, #44]	; 0x2c
 800071a:	6afb      	ldr	r3, [r7, #44]	; 0x2c
 800071c:	f023 03f0 	bic.w	r3, r3, #240	; 0xf0
 8000720:	62fb      	str	r3, [r7, #44]	; 0x2c
 8000722:	6afb      	ldr	r3, [r7, #44]	; 0x2c
 8000724:	f043 0380 	orr.w	r3, r3, #128	; 0x80
 8000728:	62fb      	str	r3, [r7, #44]	; 0x2c
 800072a:	4a2b      	ldr	r2, [pc, #172]	; (80007d8 <clock_pll_on+0x218>)
 800072c:	6afb      	ldr	r3, [r7, #44]	; 0x2c
 800072e:	6013      	str	r3, [r2, #0]
 8000730:	f3bf 8f5f 	dmb	sy
 8000734:	4b28      	ldr	r3, [pc, #160]	; (80007d8 <clock_pll_on+0x218>)
 8000736:	681b      	ldr	r3, [r3, #0]
 8000738:	62fb      	str	r3, [r7, #44]	; 0x2c
 800073a:	6afb      	ldr	r3, [r7, #44]	; 0x2c
 800073c:	f023 0303 	bic.w	r3, r3, #3
 8000740:	62fb      	str	r3, [r7, #44]	; 0x2c
 8000742:	4a25      	ldr	r2, [pc, #148]	; (80007d8 <clock_pll_on+0x218>)
 8000744:	6afb      	ldr	r3, [r7, #44]	; 0x2c
 8000746:	f043 0303 	orr.w	r3, r3, #3
 800074a:	6013      	str	r3, [r2, #0]
 800074c:	f3bf 8f5f 	dmb	sy
 8000750:	bf00      	nop
 8000752:	4b21      	ldr	r3, [pc, #132]	; (80007d8 <clock_pll_on+0x218>)
 8000754:	681b      	ldr	r3, [r3, #0]
 8000756:	f003 0303 	and.w	r3, r3, #3
 800075a:	2b03      	cmp	r3, #3
 800075c:	d1f9      	bne.n	8000752 <clock_pll_on+0x192>
 800075e:	4b1e      	ldr	r3, [pc, #120]	; (80007d8 <clock_pll_on+0x218>)
 8000760:	681b      	ldr	r3, [r3, #0]
 8000762:	62fb      	str	r3, [r7, #44]	; 0x2c
 8000764:	6afb      	ldr	r3, [r7, #44]	; 0x2c
 8000766:	f023 03f0 	bic.w	r3, r3, #240	; 0xf0
 800076a:	62fb      	str	r3, [r7, #44]	; 0x2c
 800076c:	693b      	ldr	r3, [r7, #16]
 800076e:	011b      	lsls	r3, r3, #4
 8000770:	6afa      	ldr	r2, [r7, #44]	; 0x2c
 8000772:	4313      	orrs	r3, r2
 8000774:	62fb      	str	r3, [r7, #44]	; 0x2c
 8000776:	4a18      	ldr	r2, [pc, #96]	; (80007d8 <clock_pll_on+0x218>)
 8000778:	6afb      	ldr	r3, [r7, #44]	; 0x2c
 800077a:	6013      	str	r3, [r2, #0]
 800077c:	f3bf 8f5f 	dmb	sy
 8000780:	4b15      	ldr	r3, [pc, #84]	; (80007d8 <clock_pll_on+0x218>)
 8000782:	681b      	ldr	r3, [r3, #0]
 8000784:	62fb      	str	r3, [r7, #44]	; 0x2c
 8000786:	6afb      	ldr	r3, [r7, #44]	; 0x2c
 8000788:	f423 63e0 	bic.w	r3, r3, #1792	; 0x700
 800078c:	62fb      	str	r3, [r7, #44]	; 0x2c
 800078e:	68fb      	ldr	r3, [r7, #12]
 8000790:	021b      	lsls	r3, r3, #8
 8000792:	6afa      	ldr	r2, [r7, #44]	; 0x2c
 8000794:	4313      	orrs	r3, r2
 8000796:	62fb      	str	r3, [r7, #44]	; 0x2c
 8000798:	6afb      	ldr	r3, [r7, #44]	; 0x2c
 800079a:	f423 5360 	bic.w	r3, r3, #14336	; 0x3800
 800079e:	62fb      	str	r3, [r7, #44]	; 0x2c
 80007a0:	68bb      	ldr	r3, [r7, #8]
 80007a2:	02db      	lsls	r3, r3, #11
 80007a4:	6afa      	ldr	r2, [r7, #44]	; 0x2c
 80007a6:	4313      	orrs	r3, r2
 80007a8:	62fb      	str	r3, [r7, #44]	; 0x2c
 80007aa:	4a0b      	ldr	r2, [pc, #44]	; (80007d8 <clock_pll_on+0x218>)
 80007ac:	6afb      	ldr	r3, [r7, #44]	; 0x2c
 80007ae:	6013      	str	r3, [r2, #0]
 80007b0:	f3bf 8f5f 	dmb	sy
 80007b4:	bf00      	nop
 80007b6:	3730      	adds	r7, #48	; 0x30
 80007b8:	46bd      	mov	sp, r7
 80007ba:	bd80      	pop	{r7, pc}
 80007bc:	40021060 	.word	0x40021060
 80007c0:	40021058 	.word	0x40021058
 80007c4:	40007008 	.word	0x40007008
 80007c8:	40007000 	.word	0x40007000
 80007cc:	40007014 	.word	0x40007014
 80007d0:	40021000 	.word	0x40021000
 80007d4:	4002100c 	.word	0x4002100c
 80007d8:	40021008 	.word	0x40021008

080007dc <hal_flash_dualbank_swap>:
 80007dc:	b580      	push	{r7, lr}
 80007de:	b082      	sub	sp, #8
 80007e0:	af00      	add	r7, sp, #0
 80007e2:	f7ff fdc3 	bl	800036c <hal_flash_unlock>
 80007e6:	f7ff fdf7 	bl	80003d8 <hal_flash_opt_unlock>
 80007ea:	4b0f      	ldr	r3, [pc, #60]	; (8000828 <hal_flash_dualbank_swap+0x4c>)
 80007ec:	681b      	ldr	r3, [r3, #0]
 80007ee:	0d1b      	lsrs	r3, r3, #20
 80007f0:	f003 0301 	and.w	r3, r3, #1
 80007f4:	607b      	str	r3, [r7, #4]
 80007f6:	687b      	ldr	r3, [r7, #4]
 80007f8:	2b00      	cmp	r3, #0
 80007fa:	d006      	beq.n	800080a <hal_flash_dualbank_swap+0x2e>
 80007fc:	4b0a      	ldr	r3, [pc, #40]	; (8000828 <hal_flash_dualbank_swap+0x4c>)
 80007fe:	681b      	ldr	r3, [r3, #0]
 8000800:	4a09      	ldr	r2, [pc, #36]	; (8000828 <hal_flash_dualbank_swap+0x4c>)
 8000802:	f423 1380 	bic.w	r3, r3, #1048576	; 0x100000
 8000806:	6013      	str	r3, [r2, #0]
 8000808:	e005      	b.n	8000816 <hal_flash_dualbank_swap+0x3a>
 800080a:	4b07      	ldr	r3, [pc, #28]	; (8000828 <hal_flash_dualbank_swap+0x4c>)
 800080c:	681b      	ldr	r3, [r3, #0]
 800080e:	4a06      	ldr	r2, [pc, #24]	; (8000828 <hal_flash_dualbank_swap+0x4c>)
 8000810:	f443 1380 	orr.w	r3, r3, #1048576	; 0x100000
 8000814:	6013      	str	r3, [r2, #0]
 8000816:	f7ff fe03 	bl	8000420 <hal_flash_opt_lock>
 800081a:	f7ff fdc9 	bl	80003b0 <hal_flash_lock>
 800081e:	bf00      	nop
 8000820:	3708      	adds	r7, #8
 8000822:	46bd      	mov	sp, r7
 8000824:	bd80      	pop	{r7, pc}
 8000826:	bf00      	nop
 8000828:	40022040 	.word	0x40022040

0800082c <fork_bootloader>:
 800082c:	b580      	push	{r7, lr}
 800082e:	b084      	sub	sp, #16
 8000830:	af00      	add	r7, sp, #0
 8000832:	f04f 6300 	mov.w	r3, #134217728	; 0x8000000
 8000836:	60fb      	str	r3, [r7, #12]
 8000838:	4b0f      	ldr	r3, [pc, #60]	; (8000878 <fork_bootloader+0x4c>)
 800083a:	60bb      	str	r3, [r7, #8]
 800083c:	2300      	movs	r3, #0
 800083e:	607b      	str	r3, [r7, #4]
 8000840:	2300      	movs	r3, #0
 8000842:	603b      	str	r3, [r7, #0]
 8000844:	f44f 4200 	mov.w	r2, #32768	; 0x8000
 8000848:	68f9      	ldr	r1, [r7, #12]
 800084a:	480c      	ldr	r0, [pc, #48]	; (800087c <fork_bootloader+0x50>)
 800084c:	f000 f869 	bl	8000922 <memcpy>
 8000850:	f7ff fd8c 	bl	800036c <hal_flash_unlock>
 8000854:	f44f 4100 	mov.w	r1, #32768	; 0x8000
 8000858:	68b8      	ldr	r0, [r7, #8]
 800085a:	f7ff fe03 	bl	8000464 <hal_flash_erase>
 800085e:	f44f 4200 	mov.w	r2, #32768	; 0x8000
 8000862:	4906      	ldr	r1, [pc, #24]	; (800087c <fork_bootloader+0x50>)
 8000864:	68b8      	ldr	r0, [r7, #8]
 8000866:	f7ff fd21 	bl	80002ac <hal_flash_write>
 800086a:	f7ff fda1 	bl	80003b0 <hal_flash_lock>
 800086e:	bf00      	nop
 8000870:	3710      	adds	r7, #16
 8000872:	46bd      	mov	sp, r7
 8000874:	bd80      	pop	{r7, pc}
 8000876:	bf00      	nop
 8000878:	08040000 	.word	0x08040000
 800087c:	30000000 	.word	0x30000000

08000880 <hal_init>:
 8000880:	b580      	push	{r7, lr}
 8000882:	af00      	add	r7, sp, #0
 8000884:	f7ff fc5c 	bl	8000140 <TZ_SAU_Setup>
 8000888:	4b06      	ldr	r3, [pc, #24]	; (80008a4 <hal_init+0x24>)
 800088a:	681b      	ldr	r3, [r3, #0]
 800088c:	f403 03a0 	and.w	r3, r3, #5242880	; 0x500000
 8000890:	f5b3 0f80 	cmp.w	r3, #4194304	; 0x400000
 8000894:	d101      	bne.n	800089a <hal_init+0x1a>
 8000896:	f7ff ffc9 	bl	800082c <fork_bootloader>
 800089a:	2000      	movs	r0, #0
 800089c:	f7ff fe90 	bl	80005c0 <clock_pll_on>
 80008a0:	bf00      	nop
 80008a2:	bd80      	pop	{r7, pc}
 80008a4:	40022040 	.word	0x40022040

080008a8 <hal_prepare_boot>:
 80008a8:	b580      	push	{r7, lr}
 80008aa:	af00      	add	r7, sp, #0
 80008ac:	f7ff fe60 	bl	8000570 <clock_pll_off>
 80008b0:	bf00      	nop
 80008b2:	bd80      	pop	{r7, pc}

080008b4 <main>:
 80008b4:	b580      	push	{r7, lr}
 80008b6:	af00      	add	r7, sp, #0
 80008b8:	f7ff ffe2 	bl	8000880 <hal_init>
 80008bc:	f000 fe1a 	bl	80014f4 <wolfBoot_start>
 80008c0:	e7fe      	b.n	80008c0 <main+0xc>

080008c2 <memset>:
 80008c2:	b480      	push	{r7}
 80008c4:	b087      	sub	sp, #28
 80008c6:	af00      	add	r7, sp, #0
 80008c8:	60f8      	str	r0, [r7, #12]
 80008ca:	60b9      	str	r1, [r7, #8]
 80008cc:	607a      	str	r2, [r7, #4]
 80008ce:	68fb      	ldr	r3, [r7, #12]
 80008d0:	617b      	str	r3, [r7, #20]
 80008d2:	e005      	b.n	80008e0 <memset+0x1e>
 80008d4:	697b      	ldr	r3, [r7, #20]
 80008d6:	1c5a      	adds	r2, r3, #1
 80008d8:	617a      	str	r2, [r7, #20]
 80008da:	68ba      	ldr	r2, [r7, #8]
 80008dc:	b2d2      	uxtb	r2, r2
 80008de:	701a      	strb	r2, [r3, #0]
 80008e0:	687b      	ldr	r3, [r7, #4]
 80008e2:	1e5a      	subs	r2, r3, #1
 80008e4:	607a      	str	r2, [r7, #4]
 80008e6:	2b00      	cmp	r3, #0
 80008e8:	d1f4      	bne.n	80008d4 <memset+0x12>
 80008ea:	68fb      	ldr	r3, [r7, #12]
 80008ec:	4618      	mov	r0, r3
 80008ee:	371c      	adds	r7, #28
 80008f0:	46bd      	mov	sp, r7
 80008f2:	bc80      	pop	{r7}
 80008f4:	4770      	bx	lr

080008f6 <strlen>:
 80008f6:	b480      	push	{r7}
 80008f8:	b085      	sub	sp, #20
 80008fa:	af00      	add	r7, sp, #0
 80008fc:	6078      	str	r0, [r7, #4]
 80008fe:	2300      	movs	r3, #0
 8000900:	60fb      	str	r3, [r7, #12]
 8000902:	e002      	b.n	800090a <strlen+0x14>
 8000904:	68fb      	ldr	r3, [r7, #12]
 8000906:	3301      	adds	r3, #1
 8000908:	60fb      	str	r3, [r7, #12]
 800090a:	687a      	ldr	r2, [r7, #4]
 800090c:	68fb      	ldr	r3, [r7, #12]
 800090e:	4413      	add	r3, r2
 8000910:	781b      	ldrb	r3, [r3, #0]
 8000912:	2b00      	cmp	r3, #0
 8000914:	d1f6      	bne.n	8000904 <strlen+0xe>
 8000916:	68fb      	ldr	r3, [r7, #12]
 8000918:	4618      	mov	r0, r3
 800091a:	3714      	adds	r7, #20
 800091c:	46bd      	mov	sp, r7
 800091e:	bc80      	pop	{r7}
 8000920:	4770      	bx	lr

08000922 <memcpy>:
 8000922:	b480      	push	{r7}
 8000924:	b089      	sub	sp, #36	; 0x24
 8000926:	af00      	add	r7, sp, #0
 8000928:	60f8      	str	r0, [r7, #12]
 800092a:	60b9      	str	r1, [r7, #8]
 800092c:	607a      	str	r2, [r7, #4]
 800092e:	68bb      	ldr	r3, [r7, #8]
 8000930:	61bb      	str	r3, [r7, #24]
 8000932:	68fb      	ldr	r3, [r7, #12]
 8000934:	617b      	str	r3, [r7, #20]
 8000936:	2300      	movs	r3, #0
 8000938:	61fb      	str	r3, [r7, #28]
 800093a:	e00a      	b.n	8000952 <memcpy+0x30>
 800093c:	69ba      	ldr	r2, [r7, #24]
 800093e:	69fb      	ldr	r3, [r7, #28]
 8000940:	441a      	add	r2, r3
 8000942:	6979      	ldr	r1, [r7, #20]
 8000944:	69fb      	ldr	r3, [r7, #28]
 8000946:	440b      	add	r3, r1
 8000948:	7812      	ldrb	r2, [r2, #0]
 800094a:	701a      	strb	r2, [r3, #0]
 800094c:	69fb      	ldr	r3, [r7, #28]
 800094e:	3301      	adds	r3, #1
 8000950:	61fb      	str	r3, [r7, #28]
 8000952:	69fa      	ldr	r2, [r7, #28]
 8000954:	687b      	ldr	r3, [r7, #4]
 8000956:	429a      	cmp	r2, r3
 8000958:	d3f0      	bcc.n	800093c <memcpy+0x1a>
 800095a:	68fb      	ldr	r3, [r7, #12]
 800095c:	4618      	mov	r0, r3
 800095e:	3724      	adds	r7, #36	; 0x24
 8000960:	46bd      	mov	sp, r7
 8000962:	bc80      	pop	{r7}
 8000964:	4770      	bx	lr

08000966 <memcmp>:
 8000966:	b480      	push	{r7}
 8000968:	b089      	sub	sp, #36	; 0x24
 800096a:	af00      	add	r7, sp, #0
 800096c:	60f8      	str	r0, [r7, #12]
 800096e:	60b9      	str	r1, [r7, #8]
 8000970:	607a      	str	r2, [r7, #4]
 8000972:	2300      	movs	r3, #0
 8000974:	61fb      	str	r3, [r7, #28]
 8000976:	68fb      	ldr	r3, [r7, #12]
 8000978:	61bb      	str	r3, [r7, #24]
 800097a:	68bb      	ldr	r3, [r7, #8]
 800097c:	617b      	str	r3, [r7, #20]
 800097e:	e00f      	b.n	80009a0 <memcmp+0x3a>
 8000980:	69bb      	ldr	r3, [r7, #24]
 8000982:	781b      	ldrb	r3, [r3, #0]
 8000984:	461a      	mov	r2, r3
 8000986:	697b      	ldr	r3, [r7, #20]
 8000988:	781b      	ldrb	r3, [r3, #0]
 800098a:	1ad3      	subs	r3, r2, r3
 800098c:	61fb      	str	r3, [r7, #28]
 800098e:	69bb      	ldr	r3, [r7, #24]
 8000990:	3301      	adds	r3, #1
 8000992:	61bb      	str	r3, [r7, #24]
 8000994:	697b      	ldr	r3, [r7, #20]
 8000996:	3301      	adds	r3, #1
 8000998:	617b      	str	r3, [r7, #20]
 800099a:	687b      	ldr	r3, [r7, #4]
 800099c:	3b01      	subs	r3, #1
 800099e:	607b      	str	r3, [r7, #4]
 80009a0:	69fb      	ldr	r3, [r7, #28]
 80009a2:	2b00      	cmp	r3, #0
 80009a4:	d102      	bne.n	80009ac <memcmp+0x46>
 80009a6:	687b      	ldr	r3, [r7, #4]
 80009a8:	2b00      	cmp	r3, #0
 80009aa:	d1e9      	bne.n	8000980 <memcmp+0x1a>
 80009ac:	69fb      	ldr	r3, [r7, #28]
 80009ae:	4618      	mov	r0, r3
 80009b0:	3724      	adds	r7, #36	; 0x24
 80009b2:	46bd      	mov	sp, r7
 80009b4:	bc80      	pop	{r7}
 80009b6:	4770      	bx	lr

080009b8 <wolfBoot_verify_signature>:
 80009b8:	b580      	push	{r7, lr}
 80009ba:	f5ad 7d06 	sub.w	sp, sp, #536	; 0x218
 80009be:	af02      	add	r7, sp, #8
 80009c0:	1d3b      	adds	r3, r7, #4
 80009c2:	6018      	str	r0, [r3, #0]
 80009c4:	463b      	mov	r3, r7
 80009c6:	6019      	str	r1, [r3, #0]
 80009c8:	2300      	movs	r3, #0
 80009ca:	f8c7 3208 	str.w	r3, [r7, #520]	; 0x208
 80009ce:	f107 030c 	add.w	r3, r7, #12
 80009d2:	4618      	mov	r0, r3
 80009d4:	f005 fc9d 	bl	8006312 <wc_ecc_init>
 80009d8:	f8c7 020c 	str.w	r0, [r7, #524]	; 0x20c
 80009dc:	f8d7 320c 	ldr.w	r3, [r7, #524]	; 0x20c
 80009e0:	2b00      	cmp	r3, #0
 80009e2:	da02      	bge.n	80009ea <wolfBoot_verify_signature+0x32>
 80009e4:	f04f 33ff 	mov.w	r3, #4294967295	; 0xffffffff
 80009e8:	e054      	b.n	8000a94 <wolfBoot_verify_signature+0xdc>
 80009ea:	4a2d      	ldr	r2, [pc, #180]	; (8000aa0 <wolfBoot_verify_signature+0xe8>)
 80009ec:	f107 000c 	add.w	r0, r7, #12
 80009f0:	2307      	movs	r3, #7
 80009f2:	9300      	str	r3, [sp, #0]
 80009f4:	2300      	movs	r3, #0
 80009f6:	492b      	ldr	r1, [pc, #172]	; (8000aa4 <wolfBoot_verify_signature+0xec>)
 80009f8:	f005 fe68 	bl	80066cc <wc_ecc_import_unsigned>
 80009fc:	f8c7 020c 	str.w	r0, [r7, #524]	; 0x20c
 8000a00:	f8d7 320c 	ldr.w	r3, [r7, #524]	; 0x20c
 8000a04:	2b00      	cmp	r3, #0
 8000a06:	db04      	blt.n	8000a12 <wolfBoot_verify_signature+0x5a>
 8000a08:	f107 030c 	add.w	r3, r7, #12
 8000a0c:	681b      	ldr	r3, [r3, #0]
 8000a0e:	2b01      	cmp	r3, #1
 8000a10:	d002      	beq.n	8000a18 <wolfBoot_verify_signature+0x60>
 8000a12:	f04f 33ff 	mov.w	r3, #4294967295	; 0xffffffff
 8000a16:	e03d      	b.n	8000a94 <wolfBoot_verify_signature+0xdc>
 8000a18:	f507 73dc 	add.w	r3, r7, #440	; 0x1b8
 8000a1c:	4618      	mov	r0, r3
 8000a1e:	f001 fc8d 	bl	800233c <sp_init>
 8000a22:	f507 73b4 	add.w	r3, r7, #360	; 0x168
 8000a26:	4618      	mov	r0, r3
 8000a28:	f001 fc88 	bl	800233c <sp_init>
 8000a2c:	463b      	mov	r3, r7
 8000a2e:	f507 70dc 	add.w	r0, r7, #440	; 0x1b8
 8000a32:	2220      	movs	r2, #32
 8000a34:	6819      	ldr	r1, [r3, #0]
 8000a36:	f001 fddf 	bl	80025f8 <sp_read_unsigned_bin>
 8000a3a:	463b      	mov	r3, r7
 8000a3c:	681b      	ldr	r3, [r3, #0]
 8000a3e:	f103 0120 	add.w	r1, r3, #32
 8000a42:	f507 73b4 	add.w	r3, r7, #360	; 0x168
 8000a46:	2220      	movs	r2, #32
 8000a48:	4618      	mov	r0, r3
 8000a4a:	f001 fdd5 	bl	80025f8 <sp_read_unsigned_bin>
 8000a4e:	1d3a      	adds	r2, r7, #4
 8000a50:	f507 71b4 	add.w	r1, r7, #360	; 0x168
 8000a54:	f507 70dc 	add.w	r0, r7, #440	; 0x1b8
 8000a58:	f107 030c 	add.w	r3, r7, #12
 8000a5c:	9301      	str	r3, [sp, #4]
 8000a5e:	f507 7302 	add.w	r3, r7, #520	; 0x208
 8000a62:	9300      	str	r3, [sp, #0]
 8000a64:	2320      	movs	r3, #32
 8000a66:	6812      	ldr	r2, [r2, #0]
 8000a68:	f005 fcc4 	bl	80063f4 <wc_ecc_verify_hash_ex>
 8000a6c:	f8c7 020c 	str.w	r0, [r7, #524]	; 0x20c
 8000a70:	f8d7 320c 	ldr.w	r3, [r7, #524]	; 0x20c
 8000a74:	2b00      	cmp	r3, #0
 8000a76:	db03      	blt.n	8000a80 <wolfBoot_verify_signature+0xc8>
 8000a78:	f8d7 3208 	ldr.w	r3, [r7, #520]	; 0x208
 8000a7c:	2b00      	cmp	r3, #0
 8000a7e:	d104      	bne.n	8000a8a <wolfBoot_verify_signature+0xd2>
 8000a80:	f04f 33ff 	mov.w	r3, #4294967295	; 0xffffffff
 8000a84:	f8c7 320c 	str.w	r3, [r7, #524]	; 0x20c
 8000a88:	e002      	b.n	8000a90 <wolfBoot_verify_signature+0xd8>
 8000a8a:	2300      	movs	r3, #0
 8000a8c:	f8c7 320c 	str.w	r3, [r7, #524]	; 0x20c
 8000a90:	f8d7 320c 	ldr.w	r3, [r7, #524]	; 0x20c
 8000a94:	4618      	mov	r0, r3
 8000a96:	f507 7704 	add.w	r7, r7, #528	; 0x210
 8000a9a:	46bd      	mov	sp, r7
 8000a9c:	bd80      	pop	{r7, pc}
 8000a9e:	bf00      	nop
 8000aa0:	08006a88 	.word	0x08006a88
 8000aa4:	08006a68 	.word	0x08006a68

08000aa8 <get_header>:
 8000aa8:	b580      	push	{r7, lr}
 8000aaa:	b084      	sub	sp, #16
 8000aac:	af00      	add	r7, sp, #0
 8000aae:	60f8      	str	r0, [r7, #12]
 8000ab0:	460b      	mov	r3, r1
 8000ab2:	607a      	str	r2, [r7, #4]
 8000ab4:	817b      	strh	r3, [r7, #10]
 8000ab6:	68fb      	ldr	r3, [r7, #12]
 8000ab8:	681b      	ldr	r3, [r3, #0]
 8000aba:	3308      	adds	r3, #8
 8000abc:	8979      	ldrh	r1, [r7, #10]
 8000abe:	687a      	ldr	r2, [r7, #4]
 8000ac0:	4618      	mov	r0, r3
 8000ac2:	f000 fba5 	bl	8001210 <wolfBoot_find_header>
 8000ac6:	4603      	mov	r3, r0
 8000ac8:	4618      	mov	r0, r3
 8000aca:	3710      	adds	r7, #16
 8000acc:	46bd      	mov	sp, r7
 8000ace:	bd80      	pop	{r7, pc}

08000ad0 <get_sha_block>:
 8000ad0:	b480      	push	{r7}
 8000ad2:	b083      	sub	sp, #12
 8000ad4:	af00      	add	r7, sp, #0
 8000ad6:	6078      	str	r0, [r7, #4]
 8000ad8:	6039      	str	r1, [r7, #0]
 8000ada:	687b      	ldr	r3, [r7, #4]
 8000adc:	691b      	ldr	r3, [r3, #16]
 8000ade:	683a      	ldr	r2, [r7, #0]
 8000ae0:	429a      	cmp	r2, r3
 8000ae2:	d901      	bls.n	8000ae8 <get_sha_block+0x18>
 8000ae4:	2300      	movs	r3, #0
 8000ae6:	e003      	b.n	8000af0 <get_sha_block+0x20>
 8000ae8:	687b      	ldr	r3, [r7, #4]
 8000aea:	68da      	ldr	r2, [r3, #12]
 8000aec:	683b      	ldr	r3, [r7, #0]
 8000aee:	4413      	add	r3, r2
 8000af0:	4618      	mov	r0, r3
 8000af2:	370c      	adds	r7, #12
 8000af4:	46bd      	mov	sp, r7
 8000af6:	bc80      	pop	{r7}
 8000af8:	4770      	bx	lr

08000afa <get_img_hdr>:
 8000afa:	b480      	push	{r7}
 8000afc:	b083      	sub	sp, #12
 8000afe:	af00      	add	r7, sp, #0
 8000b00:	6078      	str	r0, [r7, #4]
 8000b02:	687b      	ldr	r3, [r7, #4]
 8000b04:	681b      	ldr	r3, [r3, #0]
 8000b06:	4618      	mov	r0, r3
 8000b08:	370c      	adds	r7, #12
 8000b0a:	46bd      	mov	sp, r7
 8000b0c:	bc80      	pop	{r7}
 8000b0e:	4770      	bx	lr

08000b10 <image_sha256>:
 8000b10:	b580      	push	{r7, lr}
 8000b12:	b0a4      	sub	sp, #144	; 0x90
 8000b14:	af00      	add	r7, sp, #0
 8000b16:	6078      	str	r0, [r7, #4]
 8000b18:	6039      	str	r1, [r7, #0]
 8000b1a:	2300      	movs	r3, #0
 8000b1c:	f8c7 3084 	str.w	r3, [r7, #132]	; 0x84
 8000b20:	687b      	ldr	r3, [r7, #4]
 8000b22:	2b00      	cmp	r3, #0
 8000b24:	d102      	bne.n	8000b2c <image_sha256+0x1c>
 8000b26:	f04f 33ff 	mov.w	r3, #4294967295	; 0xffffffff
 8000b2a:	e081      	b.n	8000c30 <image_sha256+0x120>
 8000b2c:	6878      	ldr	r0, [r7, #4]
 8000b2e:	f7ff ffe4 	bl	8000afa <get_img_hdr>
 8000b32:	f8c7 008c 	str.w	r0, [r7, #140]	; 0x8c
 8000b36:	f107 0378 	add.w	r3, r7, #120	; 0x78
 8000b3a:	461a      	mov	r2, r3
 8000b3c:	2103      	movs	r1, #3
 8000b3e:	6878      	ldr	r0, [r7, #4]
 8000b40:	f7ff ffb2 	bl	8000aa8 <get_header>
 8000b44:	4603      	mov	r3, r0
 8000b46:	f8a7 3082 	strh.w	r3, [r7, #130]	; 0x82
 8000b4a:	f8b7 3082 	ldrh.w	r3, [r7, #130]	; 0x82
 8000b4e:	2b20      	cmp	r3, #32
 8000b50:	d002      	beq.n	8000b58 <image_sha256+0x48>
 8000b52:	f04f 33ff 	mov.w	r3, #4294967295	; 0xffffffff
 8000b56:	e06b      	b.n	8000c30 <image_sha256+0x120>
 8000b58:	f107 0308 	add.w	r3, r7, #8
 8000b5c:	4618      	mov	r0, r3
 8000b5e:	f001 fbd2 	bl	8002306 <wc_InitSha256>
 8000b62:	6fbb      	ldr	r3, [r7, #120]	; 0x78
 8000b64:	3b04      	subs	r3, #4
 8000b66:	67fb      	str	r3, [r7, #124]	; 0x7c
 8000b68:	e020      	b.n	8000bac <image_sha256+0x9c>
 8000b6a:	2310      	movs	r3, #16
 8000b6c:	f8c7 3088 	str.w	r3, [r7, #136]	; 0x88
 8000b70:	6ffa      	ldr	r2, [r7, #124]	; 0x7c
 8000b72:	f8d7 308c 	ldr.w	r3, [r7, #140]	; 0x8c
 8000b76:	1ad3      	subs	r3, r2, r3
 8000b78:	f8d7 2088 	ldr.w	r2, [r7, #136]	; 0x88
 8000b7c:	429a      	cmp	r2, r3
 8000b7e:	dd05      	ble.n	8000b8c <image_sha256+0x7c>
 8000b80:	6ffa      	ldr	r2, [r7, #124]	; 0x7c
 8000b82:	f8d7 308c 	ldr.w	r3, [r7, #140]	; 0x8c
 8000b86:	1ad3      	subs	r3, r2, r3
 8000b88:	f8c7 3088 	str.w	r3, [r7, #136]	; 0x88
 8000b8c:	f8d7 2088 	ldr.w	r2, [r7, #136]	; 0x88
 8000b90:	f107 0308 	add.w	r3, r7, #8
 8000b94:	f8d7 108c 	ldr.w	r1, [r7, #140]	; 0x8c
 8000b98:	4618      	mov	r0, r3
 8000b9a:	f001 fae7 	bl	800216c <wc_Sha256Update>
 8000b9e:	f8d7 3088 	ldr.w	r3, [r7, #136]	; 0x88
 8000ba2:	f8d7 208c 	ldr.w	r2, [r7, #140]	; 0x8c
 8000ba6:	4413      	add	r3, r2
 8000ba8:	f8c7 308c 	str.w	r3, [r7, #140]	; 0x8c
 8000bac:	f8d7 208c 	ldr.w	r2, [r7, #140]	; 0x8c
 8000bb0:	6ffb      	ldr	r3, [r7, #124]	; 0x7c
 8000bb2:	429a      	cmp	r2, r3
 8000bb4:	d3d9      	bcc.n	8000b6a <image_sha256+0x5a>
 8000bb6:	f8d7 1084 	ldr.w	r1, [r7, #132]	; 0x84
 8000bba:	6878      	ldr	r0, [r7, #4]
 8000bbc:	f7ff ff88 	bl	8000ad0 <get_sha_block>
 8000bc0:	f8c7 008c 	str.w	r0, [r7, #140]	; 0x8c
 8000bc4:	f8d7 308c 	ldr.w	r3, [r7, #140]	; 0x8c
 8000bc8:	2b00      	cmp	r3, #0
 8000bca:	d029      	beq.n	8000c20 <image_sha256+0x110>
 8000bcc:	2310      	movs	r3, #16
 8000bce:	f8c7 3088 	str.w	r3, [r7, #136]	; 0x88
 8000bd2:	f8d7 2088 	ldr.w	r2, [r7, #136]	; 0x88
 8000bd6:	f8d7 3084 	ldr.w	r3, [r7, #132]	; 0x84
 8000bda:	441a      	add	r2, r3
 8000bdc:	687b      	ldr	r3, [r7, #4]
 8000bde:	691b      	ldr	r3, [r3, #16]
 8000be0:	429a      	cmp	r2, r3
 8000be2:	d906      	bls.n	8000bf2 <image_sha256+0xe2>
 8000be4:	687b      	ldr	r3, [r7, #4]
 8000be6:	691a      	ldr	r2, [r3, #16]
 8000be8:	f8d7 3084 	ldr.w	r3, [r7, #132]	; 0x84
 8000bec:	1ad3      	subs	r3, r2, r3
 8000bee:	f8c7 3088 	str.w	r3, [r7, #136]	; 0x88
 8000bf2:	f8d7 2088 	ldr.w	r2, [r7, #136]	; 0x88
 8000bf6:	f107 0308 	add.w	r3, r7, #8
 8000bfa:	f8d7 108c 	ldr.w	r1, [r7, #140]	; 0x8c
 8000bfe:	4618      	mov	r0, r3
 8000c00:	f001 fab4 	bl	800216c <wc_Sha256Update>
 8000c04:	f8d7 3088 	ldr.w	r3, [r7, #136]	; 0x88
 8000c08:	f8d7 2084 	ldr.w	r2, [r7, #132]	; 0x84
 8000c0c:	4413      	add	r3, r2
 8000c0e:	f8c7 3084 	str.w	r3, [r7, #132]	; 0x84
 8000c12:	687b      	ldr	r3, [r7, #4]
 8000c14:	691b      	ldr	r3, [r3, #16]
 8000c16:	f8d7 2084 	ldr.w	r2, [r7, #132]	; 0x84
 8000c1a:	429a      	cmp	r2, r3
 8000c1c:	d3cb      	bcc.n	8000bb6 <image_sha256+0xa6>
 8000c1e:	e000      	b.n	8000c22 <image_sha256+0x112>
 8000c20:	bf00      	nop
 8000c22:	f107 0308 	add.w	r3, r7, #8
 8000c26:	6839      	ldr	r1, [r7, #0]
 8000c28:	4618      	mov	r0, r3
 8000c2a:	f001 fb41 	bl	80022b0 <wc_Sha256Final>
 8000c2e:	2300      	movs	r3, #0
 8000c30:	4618      	mov	r0, r3
 8000c32:	3790      	adds	r7, #144	; 0x90
 8000c34:	46bd      	mov	sp, r7
 8000c36:	bd80      	pop	{r7, pc}

08000c38 <key_sha256>:
 8000c38:	b580      	push	{r7, lr}
 8000c3a:	b0a0      	sub	sp, #128	; 0x80
 8000c3c:	af00      	add	r7, sp, #0
 8000c3e:	6078      	str	r0, [r7, #4]
 8000c40:	2300      	movs	r3, #0
 8000c42:	67bb      	str	r3, [r7, #120]	; 0x78
 8000c44:	f107 0308 	add.w	r3, r7, #8
 8000c48:	4618      	mov	r0, r3
 8000c4a:	f001 fb5c 	bl	8002306 <wc_InitSha256>
 8000c4e:	e01a      	b.n	8000c86 <key_sha256+0x4e>
 8000c50:	2310      	movs	r3, #16
 8000c52:	67fb      	str	r3, [r7, #124]	; 0x7c
 8000c54:	6ffa      	ldr	r2, [r7, #124]	; 0x7c
 8000c56:	6fbb      	ldr	r3, [r7, #120]	; 0x78
 8000c58:	441a      	add	r2, r3
 8000c5a:	4b12      	ldr	r3, [pc, #72]	; (8000ca4 <key_sha256+0x6c>)
 8000c5c:	681b      	ldr	r3, [r3, #0]
 8000c5e:	429a      	cmp	r2, r3
 8000c60:	d904      	bls.n	8000c6c <key_sha256+0x34>
 8000c62:	4b10      	ldr	r3, [pc, #64]	; (8000ca4 <key_sha256+0x6c>)
 8000c64:	681a      	ldr	r2, [r3, #0]
 8000c66:	6fbb      	ldr	r3, [r7, #120]	; 0x78
 8000c68:	1ad3      	subs	r3, r2, r3
 8000c6a:	67fb      	str	r3, [r7, #124]	; 0x7c
 8000c6c:	6fbb      	ldr	r3, [r7, #120]	; 0x78
 8000c6e:	4a0e      	ldr	r2, [pc, #56]	; (8000ca8 <key_sha256+0x70>)
 8000c70:	1899      	adds	r1, r3, r2
 8000c72:	6ffa      	ldr	r2, [r7, #124]	; 0x7c
 8000c74:	f107 0308 	add.w	r3, r7, #8
 8000c78:	4618      	mov	r0, r3
 8000c7a:	f001 fa77 	bl	800216c <wc_Sha256Update>
 8000c7e:	6ffb      	ldr	r3, [r7, #124]	; 0x7c
 8000c80:	6fba      	ldr	r2, [r7, #120]	; 0x78
 8000c82:	4413      	add	r3, r2
 8000c84:	67bb      	str	r3, [r7, #120]	; 0x78
 8000c86:	4b07      	ldr	r3, [pc, #28]	; (8000ca4 <key_sha256+0x6c>)
 8000c88:	681b      	ldr	r3, [r3, #0]
 8000c8a:	6fba      	ldr	r2, [r7, #120]	; 0x78
 8000c8c:	429a      	cmp	r2, r3
 8000c8e:	d3df      	bcc.n	8000c50 <key_sha256+0x18>
 8000c90:	f107 0308 	add.w	r3, r7, #8
 8000c94:	6879      	ldr	r1, [r7, #4]
 8000c96:	4618      	mov	r0, r3
 8000c98:	f001 fb0a 	bl	80022b0 <wc_Sha256Final>
 8000c9c:	bf00      	nop
 8000c9e:	3780      	adds	r7, #128	; 0x80
 8000ca0:	46bd      	mov	sp, r7
 8000ca2:	bd80      	pop	{r7, pc}
 8000ca4:	08006aa8 	.word	0x08006aa8
 8000ca8:	08006a68 	.word	0x08006a68

08000cac <im2n>:
 8000cac:	b480      	push	{r7}
 8000cae:	b083      	sub	sp, #12
 8000cb0:	af00      	add	r7, sp, #0
 8000cb2:	6078      	str	r0, [r7, #4]
 8000cb4:	687b      	ldr	r3, [r7, #4]
 8000cb6:	4618      	mov	r0, r3
 8000cb8:	370c      	adds	r7, #12
 8000cba:	46bd      	mov	sp, r7
 8000cbc:	bc80      	pop	{r7}
 8000cbe:	4770      	bx	lr

08000cc0 <wolfBoot_open_image>:
 8000cc0:	b580      	push	{r7, lr}
 8000cc2:	b086      	sub	sp, #24
 8000cc4:	af00      	add	r7, sp, #0
 8000cc6:	6078      	str	r0, [r7, #4]
 8000cc8:	460b      	mov	r3, r1
 8000cca:	70fb      	strb	r3, [r7, #3]
 8000ccc:	687b      	ldr	r3, [r7, #4]
 8000cce:	2b00      	cmp	r3, #0
 8000cd0:	d102      	bne.n	8000cd8 <wolfBoot_open_image+0x18>
 8000cd2:	f04f 33ff 	mov.w	r3, #4294967295	; 0xffffffff
 8000cd6:	e064      	b.n	8000da2 <wolfBoot_open_image+0xe2>
 8000cd8:	2218      	movs	r2, #24
 8000cda:	2100      	movs	r1, #0
 8000cdc:	6878      	ldr	r0, [r7, #4]
 8000cde:	f7ff fdf0 	bl	80008c2 <memset>
 8000ce2:	687b      	ldr	r3, [r7, #4]
 8000ce4:	78fa      	ldrb	r2, [r7, #3]
 8000ce6:	751a      	strb	r2, [r3, #20]
 8000ce8:	78fb      	ldrb	r3, [r7, #3]
 8000cea:	2b02      	cmp	r3, #2
 8000cec:	d112      	bne.n	8000d14 <wolfBoot_open_image+0x54>
 8000cee:	687a      	ldr	r2, [r7, #4]
 8000cf0:	7d53      	ldrb	r3, [r2, #21]
 8000cf2:	f043 0301 	orr.w	r3, r3, #1
 8000cf6:	7553      	strb	r3, [r2, #21]
 8000cf8:	687b      	ldr	r3, [r7, #4]
 8000cfa:	f04f 32ff 	mov.w	r2, #4294967295	; 0xffffffff
 8000cfe:	601a      	str	r2, [r3, #0]
 8000d00:	687b      	ldr	r3, [r7, #4]
 8000d02:	681a      	ldr	r2, [r3, #0]
 8000d04:	687b      	ldr	r3, [r7, #4]
 8000d06:	60da      	str	r2, [r3, #12]
 8000d08:	687b      	ldr	r3, [r7, #4]
 8000d0a:	f44f 6200 	mov.w	r2, #2048	; 0x800
 8000d0e:	611a      	str	r2, [r3, #16]
 8000d10:	2300      	movs	r3, #0
 8000d12:	e046      	b.n	8000da2 <wolfBoot_open_image+0xe2>
 8000d14:	78fb      	ldrb	r3, [r7, #3]
 8000d16:	2b00      	cmp	r3, #0
 8000d18:	d103      	bne.n	8000d22 <wolfBoot_open_image+0x62>
 8000d1a:	687b      	ldr	r3, [r7, #4]
 8000d1c:	4a23      	ldr	r2, [pc, #140]	; (8000dac <wolfBoot_open_image+0xec>)
 8000d1e:	601a      	str	r2, [r3, #0]
 8000d20:	e009      	b.n	8000d36 <wolfBoot_open_image+0x76>
 8000d22:	78fb      	ldrb	r3, [r7, #3]
 8000d24:	2b01      	cmp	r3, #1
 8000d26:	d103      	bne.n	8000d30 <wolfBoot_open_image+0x70>
 8000d28:	687b      	ldr	r3, [r7, #4]
 8000d2a:	4a21      	ldr	r2, [pc, #132]	; (8000db0 <wolfBoot_open_image+0xf0>)
 8000d2c:	601a      	str	r2, [r3, #0]
 8000d2e:	e002      	b.n	8000d36 <wolfBoot_open_image+0x76>
 8000d30:	f04f 33ff 	mov.w	r3, #4294967295	; 0xffffffff
 8000d34:	e035      	b.n	8000da2 <wolfBoot_open_image+0xe2>
 8000d36:	687b      	ldr	r3, [r7, #4]
 8000d38:	681b      	ldr	r3, [r3, #0]
 8000d3a:	617b      	str	r3, [r7, #20]
 8000d3c:	697b      	ldr	r3, [r7, #20]
 8000d3e:	613b      	str	r3, [r7, #16]
 8000d40:	693b      	ldr	r3, [r7, #16]
 8000d42:	681b      	ldr	r3, [r3, #0]
 8000d44:	4a1b      	ldr	r2, [pc, #108]	; (8000db4 <wolfBoot_open_image+0xf4>)
 8000d46:	4293      	cmp	r3, r2
 8000d48:	d002      	beq.n	8000d50 <wolfBoot_open_image+0x90>
 8000d4a:	f04f 33ff 	mov.w	r3, #4294967295	; 0xffffffff
 8000d4e:	e028      	b.n	8000da2 <wolfBoot_open_image+0xe2>
 8000d50:	697b      	ldr	r3, [r7, #20]
 8000d52:	3304      	adds	r3, #4
 8000d54:	60fb      	str	r3, [r7, #12]
 8000d56:	68fb      	ldr	r3, [r7, #12]
 8000d58:	681b      	ldr	r3, [r3, #0]
 8000d5a:	4618      	mov	r0, r3
 8000d5c:	f7ff ffa6 	bl	8000cac <im2n>
 8000d60:	4603      	mov	r3, r0
 8000d62:	4a15      	ldr	r2, [pc, #84]	; (8000db8 <wolfBoot_open_image+0xf8>)
 8000d64:	4293      	cmp	r3, r2
 8000d66:	d902      	bls.n	8000d6e <wolfBoot_open_image+0xae>
 8000d68:	f04f 33ff 	mov.w	r3, #4294967295	; 0xffffffff
 8000d6c:	e019      	b.n	8000da2 <wolfBoot_open_image+0xe2>
 8000d6e:	687a      	ldr	r2, [r7, #4]
 8000d70:	7d53      	ldrb	r3, [r2, #21]
 8000d72:	f043 0301 	orr.w	r3, r3, #1
 8000d76:	7553      	strb	r3, [r2, #21]
 8000d78:	68fb      	ldr	r3, [r7, #12]
 8000d7a:	681b      	ldr	r3, [r3, #0]
 8000d7c:	4618      	mov	r0, r3
 8000d7e:	f7ff ff95 	bl	8000cac <im2n>
 8000d82:	4602      	mov	r2, r0
 8000d84:	687b      	ldr	r3, [r7, #4]
 8000d86:	611a      	str	r2, [r3, #16]
 8000d88:	687b      	ldr	r3, [r7, #4]
 8000d8a:	681b      	ldr	r3, [r3, #0]
 8000d8c:	f503 7280 	add.w	r2, r3, #256	; 0x100
 8000d90:	687b      	ldr	r3, [r7, #4]
 8000d92:	60da      	str	r2, [r3, #12]
 8000d94:	687b      	ldr	r3, [r7, #4]
 8000d96:	681b      	ldr	r3, [r3, #0]
 8000d98:	f503 3260 	add.w	r2, r3, #229376	; 0x38000
 8000d9c:	687b      	ldr	r3, [r7, #4]
 8000d9e:	605a      	str	r2, [r3, #4]
 8000da0:	2300      	movs	r3, #0
 8000da2:	4618      	mov	r0, r3
 8000da4:	3718      	adds	r7, #24
 8000da6:	46bd      	mov	sp, r7
 8000da8:	bd80      	pop	{r7, pc}
 8000daa:	bf00      	nop
 8000dac:	08008000 	.word	0x08008000
 8000db0:	08048000 	.word	0x08048000
 8000db4:	464c4f57 	.word	0x464c4f57
 8000db8:	00037f00 	.word	0x00037f00

08000dbc <wolfBoot_verify_integrity>:
 8000dbc:	b580      	push	{r7, lr}
 8000dbe:	b084      	sub	sp, #16
 8000dc0:	af00      	add	r7, sp, #0
 8000dc2:	6078      	str	r0, [r7, #4]
 8000dc4:	f107 0308 	add.w	r3, r7, #8
 8000dc8:	461a      	mov	r2, r3
 8000dca:	2103      	movs	r1, #3
 8000dcc:	6878      	ldr	r0, [r7, #4]
 8000dce:	f7ff fe6b 	bl	8000aa8 <get_header>
 8000dd2:	4603      	mov	r3, r0
 8000dd4:	81fb      	strh	r3, [r7, #14]
 8000dd6:	89fb      	ldrh	r3, [r7, #14]
 8000dd8:	2b20      	cmp	r3, #32
 8000dda:	d002      	beq.n	8000de2 <wolfBoot_verify_integrity+0x26>
 8000ddc:	f04f 33ff 	mov.w	r3, #4294967295	; 0xffffffff
 8000de0:	e01e      	b.n	8000e20 <wolfBoot_verify_integrity+0x64>
 8000de2:	4911      	ldr	r1, [pc, #68]	; (8000e28 <wolfBoot_verify_integrity+0x6c>)
 8000de4:	6878      	ldr	r0, [r7, #4]
 8000de6:	f7ff fe93 	bl	8000b10 <image_sha256>
 8000dea:	4603      	mov	r3, r0
 8000dec:	2b00      	cmp	r3, #0
 8000dee:	d002      	beq.n	8000df6 <wolfBoot_verify_integrity+0x3a>
 8000df0:	f04f 33ff 	mov.w	r3, #4294967295	; 0xffffffff
 8000df4:	e014      	b.n	8000e20 <wolfBoot_verify_integrity+0x64>
 8000df6:	68bb      	ldr	r3, [r7, #8]
 8000df8:	89fa      	ldrh	r2, [r7, #14]
 8000dfa:	4619      	mov	r1, r3
 8000dfc:	480a      	ldr	r0, [pc, #40]	; (8000e28 <wolfBoot_verify_integrity+0x6c>)
 8000dfe:	f7ff fdb2 	bl	8000966 <memcmp>
 8000e02:	4603      	mov	r3, r0
 8000e04:	2b00      	cmp	r3, #0
 8000e06:	d002      	beq.n	8000e0e <wolfBoot_verify_integrity+0x52>
 8000e08:	f04f 33ff 	mov.w	r3, #4294967295	; 0xffffffff
 8000e0c:	e008      	b.n	8000e20 <wolfBoot_verify_integrity+0x64>
 8000e0e:	687a      	ldr	r2, [r7, #4]
 8000e10:	7d53      	ldrb	r3, [r2, #21]
 8000e12:	f043 0304 	orr.w	r3, r3, #4
 8000e16:	7553      	strb	r3, [r2, #21]
 8000e18:	68ba      	ldr	r2, [r7, #8]
 8000e1a:	687b      	ldr	r3, [r7, #4]
 8000e1c:	609a      	str	r2, [r3, #8]
 8000e1e:	2300      	movs	r3, #0
 8000e20:	4618      	mov	r0, r3
 8000e22:	3710      	adds	r7, #16
 8000e24:	46bd      	mov	sp, r7
 8000e26:	bd80      	pop	{r7, pc}
 8000e28:	30008000 	.word	0x30008000

08000e2c <wolfBoot_verify_authenticity>:
 8000e2c:	b580      	push	{r7, lr}
 8000e2e:	b088      	sub	sp, #32
 8000e30:	af00      	add	r7, sp, #0
 8000e32:	6078      	str	r0, [r7, #4]
 8000e34:	f107 0310 	add.w	r3, r7, #16
 8000e38:	461a      	mov	r2, r3
 8000e3a:	2120      	movs	r1, #32
 8000e3c:	6878      	ldr	r0, [r7, #4]
 8000e3e:	f7ff fe33 	bl	8000aa8 <get_header>
 8000e42:	4603      	mov	r3, r0
 8000e44:	83fb      	strh	r3, [r7, #30]
 8000e46:	8bfb      	ldrh	r3, [r7, #30]
 8000e48:	2b40      	cmp	r3, #64	; 0x40
 8000e4a:	d002      	beq.n	8000e52 <wolfBoot_verify_authenticity+0x26>
 8000e4c:	f04f 33ff 	mov.w	r3, #4294967295	; 0xffffffff
 8000e50:	e061      	b.n	8000f16 <wolfBoot_verify_authenticity+0xea>
 8000e52:	f107 030c 	add.w	r3, r7, #12
 8000e56:	461a      	mov	r2, r3
 8000e58:	2110      	movs	r1, #16
 8000e5a:	6878      	ldr	r0, [r7, #4]
 8000e5c:	f7ff fe24 	bl	8000aa8 <get_header>
 8000e60:	4603      	mov	r3, r0
 8000e62:	83bb      	strh	r3, [r7, #28]
 8000e64:	8bbb      	ldrh	r3, [r7, #28]
 8000e66:	2b20      	cmp	r3, #32
 8000e68:	d10e      	bne.n	8000e88 <wolfBoot_verify_authenticity+0x5c>
 8000e6a:	482d      	ldr	r0, [pc, #180]	; (8000f20 <wolfBoot_verify_authenticity+0xf4>)
 8000e6c:	f7ff fee4 	bl	8000c38 <key_sha256>
 8000e70:	68fb      	ldr	r3, [r7, #12]
 8000e72:	2220      	movs	r2, #32
 8000e74:	4619      	mov	r1, r3
 8000e76:	482a      	ldr	r0, [pc, #168]	; (8000f20 <wolfBoot_verify_authenticity+0xf4>)
 8000e78:	f7ff fd75 	bl	8000966 <memcmp>
 8000e7c:	4603      	mov	r3, r0
 8000e7e:	2b00      	cmp	r3, #0
 8000e80:	d002      	beq.n	8000e88 <wolfBoot_verify_authenticity+0x5c>
 8000e82:	f04f 33ff 	mov.w	r3, #4294967295	; 0xffffffff
 8000e86:	e046      	b.n	8000f16 <wolfBoot_verify_authenticity+0xea>
 8000e88:	f107 0308 	add.w	r3, r7, #8
 8000e8c:	461a      	mov	r2, r3
 8000e8e:	2104      	movs	r1, #4
 8000e90:	6878      	ldr	r0, [r7, #4]
 8000e92:	f7ff fe09 	bl	8000aa8 <get_header>
 8000e96:	4603      	mov	r3, r0
 8000e98:	837b      	strh	r3, [r7, #26]
 8000e9a:	8b7b      	ldrh	r3, [r7, #26]
 8000e9c:	2b02      	cmp	r3, #2
 8000e9e:	d002      	beq.n	8000ea6 <wolfBoot_verify_authenticity+0x7a>
 8000ea0:	f04f 33ff 	mov.w	r3, #4294967295	; 0xffffffff
 8000ea4:	e037      	b.n	8000f16 <wolfBoot_verify_authenticity+0xea>
 8000ea6:	68bb      	ldr	r3, [r7, #8]
 8000ea8:	781b      	ldrb	r3, [r3, #0]
 8000eaa:	b29a      	uxth	r2, r3
 8000eac:	68bb      	ldr	r3, [r7, #8]
 8000eae:	3301      	adds	r3, #1
 8000eb0:	781b      	ldrb	r3, [r3, #0]
 8000eb2:	b29b      	uxth	r3, r3
 8000eb4:	021b      	lsls	r3, r3, #8
 8000eb6:	b29b      	uxth	r3, r3
 8000eb8:	4413      	add	r3, r2
 8000eba:	833b      	strh	r3, [r7, #24]
 8000ebc:	8b3b      	ldrh	r3, [r7, #24]
 8000ebe:	f403 437f 	and.w	r3, r3, #65280	; 0xff00
 8000ec2:	f5b3 7f00 	cmp.w	r3, #512	; 0x200
 8000ec6:	d002      	beq.n	8000ece <wolfBoot_verify_authenticity+0xa2>
 8000ec8:	f04f 33ff 	mov.w	r3, #4294967295	; 0xffffffff
 8000ecc:	e023      	b.n	8000f16 <wolfBoot_verify_authenticity+0xea>
 8000ece:	687b      	ldr	r3, [r7, #4]
 8000ed0:	689b      	ldr	r3, [r3, #8]
 8000ed2:	2b00      	cmp	r3, #0
 8000ed4:	d10c      	bne.n	8000ef0 <wolfBoot_verify_authenticity+0xc4>
 8000ed6:	4912      	ldr	r1, [pc, #72]	; (8000f20 <wolfBoot_verify_authenticity+0xf4>)
 8000ed8:	6878      	ldr	r0, [r7, #4]
 8000eda:	f7ff fe19 	bl	8000b10 <image_sha256>
 8000ede:	4603      	mov	r3, r0
 8000ee0:	2b00      	cmp	r3, #0
 8000ee2:	d002      	beq.n	8000eea <wolfBoot_verify_authenticity+0xbe>
 8000ee4:	f04f 33ff 	mov.w	r3, #4294967295	; 0xffffffff
 8000ee8:	e015      	b.n	8000f16 <wolfBoot_verify_authenticity+0xea>
 8000eea:	687b      	ldr	r3, [r7, #4]
 8000eec:	4a0c      	ldr	r2, [pc, #48]	; (8000f20 <wolfBoot_verify_authenticity+0xf4>)
 8000eee:	609a      	str	r2, [r3, #8]
 8000ef0:	687b      	ldr	r3, [r7, #4]
 8000ef2:	689b      	ldr	r3, [r3, #8]
 8000ef4:	693a      	ldr	r2, [r7, #16]
 8000ef6:	4611      	mov	r1, r2
 8000ef8:	4618      	mov	r0, r3
 8000efa:	f7ff fd5d 	bl	80009b8 <wolfBoot_verify_signature>
 8000efe:	6178      	str	r0, [r7, #20]
 8000f00:	697b      	ldr	r3, [r7, #20]
 8000f02:	2b00      	cmp	r3, #0
 8000f04:	d001      	beq.n	8000f0a <wolfBoot_verify_authenticity+0xde>
 8000f06:	697b      	ldr	r3, [r7, #20]
 8000f08:	e005      	b.n	8000f16 <wolfBoot_verify_authenticity+0xea>
 8000f0a:	687a      	ldr	r2, [r7, #4]
 8000f0c:	7d53      	ldrb	r3, [r2, #21]
 8000f0e:	f043 0302 	orr.w	r3, r3, #2
 8000f12:	7553      	strb	r3, [r2, #21]
 8000f14:	2300      	movs	r3, #0
 8000f16:	4618      	mov	r0, r3
 8000f18:	3720      	adds	r7, #32
 8000f1a:	46bd      	mov	sp, r7
 8000f1c:	bd80      	pop	{r7, pc}
 8000f1e:	bf00      	nop
 8000f20:	30008000 	.word	0x30008000

08000f24 <hal_trailer_write>:
 8000f24:	b580      	push	{r7, lr}
 8000f26:	b086      	sub	sp, #24
 8000f28:	af00      	add	r7, sp, #0
 8000f2a:	6078      	str	r0, [r7, #4]
 8000f2c:	460b      	mov	r3, r1
 8000f2e:	70fb      	strb	r3, [r7, #3]
 8000f30:	687b      	ldr	r3, [r7, #4]
 8000f32:	f423 63ff 	bic.w	r3, r3, #2040	; 0x7f8
 8000f36:	f023 0307 	bic.w	r3, r3, #7
 8000f3a:	617b      	str	r3, [r7, #20]
 8000f3c:	687b      	ldr	r3, [r7, #4]
 8000f3e:	f3c3 030a 	ubfx	r3, r3, #0, #11
 8000f42:	613b      	str	r3, [r7, #16]
 8000f44:	2300      	movs	r3, #0
 8000f46:	60fb      	str	r3, [r7, #12]
 8000f48:	697b      	ldr	r3, [r7, #20]
 8000f4a:	f44f 6200 	mov.w	r2, #2048	; 0x800
 8000f4e:	4619      	mov	r1, r3
 8000f50:	480f      	ldr	r0, [pc, #60]	; (8000f90 <hal_trailer_write+0x6c>)
 8000f52:	f7ff fce6 	bl	8000922 <memcpy>
 8000f56:	f44f 6100 	mov.w	r1, #2048	; 0x800
 8000f5a:	6978      	ldr	r0, [r7, #20]
 8000f5c:	f7ff fa82 	bl	8000464 <hal_flash_erase>
 8000f60:	60f8      	str	r0, [r7, #12]
 8000f62:	68fb      	ldr	r3, [r7, #12]
 8000f64:	2b00      	cmp	r3, #0
 8000f66:	d001      	beq.n	8000f6c <hal_trailer_write+0x48>
 8000f68:	68fb      	ldr	r3, [r7, #12]
 8000f6a:	e00c      	b.n	8000f86 <hal_trailer_write+0x62>
 8000f6c:	4a08      	ldr	r2, [pc, #32]	; (8000f90 <hal_trailer_write+0x6c>)
 8000f6e:	693b      	ldr	r3, [r7, #16]
 8000f70:	4413      	add	r3, r2
 8000f72:	78fa      	ldrb	r2, [r7, #3]
 8000f74:	701a      	strb	r2, [r3, #0]
 8000f76:	f44f 6200 	mov.w	r2, #2048	; 0x800
 8000f7a:	4905      	ldr	r1, [pc, #20]	; (8000f90 <hal_trailer_write+0x6c>)
 8000f7c:	6978      	ldr	r0, [r7, #20]
 8000f7e:	f7ff f995 	bl	80002ac <hal_flash_write>
 8000f82:	60f8      	str	r0, [r7, #12]
 8000f84:	68fb      	ldr	r3, [r7, #12]
 8000f86:	4618      	mov	r0, r3
 8000f88:	3718      	adds	r7, #24
 8000f8a:	46bd      	mov	sp, r7
 8000f8c:	bd80      	pop	{r7, pc}
 8000f8e:	bf00      	nop
 8000f90:	30008020 	.word	0x30008020

08000f94 <hal_set_partition_magic>:
 8000f94:	b580      	push	{r7, lr}
 8000f96:	b086      	sub	sp, #24
 8000f98:	af00      	add	r7, sp, #0
 8000f9a:	6078      	str	r0, [r7, #4]
 8000f9c:	687b      	ldr	r3, [r7, #4]
 8000f9e:	f3c3 030a 	ubfx	r3, r3, #0, #11
 8000fa2:	617b      	str	r3, [r7, #20]
 8000fa4:	687a      	ldr	r2, [r7, #4]
 8000fa6:	697b      	ldr	r3, [r7, #20]
 8000fa8:	1ad3      	subs	r3, r2, r3
 8000faa:	613b      	str	r3, [r7, #16]
 8000fac:	693b      	ldr	r3, [r7, #16]
 8000fae:	f44f 6200 	mov.w	r2, #2048	; 0x800
 8000fb2:	4619      	mov	r1, r3
 8000fb4:	4810      	ldr	r0, [pc, #64]	; (8000ff8 <hal_set_partition_magic+0x64>)
 8000fb6:	f7ff fcb4 	bl	8000922 <memcpy>
 8000fba:	f44f 6100 	mov.w	r1, #2048	; 0x800
 8000fbe:	6938      	ldr	r0, [r7, #16]
 8000fc0:	f7ff fa50 	bl	8000464 <hal_flash_erase>
 8000fc4:	60f8      	str	r0, [r7, #12]
 8000fc6:	68fb      	ldr	r3, [r7, #12]
 8000fc8:	2b00      	cmp	r3, #0
 8000fca:	d001      	beq.n	8000fd0 <hal_set_partition_magic+0x3c>
 8000fcc:	68fb      	ldr	r3, [r7, #12]
 8000fce:	e00f      	b.n	8000ff0 <hal_set_partition_magic+0x5c>
 8000fd0:	697b      	ldr	r3, [r7, #20]
 8000fd2:	4a09      	ldr	r2, [pc, #36]	; (8000ff8 <hal_set_partition_magic+0x64>)
 8000fd4:	4413      	add	r3, r2
 8000fd6:	2204      	movs	r2, #4
 8000fd8:	4908      	ldr	r1, [pc, #32]	; (8000ffc <hal_set_partition_magic+0x68>)
 8000fda:	4618      	mov	r0, r3
 8000fdc:	f7ff fca1 	bl	8000922 <memcpy>
 8000fe0:	f44f 6200 	mov.w	r2, #2048	; 0x800
 8000fe4:	4904      	ldr	r1, [pc, #16]	; (8000ff8 <hal_set_partition_magic+0x64>)
 8000fe6:	6938      	ldr	r0, [r7, #16]
 8000fe8:	f7ff f960 	bl	80002ac <hal_flash_write>
 8000fec:	60f8      	str	r0, [r7, #12]
 8000fee:	68fb      	ldr	r3, [r7, #12]
 8000ff0:	4618      	mov	r0, r3
 8000ff2:	3718      	adds	r7, #24
 8000ff4:	46bd      	mov	sp, r7
 8000ff6:	bd80      	pop	{r7, pc}
 8000ff8:	30008020 	.word	0x30008020
 8000ffc:	08006a64 	.word	0x08006a64

08001000 <get_trailer_at>:
 8001000:	b480      	push	{r7}
 8001002:	b083      	sub	sp, #12
 8001004:	af00      	add	r7, sp, #0
 8001006:	4603      	mov	r3, r0
 8001008:	6039      	str	r1, [r7, #0]
 800100a:	71fb      	strb	r3, [r7, #7]
 800100c:	79fb      	ldrb	r3, [r7, #7]
 800100e:	2b00      	cmp	r3, #0
 8001010:	d103      	bne.n	800101a <get_trailer_at+0x1a>
 8001012:	683a      	ldr	r2, [r7, #0]
 8001014:	4b07      	ldr	r3, [pc, #28]	; (8001034 <get_trailer_at+0x34>)
 8001016:	1a9b      	subs	r3, r3, r2
 8001018:	e007      	b.n	800102a <get_trailer_at+0x2a>
 800101a:	79fb      	ldrb	r3, [r7, #7]
 800101c:	2b01      	cmp	r3, #1
 800101e:	d103      	bne.n	8001028 <get_trailer_at+0x28>
 8001020:	683a      	ldr	r2, [r7, #0]
 8001022:	4b05      	ldr	r3, [pc, #20]	; (8001038 <get_trailer_at+0x38>)
 8001024:	1a9b      	subs	r3, r3, r2
 8001026:	e000      	b.n	800102a <get_trailer_at+0x2a>
 8001028:	2300      	movs	r3, #0
 800102a:	4618      	mov	r0, r3
 800102c:	370c      	adds	r7, #12
 800102e:	46bd      	mov	sp, r7
 8001030:	bc80      	pop	{r7}
 8001032:	4770      	bx	lr
 8001034:	0803fffc 	.word	0x0803fffc
 8001038:	0807fffc 	.word	0x0807fffc

0800103c <set_trailer_at>:
 800103c:	b580      	push	{r7, lr}
 800103e:	b082      	sub	sp, #8
 8001040:	af00      	add	r7, sp, #0
 8001042:	4603      	mov	r3, r0
 8001044:	6039      	str	r1, [r7, #0]
 8001046:	71fb      	strb	r3, [r7, #7]
 8001048:	4613      	mov	r3, r2
 800104a:	71bb      	strb	r3, [r7, #6]
 800104c:	79fb      	ldrb	r3, [r7, #7]
 800104e:	2b00      	cmp	r3, #0
 8001050:	d108      	bne.n	8001064 <set_trailer_at+0x28>
 8001052:	683a      	ldr	r2, [r7, #0]
 8001054:	4b0b      	ldr	r3, [pc, #44]	; (8001084 <set_trailer_at+0x48>)
 8001056:	1a9b      	subs	r3, r3, r2
 8001058:	79ba      	ldrb	r2, [r7, #6]
 800105a:	4611      	mov	r1, r2
 800105c:	4618      	mov	r0, r3
 800105e:	f7ff ff61 	bl	8000f24 <hal_trailer_write>
 8001062:	e00a      	b.n	800107a <set_trailer_at+0x3e>
 8001064:	79fb      	ldrb	r3, [r7, #7]
 8001066:	2b01      	cmp	r3, #1
 8001068:	d107      	bne.n	800107a <set_trailer_at+0x3e>
 800106a:	683a      	ldr	r2, [r7, #0]
 800106c:	4b06      	ldr	r3, [pc, #24]	; (8001088 <set_trailer_at+0x4c>)
 800106e:	1a9b      	subs	r3, r3, r2
 8001070:	79ba      	ldrb	r2, [r7, #6]
 8001072:	4611      	mov	r1, r2
 8001074:	4618      	mov	r0, r3
 8001076:	f7ff ff55 	bl	8000f24 <hal_trailer_write>
 800107a:	bf00      	nop
 800107c:	3708      	adds	r7, #8
 800107e:	46bd      	mov	sp, r7
 8001080:	bd80      	pop	{r7, pc}
 8001082:	bf00      	nop
 8001084:	0803fffc 	.word	0x0803fffc
 8001088:	0807fffc 	.word	0x0807fffc

0800108c <set_partition_magic>:
 800108c:	b580      	push	{r7, lr}
 800108e:	b082      	sub	sp, #8
 8001090:	af00      	add	r7, sp, #0
 8001092:	4603      	mov	r3, r0
 8001094:	71fb      	strb	r3, [r7, #7]
 8001096:	79fb      	ldrb	r3, [r7, #7]
 8001098:	2b00      	cmp	r3, #0
 800109a:	d103      	bne.n	80010a4 <set_partition_magic+0x18>
 800109c:	4806      	ldr	r0, [pc, #24]	; (80010b8 <set_partition_magic+0x2c>)
 800109e:	f7ff ff79 	bl	8000f94 <hal_set_partition_magic>
 80010a2:	e005      	b.n	80010b0 <set_partition_magic+0x24>
 80010a4:	79fb      	ldrb	r3, [r7, #7]
 80010a6:	2b01      	cmp	r3, #1
 80010a8:	d102      	bne.n	80010b0 <set_partition_magic+0x24>
 80010aa:	4804      	ldr	r0, [pc, #16]	; (80010bc <set_partition_magic+0x30>)
 80010ac:	f7ff ff72 	bl	8000f94 <hal_set_partition_magic>
 80010b0:	bf00      	nop
 80010b2:	3708      	adds	r7, #8
 80010b4:	46bd      	mov	sp, r7
 80010b6:	bd80      	pop	{r7, pc}
 80010b8:	0803fffc 	.word	0x0803fffc
 80010bc:	0807fffc 	.word	0x0807fffc

080010c0 <get_partition_magic>:
 80010c0:	b580      	push	{r7, lr}
 80010c2:	b082      	sub	sp, #8
 80010c4:	af00      	add	r7, sp, #0
 80010c6:	4603      	mov	r3, r0
 80010c8:	71fb      	strb	r3, [r7, #7]
 80010ca:	79fb      	ldrb	r3, [r7, #7]
 80010cc:	2100      	movs	r1, #0
 80010ce:	4618      	mov	r0, r3
 80010d0:	f7ff ff96 	bl	8001000 <get_trailer_at>
 80010d4:	4603      	mov	r3, r0
 80010d6:	4618      	mov	r0, r3
 80010d8:	3708      	adds	r7, #8
 80010da:	46bd      	mov	sp, r7
 80010dc:	bd80      	pop	{r7, pc}

080010de <get_partition_state>:
 80010de:	b580      	push	{r7, lr}
 80010e0:	b082      	sub	sp, #8
 80010e2:	af00      	add	r7, sp, #0
 80010e4:	4603      	mov	r3, r0
 80010e6:	71fb      	strb	r3, [r7, #7]
 80010e8:	79fb      	ldrb	r3, [r7, #7]
 80010ea:	2101      	movs	r1, #1
 80010ec:	4618      	mov	r0, r3
 80010ee:	f7ff ff87 	bl	8001000 <get_trailer_at>
 80010f2:	4603      	mov	r3, r0
 80010f4:	4618      	mov	r0, r3
 80010f6:	3708      	adds	r7, #8
 80010f8:	46bd      	mov	sp, r7
 80010fa:	bd80      	pop	{r7, pc}

080010fc <set_partition_state>:
 80010fc:	b580      	push	{r7, lr}
 80010fe:	b082      	sub	sp, #8
 8001100:	af00      	add	r7, sp, #0
 8001102:	4603      	mov	r3, r0
 8001104:	460a      	mov	r2, r1
 8001106:	71fb      	strb	r3, [r7, #7]
 8001108:	4613      	mov	r3, r2
 800110a:	71bb      	strb	r3, [r7, #6]
 800110c:	79ba      	ldrb	r2, [r7, #6]
 800110e:	79fb      	ldrb	r3, [r7, #7]
 8001110:	2101      	movs	r1, #1
 8001112:	4618      	mov	r0, r3
 8001114:	f7ff ff92 	bl	800103c <set_trailer_at>
 8001118:	bf00      	nop
 800111a:	3708      	adds	r7, #8
 800111c:	46bd      	mov	sp, r7
 800111e:	bd80      	pop	{r7, pc}

08001120 <wolfBoot_set_partition_state>:
 8001120:	b580      	push	{r7, lr}
 8001122:	b084      	sub	sp, #16
 8001124:	af00      	add	r7, sp, #0
 8001126:	4603      	mov	r3, r0
 8001128:	460a      	mov	r2, r1
 800112a:	71fb      	strb	r3, [r7, #7]
 800112c:	4613      	mov	r3, r2
 800112e:	71bb      	strb	r3, [r7, #6]
 8001130:	79fb      	ldrb	r3, [r7, #7]
 8001132:	4618      	mov	r0, r3
 8001134:	f7ff ffc4 	bl	80010c0 <get_partition_magic>
 8001138:	60f8      	str	r0, [r7, #12]
 800113a:	68fb      	ldr	r3, [r7, #12]
 800113c:	681b      	ldr	r3, [r3, #0]
 800113e:	4a0e      	ldr	r2, [pc, #56]	; (8001178 <wolfBoot_set_partition_state+0x58>)
 8001140:	4293      	cmp	r3, r2
 8001142:	d003      	beq.n	800114c <wolfBoot_set_partition_state+0x2c>
 8001144:	79fb      	ldrb	r3, [r7, #7]
 8001146:	4618      	mov	r0, r3
 8001148:	f7ff ffa0 	bl	800108c <set_partition_magic>
 800114c:	79fb      	ldrb	r3, [r7, #7]
 800114e:	4618      	mov	r0, r3
 8001150:	f7ff ffc5 	bl	80010de <get_partition_state>
 8001154:	60b8      	str	r0, [r7, #8]
 8001156:	68bb      	ldr	r3, [r7, #8]
 8001158:	781b      	ldrb	r3, [r3, #0]
 800115a:	79ba      	ldrb	r2, [r7, #6]
 800115c:	429a      	cmp	r2, r3
 800115e:	d005      	beq.n	800116c <wolfBoot_set_partition_state+0x4c>
 8001160:	79ba      	ldrb	r2, [r7, #6]
 8001162:	79fb      	ldrb	r3, [r7, #7]
 8001164:	4611      	mov	r1, r2
 8001166:	4618      	mov	r0, r3
 8001168:	f7ff ffc8 	bl	80010fc <set_partition_state>
 800116c:	2300      	movs	r3, #0
 800116e:	4618      	mov	r0, r3
 8001170:	3710      	adds	r7, #16
 8001172:	46bd      	mov	sp, r7
 8001174:	bd80      	pop	{r7, pc}
 8001176:	bf00      	nop
 8001178:	544f4f42 	.word	0x544f4f42

0800117c <wolfBoot_get_partition_state>:
 800117c:	b580      	push	{r7, lr}
 800117e:	b084      	sub	sp, #16
 8001180:	af00      	add	r7, sp, #0
 8001182:	4603      	mov	r3, r0
 8001184:	6039      	str	r1, [r7, #0]
 8001186:	71fb      	strb	r3, [r7, #7]
 8001188:	79fb      	ldrb	r3, [r7, #7]
 800118a:	4618      	mov	r0, r3
 800118c:	f7ff ff98 	bl	80010c0 <get_partition_magic>
 8001190:	60f8      	str	r0, [r7, #12]
 8001192:	68fb      	ldr	r3, [r7, #12]
 8001194:	681b      	ldr	r3, [r3, #0]
 8001196:	4a0a      	ldr	r2, [pc, #40]	; (80011c0 <wolfBoot_get_partition_state+0x44>)
 8001198:	4293      	cmp	r3, r2
 800119a:	d002      	beq.n	80011a2 <wolfBoot_get_partition_state+0x26>
 800119c:	f04f 33ff 	mov.w	r3, #4294967295	; 0xffffffff
 80011a0:	e009      	b.n	80011b6 <wolfBoot_get_partition_state+0x3a>
 80011a2:	79fb      	ldrb	r3, [r7, #7]
 80011a4:	4618      	mov	r0, r3
 80011a6:	f7ff ff9a 	bl	80010de <get_partition_state>
 80011aa:	60b8      	str	r0, [r7, #8]
 80011ac:	68bb      	ldr	r3, [r7, #8]
 80011ae:	781a      	ldrb	r2, [r3, #0]
 80011b0:	683b      	ldr	r3, [r7, #0]
 80011b2:	701a      	strb	r2, [r3, #0]
 80011b4:	2300      	movs	r3, #0
 80011b6:	4618      	mov	r0, r3
 80011b8:	3710      	adds	r7, #16
 80011ba:	46bd      	mov	sp, r7
 80011bc:	bd80      	pop	{r7, pc}
 80011be:	bf00      	nop
 80011c0:	544f4f42 	.word	0x544f4f42

080011c4 <wolfBoot_erase_partition>:
 80011c4:	b580      	push	{r7, lr}
 80011c6:	b082      	sub	sp, #8
 80011c8:	af00      	add	r7, sp, #0
 80011ca:	4603      	mov	r3, r0
 80011cc:	71fb      	strb	r3, [r7, #7]
 80011ce:	79fb      	ldrb	r3, [r7, #7]
 80011d0:	2b00      	cmp	r3, #0
 80011d2:	d104      	bne.n	80011de <wolfBoot_erase_partition+0x1a>
 80011d4:	f44f 3160 	mov.w	r1, #229376	; 0x38000
 80011d8:	480b      	ldr	r0, [pc, #44]	; (8001208 <wolfBoot_erase_partition+0x44>)
 80011da:	f7ff f943 	bl	8000464 <hal_flash_erase>
 80011de:	79fb      	ldrb	r3, [r7, #7]
 80011e0:	2b01      	cmp	r3, #1
 80011e2:	d104      	bne.n	80011ee <wolfBoot_erase_partition+0x2a>
 80011e4:	f44f 3160 	mov.w	r1, #229376	; 0x38000
 80011e8:	4808      	ldr	r0, [pc, #32]	; (800120c <wolfBoot_erase_partition+0x48>)
 80011ea:	f7ff f93b 	bl	8000464 <hal_flash_erase>
 80011ee:	79fb      	ldrb	r3, [r7, #7]
 80011f0:	2b02      	cmp	r3, #2
 80011f2:	d105      	bne.n	8001200 <wolfBoot_erase_partition+0x3c>
 80011f4:	f44f 6100 	mov.w	r1, #2048	; 0x800
 80011f8:	f04f 30ff 	mov.w	r0, #4294967295	; 0xffffffff
 80011fc:	f7ff f932 	bl	8000464 <hal_flash_erase>
 8001200:	bf00      	nop
 8001202:	3708      	adds	r7, #8
 8001204:	46bd      	mov	sp, r7
 8001206:	bd80      	pop	{r7, pc}
 8001208:	08008000 	.word	0x08008000
 800120c:	08048000 	.word	0x08048000

08001210 <wolfBoot_find_header>:
 8001210:	b480      	push	{r7}
 8001212:	b089      	sub	sp, #36	; 0x24
 8001214:	af00      	add	r7, sp, #0
 8001216:	60f8      	str	r0, [r7, #12]
 8001218:	460b      	mov	r3, r1
 800121a:	607a      	str	r2, [r7, #4]
 800121c:	817b      	strh	r3, [r7, #10]
 800121e:	68fb      	ldr	r3, [r7, #12]
 8001220:	61fb      	str	r3, [r7, #28]
 8001222:	68fb      	ldr	r3, [r7, #12]
 8001224:	33f8      	adds	r3, #248	; 0xf8
 8001226:	61bb      	str	r3, [r7, #24]
 8001228:	687b      	ldr	r3, [r7, #4]
 800122a:	2200      	movs	r2, #0
 800122c:	601a      	str	r2, [r3, #0]
 800122e:	69fa      	ldr	r2, [r7, #28]
 8001230:	69bb      	ldr	r3, [r7, #24]
 8001232:	429a      	cmp	r2, r3
 8001234:	d948      	bls.n	80012c8 <wolfBoot_find_header+0xb8>
 8001236:	2300      	movs	r3, #0
 8001238:	e052      	b.n	80012e0 <wolfBoot_find_header+0xd0>
 800123a:	69fb      	ldr	r3, [r7, #28]
 800123c:	781b      	ldrb	r3, [r3, #0]
 800123e:	2b00      	cmp	r3, #0
 8001240:	d104      	bne.n	800124c <wolfBoot_find_header+0x3c>
 8001242:	69fb      	ldr	r3, [r7, #28]
 8001244:	3301      	adds	r3, #1
 8001246:	781b      	ldrb	r3, [r3, #0]
 8001248:	2b00      	cmp	r3, #0
 800124a:	d043      	beq.n	80012d4 <wolfBoot_find_header+0xc4>
 800124c:	69fb      	ldr	r3, [r7, #28]
 800124e:	781b      	ldrb	r3, [r3, #0]
 8001250:	2bff      	cmp	r3, #255	; 0xff
 8001252:	d103      	bne.n	800125c <wolfBoot_find_header+0x4c>
 8001254:	69fb      	ldr	r3, [r7, #28]
 8001256:	3301      	adds	r3, #1
 8001258:	61fb      	str	r3, [r7, #28]
 800125a:	e035      	b.n	80012c8 <wolfBoot_find_header+0xb8>
 800125c:	69fb      	ldr	r3, [r7, #28]
 800125e:	f003 0301 	and.w	r3, r3, #1
 8001262:	2b00      	cmp	r3, #0
 8001264:	d003      	beq.n	800126e <wolfBoot_find_header+0x5e>
 8001266:	69fb      	ldr	r3, [r7, #28]
 8001268:	3301      	adds	r3, #1
 800126a:	61fb      	str	r3, [r7, #28]
 800126c:	e02c      	b.n	80012c8 <wolfBoot_find_header+0xb8>
 800126e:	69fb      	ldr	r3, [r7, #28]
 8001270:	3302      	adds	r3, #2
 8001272:	781b      	ldrb	r3, [r3, #0]
 8001274:	b21a      	sxth	r2, r3
 8001276:	69fb      	ldr	r3, [r7, #28]
 8001278:	3303      	adds	r3, #3
 800127a:	781b      	ldrb	r3, [r3, #0]
 800127c:	021b      	lsls	r3, r3, #8
 800127e:	b21b      	sxth	r3, r3
 8001280:	4313      	orrs	r3, r2
 8001282:	b21b      	sxth	r3, r3
 8001284:	82fb      	strh	r3, [r7, #22]
 8001286:	8afb      	ldrh	r3, [r7, #22]
 8001288:	2bf4      	cmp	r3, #244	; 0xf4
 800128a:	d825      	bhi.n	80012d8 <wolfBoot_find_header+0xc8>
 800128c:	8afb      	ldrh	r3, [r7, #22]
 800128e:	3304      	adds	r3, #4
 8001290:	69fa      	ldr	r2, [r7, #28]
 8001292:	4413      	add	r3, r2
 8001294:	69ba      	ldr	r2, [r7, #24]
 8001296:	429a      	cmp	r2, r3
 8001298:	d320      	bcc.n	80012dc <wolfBoot_find_header+0xcc>
 800129a:	69fb      	ldr	r3, [r7, #28]
 800129c:	781b      	ldrb	r3, [r3, #0]
 800129e:	461a      	mov	r2, r3
 80012a0:	69fb      	ldr	r3, [r7, #28]
 80012a2:	3301      	adds	r3, #1
 80012a4:	781b      	ldrb	r3, [r3, #0]
 80012a6:	021b      	lsls	r3, r3, #8
 80012a8:	431a      	orrs	r2, r3
 80012aa:	897b      	ldrh	r3, [r7, #10]
 80012ac:	429a      	cmp	r2, r3
 80012ae:	d105      	bne.n	80012bc <wolfBoot_find_header+0xac>
 80012b0:	69fb      	ldr	r3, [r7, #28]
 80012b2:	1d1a      	adds	r2, r3, #4
 80012b4:	687b      	ldr	r3, [r7, #4]
 80012b6:	601a      	str	r2, [r3, #0]
 80012b8:	8afb      	ldrh	r3, [r7, #22]
 80012ba:	e011      	b.n	80012e0 <wolfBoot_find_header+0xd0>
 80012bc:	8afb      	ldrh	r3, [r7, #22]
 80012be:	3304      	adds	r3, #4
 80012c0:	461a      	mov	r2, r3
 80012c2:	69fb      	ldr	r3, [r7, #28]
 80012c4:	4413      	add	r3, r2
 80012c6:	61fb      	str	r3, [r7, #28]
 80012c8:	69fb      	ldr	r3, [r7, #28]
 80012ca:	3304      	adds	r3, #4
 80012cc:	69ba      	ldr	r2, [r7, #24]
 80012ce:	429a      	cmp	r2, r3
 80012d0:	d8b3      	bhi.n	800123a <wolfBoot_find_header+0x2a>
 80012d2:	e004      	b.n	80012de <wolfBoot_find_header+0xce>
 80012d4:	bf00      	nop
 80012d6:	e002      	b.n	80012de <wolfBoot_find_header+0xce>
 80012d8:	bf00      	nop
 80012da:	e000      	b.n	80012de <wolfBoot_find_header+0xce>
 80012dc:	bf00      	nop
 80012de:	2300      	movs	r3, #0
 80012e0:	4618      	mov	r0, r3
 80012e2:	3724      	adds	r7, #36	; 0x24
 80012e4:	46bd      	mov	sp, r7
 80012e6:	bc80      	pop	{r7}
 80012e8:	4770      	bx	lr
	...

080012ec <wolfBoot_get_blob_version>:
 80012ec:	b580      	push	{r7, lr}
 80012ee:	b084      	sub	sp, #16
 80012f0:	af00      	add	r7, sp, #0
 80012f2:	6078      	str	r0, [r7, #4]
 80012f4:	2300      	movs	r3, #0
 80012f6:	60bb      	str	r3, [r7, #8]
 80012f8:	2300      	movs	r3, #0
 80012fa:	60fb      	str	r3, [r7, #12]
 80012fc:	687b      	ldr	r3, [r7, #4]
 80012fe:	60fb      	str	r3, [r7, #12]
 8001300:	68fb      	ldr	r3, [r7, #12]
 8001302:	681b      	ldr	r3, [r3, #0]
 8001304:	4a0e      	ldr	r2, [pc, #56]	; (8001340 <wolfBoot_get_blob_version+0x54>)
 8001306:	4293      	cmp	r3, r2
 8001308:	d001      	beq.n	800130e <wolfBoot_get_blob_version+0x22>
 800130a:	2300      	movs	r3, #0
 800130c:	e013      	b.n	8001336 <wolfBoot_get_blob_version+0x4a>
 800130e:	687b      	ldr	r3, [r7, #4]
 8001310:	3308      	adds	r3, #8
 8001312:	f107 0208 	add.w	r2, r7, #8
 8001316:	2101      	movs	r1, #1
 8001318:	4618      	mov	r0, r3
 800131a:	f7ff ff79 	bl	8001210 <wolfBoot_find_header>
 800131e:	4603      	mov	r3, r0
 8001320:	2b00      	cmp	r3, #0
 8001322:	d101      	bne.n	8001328 <wolfBoot_get_blob_version+0x3c>
 8001324:	2300      	movs	r3, #0
 8001326:	e006      	b.n	8001336 <wolfBoot_get_blob_version+0x4a>
 8001328:	68bb      	ldr	r3, [r7, #8]
 800132a:	2b00      	cmp	r3, #0
 800132c:	d002      	beq.n	8001334 <wolfBoot_get_blob_version+0x48>
 800132e:	68bb      	ldr	r3, [r7, #8]
 8001330:	681b      	ldr	r3, [r3, #0]
 8001332:	e000      	b.n	8001336 <wolfBoot_get_blob_version+0x4a>
 8001334:	2300      	movs	r3, #0
 8001336:	4618      	mov	r0, r3
 8001338:	3710      	adds	r7, #16
 800133a:	46bd      	mov	sp, r7
 800133c:	bd80      	pop	{r7, pc}
 800133e:	bf00      	nop
 8001340:	464c4f57 	.word	0x464c4f57

08001344 <wolfBoot_get_image_version>:
 8001344:	b580      	push	{r7, lr}
 8001346:	b084      	sub	sp, #16
 8001348:	af00      	add	r7, sp, #0
 800134a:	4603      	mov	r3, r0
 800134c:	71fb      	strb	r3, [r7, #7]
 800134e:	2300      	movs	r3, #0
 8001350:	60fb      	str	r3, [r7, #12]
 8001352:	79fb      	ldrb	r3, [r7, #7]
 8001354:	2b01      	cmp	r3, #1
 8001356:	d102      	bne.n	800135e <wolfBoot_get_image_version+0x1a>
 8001358:	4b07      	ldr	r3, [pc, #28]	; (8001378 <wolfBoot_get_image_version+0x34>)
 800135a:	60fb      	str	r3, [r7, #12]
 800135c:	e004      	b.n	8001368 <wolfBoot_get_image_version+0x24>
 800135e:	79fb      	ldrb	r3, [r7, #7]
 8001360:	2b00      	cmp	r3, #0
 8001362:	d101      	bne.n	8001368 <wolfBoot_get_image_version+0x24>
 8001364:	4b05      	ldr	r3, [pc, #20]	; (800137c <wolfBoot_get_image_version+0x38>)
 8001366:	60fb      	str	r3, [r7, #12]
 8001368:	68f8      	ldr	r0, [r7, #12]
 800136a:	f7ff ffbf 	bl	80012ec <wolfBoot_get_blob_version>
 800136e:	4603      	mov	r3, r0
 8001370:	4618      	mov	r0, r3
 8001372:	3710      	adds	r7, #16
 8001374:	46bd      	mov	sp, r7
 8001376:	bd80      	pop	{r7, pc}
 8001378:	08048000 	.word	0x08048000
 800137c:	08008000 	.word	0x08008000

08001380 <wolfBoot_fallback_is_possible>:
 8001380:	b580      	push	{r7, lr}
 8001382:	b082      	sub	sp, #8
 8001384:	af00      	add	r7, sp, #0
 8001386:	2000      	movs	r0, #0
 8001388:	f7ff ffdc 	bl	8001344 <wolfBoot_get_image_version>
 800138c:	6078      	str	r0, [r7, #4]
 800138e:	2001      	movs	r0, #1
 8001390:	f7ff ffd8 	bl	8001344 <wolfBoot_get_image_version>
 8001394:	6038      	str	r0, [r7, #0]
 8001396:	687b      	ldr	r3, [r7, #4]
 8001398:	2b00      	cmp	r3, #0
 800139a:	d002      	beq.n	80013a2 <wolfBoot_fallback_is_possible+0x22>
 800139c:	683b      	ldr	r3, [r7, #0]
 800139e:	2b00      	cmp	r3, #0
 80013a0:	d101      	bne.n	80013a6 <wolfBoot_fallback_is_possible+0x26>
 80013a2:	2300      	movs	r3, #0
 80013a4:	e000      	b.n	80013a8 <wolfBoot_fallback_is_possible+0x28>
 80013a6:	2301      	movs	r3, #1
 80013a8:	4618      	mov	r0, r3
 80013aa:	3708      	adds	r7, #8
 80013ac:	46bd      	mov	sp, r7
 80013ae:	bd80      	pop	{r7, pc}

080013b0 <wolfBoot_dualboot_candidate>:
 80013b0:	b580      	push	{r7, lr}
 80013b2:	b086      	sub	sp, #24
 80013b4:	af00      	add	r7, sp, #0
 80013b6:	2300      	movs	r3, #0
 80013b8:	617b      	str	r3, [r7, #20]
 80013ba:	2300      	movs	r3, #0
 80013bc:	613b      	str	r3, [r7, #16]
 80013be:	2000      	movs	r0, #0
 80013c0:	f7ff ffc0 	bl	8001344 <wolfBoot_get_image_version>
 80013c4:	60f8      	str	r0, [r7, #12]
 80013c6:	2001      	movs	r0, #1
 80013c8:	f7ff ffbc 	bl	8001344 <wolfBoot_get_image_version>
 80013cc:	60b8      	str	r0, [r7, #8]
 80013ce:	68fb      	ldr	r3, [r7, #12]
 80013d0:	2b00      	cmp	r3, #0
 80013d2:	d105      	bne.n	80013e0 <wolfBoot_dualboot_candidate+0x30>
 80013d4:	68bb      	ldr	r3, [r7, #8]
 80013d6:	2b00      	cmp	r3, #0
 80013d8:	d102      	bne.n	80013e0 <wolfBoot_dualboot_candidate+0x30>
 80013da:	f04f 33ff 	mov.w	r3, #4294967295	; 0xffffffff
 80013de:	e02d      	b.n	800143c <wolfBoot_dualboot_candidate+0x8c>
 80013e0:	68fb      	ldr	r3, [r7, #12]
 80013e2:	2b00      	cmp	r3, #0
 80013e4:	d102      	bne.n	80013ec <wolfBoot_dualboot_candidate+0x3c>
 80013e6:	2301      	movs	r3, #1
 80013e8:	617b      	str	r3, [r7, #20]
 80013ea:	e00d      	b.n	8001408 <wolfBoot_dualboot_candidate+0x58>
 80013ec:	68fb      	ldr	r3, [r7, #12]
 80013ee:	2b00      	cmp	r3, #0
 80013f0:	d00a      	beq.n	8001408 <wolfBoot_dualboot_candidate+0x58>
 80013f2:	68bb      	ldr	r3, [r7, #8]
 80013f4:	2b00      	cmp	r3, #0
 80013f6:	d007      	beq.n	8001408 <wolfBoot_dualboot_candidate+0x58>
 80013f8:	2301      	movs	r3, #1
 80013fa:	613b      	str	r3, [r7, #16]
 80013fc:	68ba      	ldr	r2, [r7, #8]
 80013fe:	68fb      	ldr	r3, [r7, #12]
 8001400:	429a      	cmp	r2, r3
 8001402:	d901      	bls.n	8001408 <wolfBoot_dualboot_candidate+0x58>
 8001404:	2301      	movs	r3, #1
 8001406:	617b      	str	r3, [r7, #20]
 8001408:	693b      	ldr	r3, [r7, #16]
 800140a:	2b00      	cmp	r3, #0
 800140c:	d015      	beq.n	800143a <wolfBoot_dualboot_candidate+0x8a>
 800140e:	697b      	ldr	r3, [r7, #20]
 8001410:	b2db      	uxtb	r3, r3
 8001412:	1dfa      	adds	r2, r7, #7
 8001414:	4611      	mov	r1, r2
 8001416:	4618      	mov	r0, r3
 8001418:	f7ff feb0 	bl	800117c <wolfBoot_get_partition_state>
 800141c:	4603      	mov	r3, r0
 800141e:	2b00      	cmp	r3, #0
 8001420:	d10b      	bne.n	800143a <wolfBoot_dualboot_candidate+0x8a>
 8001422:	79fb      	ldrb	r3, [r7, #7]
 8001424:	2b10      	cmp	r3, #16
 8001426:	d108      	bne.n	800143a <wolfBoot_dualboot_candidate+0x8a>
 8001428:	697b      	ldr	r3, [r7, #20]
 800142a:	b2db      	uxtb	r3, r3
 800142c:	4618      	mov	r0, r3
 800142e:	f7ff fec9 	bl	80011c4 <wolfBoot_erase_partition>
 8001432:	697b      	ldr	r3, [r7, #20]
 8001434:	f083 0301 	eor.w	r3, r3, #1
 8001438:	617b      	str	r3, [r7, #20]
 800143a:	697b      	ldr	r3, [r7, #20]
 800143c:	4618      	mov	r0, r3
 800143e:	3718      	adds	r7, #24
 8001440:	46bd      	mov	sp, r7
 8001442:	bd80      	pop	{r7, pc}

08001444 <isr_reset>:
 8001444:	b5b0      	push	{r4, r5, r7, lr}
 8001446:	af00      	add	r7, sp, #0
 8001448:	4d0a      	ldr	r5, [pc, #40]	; (8001474 <isr_reset+0x30>)
 800144a:	4c0b      	ldr	r4, [pc, #44]	; (8001478 <isr_reset+0x34>)
 800144c:	e003      	b.n	8001456 <isr_reset+0x12>
 800144e:	682b      	ldr	r3, [r5, #0]
 8001450:	6023      	str	r3, [r4, #0]
 8001452:	3404      	adds	r4, #4
 8001454:	3504      	adds	r5, #4
 8001456:	4b09      	ldr	r3, [pc, #36]	; (800147c <isr_reset+0x38>)
 8001458:	429c      	cmp	r4, r3
 800145a:	d3f8      	bcc.n	800144e <isr_reset+0xa>
 800145c:	4c08      	ldr	r4, [pc, #32]	; (8001480 <isr_reset+0x3c>)
 800145e:	e002      	b.n	8001466 <isr_reset+0x22>
 8001460:	2300      	movs	r3, #0
 8001462:	6023      	str	r3, [r4, #0]
 8001464:	3404      	adds	r4, #4
 8001466:	4b07      	ldr	r3, [pc, #28]	; (8001484 <isr_reset+0x40>)
 8001468:	429c      	cmp	r4, r3
 800146a:	d3f9      	bcc.n	8001460 <isr_reset+0x1c>
 800146c:	f7ff fa22 	bl	80008b4 <main>
 8001470:	bf00      	nop
 8001472:	bdb0      	pop	{r4, r5, r7, pc}
 8001474:	08006fa8 	.word	0x08006fa8
 8001478:	30000000 	.word	0x30000000
 800147c:	30000000 	.word	0x30000000
 8001480:	30000000 	.word	0x30000000
 8001484:	30008828 	.word	0x30008828

08001488 <isr_fault>:
 8001488:	b480      	push	{r7}
 800148a:	af00      	add	r7, sp, #0
 800148c:	e7fe      	b.n	800148c <isr_fault+0x4>

0800148e <isr_empty>:
 800148e:	b480      	push	{r7}
 8001490:	af00      	add	r7, sp, #0
 8001492:	bf00      	nop
 8001494:	46bd      	mov	sp, r7
 8001496:	bc80      	pop	{r7}
 8001498:	4770      	bx	lr
	...

0800149c <do_boot>:
 800149c:	b480      	push	{r7}
 800149e:	b083      	sub	sp, #12
 80014a0:	af00      	add	r7, sp, #0
 80014a2:	6078      	str	r0, [r7, #4]
 80014a4:	687b      	ldr	r3, [r7, #4]
 80014a6:	681b      	ldr	r3, [r3, #0]
 80014a8:	4a0d      	ldr	r2, [pc, #52]	; (80014e0 <do_boot+0x44>)
 80014aa:	6013      	str	r3, [r2, #0]
 80014ac:	687b      	ldr	r3, [r7, #4]
 80014ae:	3304      	adds	r3, #4
 80014b0:	681b      	ldr	r3, [r3, #0]
 80014b2:	461a      	mov	r2, r3
 80014b4:	4b0b      	ldr	r3, [pc, #44]	; (80014e4 <do_boot+0x48>)
 80014b6:	601a      	str	r2, [r3, #0]
 80014b8:	b672      	cpsid	i
 80014ba:	4a0b      	ldr	r2, [pc, #44]	; (80014e8 <do_boot+0x4c>)
 80014bc:	687b      	ldr	r3, [r7, #4]
 80014be:	6013      	str	r3, [r2, #0]
 80014c0:	2300      	movs	r3, #0
 80014c2:	f383 880a 	msr	MSPLIM, r3
 80014c6:	4b06      	ldr	r3, [pc, #24]	; (80014e0 <do_boot+0x44>)
 80014c8:	681b      	ldr	r3, [r3, #0]
 80014ca:	f383 8808 	msr	MSP, r3
 80014ce:	4b05      	ldr	r3, [pc, #20]	; (80014e4 <do_boot+0x48>)
 80014d0:	681b      	ldr	r3, [r3, #0]
 80014d2:	469f      	mov	pc, r3
 80014d4:	bf00      	nop
 80014d6:	370c      	adds	r7, #12
 80014d8:	46bd      	mov	sp, r7
 80014da:	bc80      	pop	{r7}
 80014dc:	4770      	bx	lr
 80014de:	bf00      	nop
 80014e0:	30008824 	.word	0x30008824
 80014e4:	30008820 	.word	0x30008820
 80014e8:	e000ed08 	.word	0xe000ed08

080014ec <boot_panic>:
 80014ec:	b480      	push	{r7}
 80014ee:	af00      	add	r7, sp, #0
 80014f0:	e7fe      	b.n	80014f0 <boot_panic+0x4>
	...

080014f4 <wolfBoot_start>:
 80014f4:	b580      	push	{r7, lr}
 80014f6:	b088      	sub	sp, #32
 80014f8:	af00      	add	r7, sp, #0
 80014fa:	f7ff ff59 	bl	80013b0 <wolfBoot_dualboot_candidate>
 80014fe:	61f8      	str	r0, [r7, #28]
 8001500:	69fb      	ldr	r3, [r7, #28]
 8001502:	2b00      	cmp	r3, #0
 8001504:	da01      	bge.n	800150a <wolfBoot_start+0x16>
 8001506:	f7ff fff1 	bl	80014ec <boot_panic>
 800150a:	69fb      	ldr	r3, [r7, #28]
 800150c:	b2da      	uxtb	r2, r3
 800150e:	1d3b      	adds	r3, r7, #4
 8001510:	4611      	mov	r1, r2
 8001512:	4618      	mov	r0, r3
 8001514:	f7ff fbd4 	bl	8000cc0 <wolfBoot_open_image>
 8001518:	4603      	mov	r3, r0
 800151a:	2b00      	cmp	r3, #0
 800151c:	db0d      	blt.n	800153a <wolfBoot_start+0x46>
 800151e:	1d3b      	adds	r3, r7, #4
 8001520:	4618      	mov	r0, r3
 8001522:	f7ff fc4b 	bl	8000dbc <wolfBoot_verify_integrity>
 8001526:	4603      	mov	r3, r0
 8001528:	2b00      	cmp	r3, #0
 800152a:	db06      	blt.n	800153a <wolfBoot_start+0x46>
 800152c:	1d3b      	adds	r3, r7, #4
 800152e:	4618      	mov	r0, r3
 8001530:	f7ff fc7c 	bl	8000e2c <wolfBoot_verify_authenticity>
 8001534:	4603      	mov	r3, r0
 8001536:	2b00      	cmp	r3, #0
 8001538:	da11      	bge.n	800155e <wolfBoot_start+0x6a>
 800153a:	f7ff ff21 	bl	8001380 <wolfBoot_fallback_is_possible>
 800153e:	4603      	mov	r3, r0
 8001540:	2b00      	cmp	r3, #0
 8001542:	d102      	bne.n	800154a <wolfBoot_start+0x56>
 8001544:	f7ff ffd2 	bl	80014ec <boot_panic>
 8001548:	e7df      	b.n	800150a <wolfBoot_start+0x16>
 800154a:	69fb      	ldr	r3, [r7, #28]
 800154c:	b2db      	uxtb	r3, r3
 800154e:	4618      	mov	r0, r3
 8001550:	f7ff fe38 	bl	80011c4 <wolfBoot_erase_partition>
 8001554:	69fb      	ldr	r3, [r7, #28]
 8001556:	f083 0301 	eor.w	r3, r3, #1
 800155a:	61fb      	str	r3, [r7, #28]
 800155c:	e7d5      	b.n	800150a <wolfBoot_start+0x16>
 800155e:	69fb      	ldr	r3, [r7, #28]
 8001560:	b2db      	uxtb	r3, r3
 8001562:	1cfa      	adds	r2, r7, #3
 8001564:	4611      	mov	r1, r2
 8001566:	4618      	mov	r0, r3
 8001568:	f7ff fe08 	bl	800117c <wolfBoot_get_partition_state>
 800156c:	4603      	mov	r3, r0
 800156e:	2b00      	cmp	r3, #0
 8001570:	d10c      	bne.n	800158c <wolfBoot_start+0x98>
 8001572:	78fb      	ldrb	r3, [r7, #3]
 8001574:	2b70      	cmp	r3, #112	; 0x70
 8001576:	d109      	bne.n	800158c <wolfBoot_start+0x98>
 8001578:	f7fe fef8 	bl	800036c <hal_flash_unlock>
 800157c:	69fb      	ldr	r3, [r7, #28]
 800157e:	b2db      	uxtb	r3, r3
 8001580:	2110      	movs	r1, #16
 8001582:	4618      	mov	r0, r3
 8001584:	f7ff fdcc 	bl	8001120 <wolfBoot_set_partition_state>
 8001588:	f7fe ff12 	bl	80003b0 <hal_flash_lock>
 800158c:	69fb      	ldr	r3, [r7, #28]
 800158e:	2b01      	cmp	r3, #1
 8001590:	d101      	bne.n	8001596 <wolfBoot_start+0xa2>
 8001592:	f7ff f923 	bl	80007dc <hal_flash_dualbank_swap>
 8001596:	f7ff f987 	bl	80008a8 <hal_prepare_boot>
 800159a:	4803      	ldr	r0, [pc, #12]	; (80015a8 <wolfBoot_start+0xb4>)
 800159c:	f7ff ff7e 	bl	800149c <do_boot>
 80015a0:	bf00      	nop
 80015a2:	3720      	adds	r7, #32
 80015a4:	46bd      	mov	sp, r7
 80015a6:	bd80      	pop	{r7, pc}
 80015a8:	08008100 	.word	0x08008100

080015ac <rotlFixed>:
 80015ac:	b480      	push	{r7}
 80015ae:	b083      	sub	sp, #12
 80015b0:	af00      	add	r7, sp, #0
 80015b2:	6078      	str	r0, [r7, #4]
 80015b4:	6039      	str	r1, [r7, #0]
 80015b6:	687a      	ldr	r2, [r7, #4]
 80015b8:	683b      	ldr	r3, [r7, #0]
 80015ba:	f1c3 0320 	rsb	r3, r3, #32
 80015be:	fa62 f303 	ror.w	r3, r2, r3
 80015c2:	4618      	mov	r0, r3
 80015c4:	370c      	adds	r7, #12
 80015c6:	46bd      	mov	sp, r7
 80015c8:	bc80      	pop	{r7}
 80015ca:	4770      	bx	lr

080015cc <rotrFixed>:
 80015cc:	b480      	push	{r7}
 80015ce:	b083      	sub	sp, #12
 80015d0:	af00      	add	r7, sp, #0
 80015d2:	6078      	str	r0, [r7, #4]
 80015d4:	6039      	str	r1, [r7, #0]
 80015d6:	687a      	ldr	r2, [r7, #4]
 80015d8:	683b      	ldr	r3, [r7, #0]
 80015da:	fa62 f303 	ror.w	r3, r2, r3
 80015de:	4618      	mov	r0, r3
 80015e0:	370c      	adds	r7, #12
 80015e2:	46bd      	mov	sp, r7
 80015e4:	bc80      	pop	{r7}
 80015e6:	4770      	bx	lr

080015e8 <ByteReverseWord32>:
 80015e8:	b580      	push	{r7, lr}
 80015ea:	b082      	sub	sp, #8
 80015ec:	af00      	add	r7, sp, #0
 80015ee:	6078      	str	r0, [r7, #4]
 80015f0:	687b      	ldr	r3, [r7, #4]
 80015f2:	0a1b      	lsrs	r3, r3, #8
 80015f4:	f003 12ff 	and.w	r2, r3, #16711935	; 0xff00ff
 80015f8:	687b      	ldr	r3, [r7, #4]
 80015fa:	021b      	lsls	r3, r3, #8
 80015fc:	f003 23ff 	and.w	r3, r3, #4278255360	; 0xff00ff00
 8001600:	4313      	orrs	r3, r2
 8001602:	607b      	str	r3, [r7, #4]
 8001604:	2110      	movs	r1, #16
 8001606:	6878      	ldr	r0, [r7, #4]
 8001608:	f7ff ffd0 	bl	80015ac <rotlFixed>
 800160c:	4603      	mov	r3, r0
 800160e:	4618      	mov	r0, r3
 8001610:	3708      	adds	r7, #8
 8001612:	46bd      	mov	sp, r7
 8001614:	bd80      	pop	{r7, pc}

08001616 <ByteReverseWords>:
 8001616:	b590      	push	{r4, r7, lr}
 8001618:	b087      	sub	sp, #28
 800161a:	af00      	add	r7, sp, #0
 800161c:	60f8      	str	r0, [r7, #12]
 800161e:	60b9      	str	r1, [r7, #8]
 8001620:	607a      	str	r2, [r7, #4]
 8001622:	687b      	ldr	r3, [r7, #4]
 8001624:	089b      	lsrs	r3, r3, #2
 8001626:	613b      	str	r3, [r7, #16]
 8001628:	2300      	movs	r3, #0
 800162a:	617b      	str	r3, [r7, #20]
 800162c:	e010      	b.n	8001650 <ByteReverseWords+0x3a>
 800162e:	697b      	ldr	r3, [r7, #20]
 8001630:	009b      	lsls	r3, r3, #2
 8001632:	68ba      	ldr	r2, [r7, #8]
 8001634:	4413      	add	r3, r2
 8001636:	6819      	ldr	r1, [r3, #0]
 8001638:	697b      	ldr	r3, [r7, #20]
 800163a:	009b      	lsls	r3, r3, #2
 800163c:	68fa      	ldr	r2, [r7, #12]
 800163e:	18d4      	adds	r4, r2, r3
 8001640:	4608      	mov	r0, r1
 8001642:	f7ff ffd1 	bl	80015e8 <ByteReverseWord32>
 8001646:	4603      	mov	r3, r0
 8001648:	6023      	str	r3, [r4, #0]
 800164a:	697b      	ldr	r3, [r7, #20]
 800164c:	3301      	adds	r3, #1
 800164e:	617b      	str	r3, [r7, #20]
 8001650:	697a      	ldr	r2, [r7, #20]
 8001652:	693b      	ldr	r3, [r7, #16]
 8001654:	429a      	cmp	r2, r3
 8001656:	d3ea      	bcc.n	800162e <ByteReverseWords+0x18>
 8001658:	bf00      	nop
 800165a:	bf00      	nop
 800165c:	371c      	adds	r7, #28
 800165e:	46bd      	mov	sp, r7
 8001660:	bd90      	pop	{r4, r7, pc}

08001662 <min>:
 8001662:	b480      	push	{r7}
 8001664:	b083      	sub	sp, #12
 8001666:	af00      	add	r7, sp, #0
 8001668:	6078      	str	r0, [r7, #4]
 800166a:	6039      	str	r1, [r7, #0]
 800166c:	687a      	ldr	r2, [r7, #4]
 800166e:	683b      	ldr	r3, [r7, #0]
 8001670:	4293      	cmp	r3, r2
 8001672:	bf28      	it	cs
 8001674:	4613      	movcs	r3, r2
 8001676:	4618      	mov	r0, r3
 8001678:	370c      	adds	r7, #12
 800167a:	46bd      	mov	sp, r7
 800167c:	bc80      	pop	{r7}
 800167e:	4770      	bx	lr

08001680 <InitSha256>:
 8001680:	b580      	push	{r7, lr}
 8001682:	b084      	sub	sp, #16
 8001684:	af00      	add	r7, sp, #0
 8001686:	6078      	str	r0, [r7, #4]
 8001688:	2300      	movs	r3, #0
 800168a:	60fb      	str	r3, [r7, #12]
 800168c:	687b      	ldr	r3, [r7, #4]
 800168e:	2b00      	cmp	r3, #0
 8001690:	d102      	bne.n	8001698 <InitSha256+0x18>
 8001692:	f06f 03ac 	mvn.w	r3, #172	; 0xac
 8001696:	e027      	b.n	80016e8 <InitSha256+0x68>
 8001698:	687b      	ldr	r3, [r7, #4]
 800169a:	2220      	movs	r2, #32
 800169c:	2100      	movs	r1, #0
 800169e:	4618      	mov	r0, r3
 80016a0:	f7ff f90f 	bl	80008c2 <memset>
 80016a4:	687b      	ldr	r3, [r7, #4]
 80016a6:	4a12      	ldr	r2, [pc, #72]	; (80016f0 <InitSha256+0x70>)
 80016a8:	601a      	str	r2, [r3, #0]
 80016aa:	687b      	ldr	r3, [r7, #4]
 80016ac:	4a11      	ldr	r2, [pc, #68]	; (80016f4 <InitSha256+0x74>)
 80016ae:	605a      	str	r2, [r3, #4]
 80016b0:	687b      	ldr	r3, [r7, #4]
 80016b2:	4a11      	ldr	r2, [pc, #68]	; (80016f8 <InitSha256+0x78>)
 80016b4:	609a      	str	r2, [r3, #8]
 80016b6:	687b      	ldr	r3, [r7, #4]
 80016b8:	4a10      	ldr	r2, [pc, #64]	; (80016fc <InitSha256+0x7c>)
 80016ba:	60da      	str	r2, [r3, #12]
 80016bc:	687b      	ldr	r3, [r7, #4]
 80016be:	4a10      	ldr	r2, [pc, #64]	; (8001700 <InitSha256+0x80>)
 80016c0:	611a      	str	r2, [r3, #16]
 80016c2:	687b      	ldr	r3, [r7, #4]
 80016c4:	4a0f      	ldr	r2, [pc, #60]	; (8001704 <InitSha256+0x84>)
 80016c6:	615a      	str	r2, [r3, #20]
 80016c8:	687b      	ldr	r3, [r7, #4]
 80016ca:	4a0f      	ldr	r2, [pc, #60]	; (8001708 <InitSha256+0x88>)
 80016cc:	619a      	str	r2, [r3, #24]
 80016ce:	687b      	ldr	r3, [r7, #4]
 80016d0:	4a0e      	ldr	r2, [pc, #56]	; (800170c <InitSha256+0x8c>)
 80016d2:	61da      	str	r2, [r3, #28]
 80016d4:	687b      	ldr	r3, [r7, #4]
 80016d6:	2200      	movs	r2, #0
 80016d8:	661a      	str	r2, [r3, #96]	; 0x60
 80016da:	687b      	ldr	r3, [r7, #4]
 80016dc:	2200      	movs	r2, #0
 80016de:	665a      	str	r2, [r3, #100]	; 0x64
 80016e0:	687b      	ldr	r3, [r7, #4]
 80016e2:	2200      	movs	r2, #0
 80016e4:	669a      	str	r2, [r3, #104]	; 0x68
 80016e6:	68fb      	ldr	r3, [r7, #12]
 80016e8:	4618      	mov	r0, r3
 80016ea:	3710      	adds	r7, #16
 80016ec:	46bd      	mov	sp, r7
 80016ee:	bd80      	pop	{r7, pc}
 80016f0:	6a09e667 	.word	0x6a09e667
 80016f4:	bb67ae85 	.word	0xbb67ae85
 80016f8:	3c6ef372 	.word	0x3c6ef372
 80016fc:	a54ff53a 	.word	0xa54ff53a
 8001700:	510e527f 	.word	0x510e527f
 8001704:	9b05688c 	.word	0x9b05688c
 8001708:	1f83d9ab 	.word	0x1f83d9ab
 800170c:	5be0cd19 	.word	0x5be0cd19

08001710 <wc_InitSha256_ex>:
 8001710:	b580      	push	{r7, lr}
 8001712:	b086      	sub	sp, #24
 8001714:	af00      	add	r7, sp, #0
 8001716:	60f8      	str	r0, [r7, #12]
 8001718:	60b9      	str	r1, [r7, #8]
 800171a:	607a      	str	r2, [r7, #4]
 800171c:	2300      	movs	r3, #0
 800171e:	617b      	str	r3, [r7, #20]
 8001720:	68fb      	ldr	r3, [r7, #12]
 8001722:	2b00      	cmp	r3, #0
 8001724:	d102      	bne.n	800172c <wc_InitSha256_ex+0x1c>
 8001726:	f06f 03ac 	mvn.w	r3, #172	; 0xac
 800172a:	e00c      	b.n	8001746 <wc_InitSha256_ex+0x36>
 800172c:	68fb      	ldr	r3, [r7, #12]
 800172e:	68ba      	ldr	r2, [r7, #8]
 8001730:	66da      	str	r2, [r3, #108]	; 0x6c
 8001732:	68f8      	ldr	r0, [r7, #12]
 8001734:	f7ff ffa4 	bl	8001680 <InitSha256>
 8001738:	6178      	str	r0, [r7, #20]
 800173a:	697b      	ldr	r3, [r7, #20]
 800173c:	2b00      	cmp	r3, #0
 800173e:	d001      	beq.n	8001744 <wc_InitSha256_ex+0x34>
 8001740:	697b      	ldr	r3, [r7, #20]
 8001742:	e000      	b.n	8001746 <wc_InitSha256_ex+0x36>
 8001744:	697b      	ldr	r3, [r7, #20]
 8001746:	4618      	mov	r0, r3
 8001748:	3718      	adds	r7, #24
 800174a:	46bd      	mov	sp, r7
 800174c:	bd80      	pop	{r7, pc}
	...

08001750 <Transform_Sha256>:
 8001750:	b5b0      	push	{r4, r5, r7, lr}
 8001752:	b0ce      	sub	sp, #312	; 0x138
 8001754:	af00      	add	r7, sp, #0
 8001756:	1d3b      	adds	r3, r7, #4
 8001758:	6018      	str	r0, [r3, #0]
 800175a:	463b      	mov	r3, r7
 800175c:	6019      	str	r1, [r3, #0]
 800175e:	2300      	movs	r3, #0
 8001760:	f8c7 3134 	str.w	r3, [r7, #308]	; 0x134
 8001764:	e012      	b.n	800178c <Transform_Sha256+0x3c>
 8001766:	1d3b      	adds	r3, r7, #4
 8001768:	681b      	ldr	r3, [r3, #0]
 800176a:	f8d7 2134 	ldr.w	r2, [r7, #308]	; 0x134
 800176e:	f853 2022 	ldr.w	r2, [r3, r2, lsl #2]
 8001772:	f8d7 3134 	ldr.w	r3, [r7, #308]	; 0x134
 8001776:	009b      	lsls	r3, r3, #2
 8001778:	f507 719c 	add.w	r1, r7, #312	; 0x138
 800177c:	440b      	add	r3, r1
 800177e:	f843 2c2c 	str.w	r2, [r3, #-44]
 8001782:	f8d7 3134 	ldr.w	r3, [r7, #308]	; 0x134
 8001786:	3301      	adds	r3, #1
 8001788:	f8c7 3134 	str.w	r3, [r7, #308]	; 0x134
 800178c:	f8d7 3134 	ldr.w	r3, [r7, #308]	; 0x134
 8001790:	2b07      	cmp	r3, #7
 8001792:	dde8      	ble.n	8001766 <Transform_Sha256+0x16>
 8001794:	2300      	movs	r3, #0
 8001796:	f8c7 3134 	str.w	r3, [r7, #308]	; 0x134
 800179a:	e011      	b.n	80017c0 <Transform_Sha256+0x70>
 800179c:	f8d7 3134 	ldr.w	r3, [r7, #308]	; 0x134
 80017a0:	009b      	lsls	r3, r3, #2
 80017a2:	463a      	mov	r2, r7
 80017a4:	6812      	ldr	r2, [r2, #0]
 80017a6:	4413      	add	r3, r2
 80017a8:	6819      	ldr	r1, [r3, #0]
 80017aa:	f107 030c 	add.w	r3, r7, #12
 80017ae:	f8d7 2134 	ldr.w	r2, [r7, #308]	; 0x134
 80017b2:	f843 1022 	str.w	r1, [r3, r2, lsl #2]
 80017b6:	f8d7 3134 	ldr.w	r3, [r7, #308]	; 0x134
 80017ba:	3301      	adds	r3, #1
 80017bc:	f8c7 3134 	str.w	r3, [r7, #308]	; 0x134
 80017c0:	f8d7 3134 	ldr.w	r3, [r7, #308]	; 0x134
 80017c4:	2b0f      	cmp	r3, #15
 80017c6:	dde9      	ble.n	800179c <Transform_Sha256+0x4c>
 80017c8:	2310      	movs	r3, #16
 80017ca:	f8c7 3134 	str.w	r3, [r7, #308]	; 0x134
 80017ce:	e065      	b.n	800189c <Transform_Sha256+0x14c>
 80017d0:	f8d7 3134 	ldr.w	r3, [r7, #308]	; 0x134
 80017d4:	1e9a      	subs	r2, r3, #2
 80017d6:	f107 030c 	add.w	r3, r7, #12
 80017da:	f853 3022 	ldr.w	r3, [r3, r2, lsl #2]
 80017de:	2111      	movs	r1, #17
 80017e0:	4618      	mov	r0, r3
 80017e2:	f7ff fef3 	bl	80015cc <rotrFixed>
 80017e6:	4604      	mov	r4, r0
 80017e8:	f8d7 3134 	ldr.w	r3, [r7, #308]	; 0x134
 80017ec:	1e9a      	subs	r2, r3, #2
 80017ee:	f107 030c 	add.w	r3, r7, #12
 80017f2:	f853 3022 	ldr.w	r3, [r3, r2, lsl #2]
 80017f6:	2113      	movs	r1, #19
 80017f8:	4618      	mov	r0, r3
 80017fa:	f7ff fee7 	bl	80015cc <rotrFixed>
 80017fe:	4603      	mov	r3, r0
 8001800:	ea84 0203 	eor.w	r2, r4, r3
 8001804:	f8d7 3134 	ldr.w	r3, [r7, #308]	; 0x134
 8001808:	1e99      	subs	r1, r3, #2
 800180a:	f107 030c 	add.w	r3, r7, #12
 800180e:	f853 3021 	ldr.w	r3, [r3, r1, lsl #2]
 8001812:	0a9b      	lsrs	r3, r3, #10
 8001814:	405a      	eors	r2, r3
 8001816:	f8d7 3134 	ldr.w	r3, [r7, #308]	; 0x134
 800181a:	1fd9      	subs	r1, r3, #7
 800181c:	f107 030c 	add.w	r3, r7, #12
 8001820:	f853 3021 	ldr.w	r3, [r3, r1, lsl #2]
 8001824:	18d4      	adds	r4, r2, r3
 8001826:	f8d7 3134 	ldr.w	r3, [r7, #308]	; 0x134
 800182a:	f1a3 020f 	sub.w	r2, r3, #15
 800182e:	f107 030c 	add.w	r3, r7, #12
 8001832:	f853 3022 	ldr.w	r3, [r3, r2, lsl #2]
 8001836:	2107      	movs	r1, #7
 8001838:	4618      	mov	r0, r3
 800183a:	f7ff fec7 	bl	80015cc <rotrFixed>
 800183e:	4605      	mov	r5, r0
 8001840:	f8d7 3134 	ldr.w	r3, [r7, #308]	; 0x134
 8001844:	f1a3 020f 	sub.w	r2, r3, #15
 8001848:	f107 030c 	add.w	r3, r7, #12
 800184c:	f853 3022 	ldr.w	r3, [r3, r2, lsl #2]
 8001850:	2112      	movs	r1, #18
 8001852:	4618      	mov	r0, r3
 8001854:	f7ff feba 	bl	80015cc <rotrFixed>
 8001858:	4603      	mov	r3, r0
 800185a:	ea85 0203 	eor.w	r2, r5, r3
 800185e:	f8d7 3134 	ldr.w	r3, [r7, #308]	; 0x134
 8001862:	f1a3 010f 	sub.w	r1, r3, #15
 8001866:	f107 030c 	add.w	r3, r7, #12
 800186a:	f853 3021 	ldr.w	r3, [r3, r1, lsl #2]
 800186e:	08db      	lsrs	r3, r3, #3
 8001870:	4053      	eors	r3, r2
 8001872:	18e2      	adds	r2, r4, r3
 8001874:	f8d7 3134 	ldr.w	r3, [r7, #308]	; 0x134
 8001878:	f1a3 0110 	sub.w	r1, r3, #16
 800187c:	f107 030c 	add.w	r3, r7, #12
 8001880:	f853 3021 	ldr.w	r3, [r3, r1, lsl #2]
 8001884:	18d1      	adds	r1, r2, r3
 8001886:	f107 030c 	add.w	r3, r7, #12
 800188a:	f8d7 2134 	ldr.w	r2, [r7, #308]	; 0x134
 800188e:	f843 1022 	str.w	r1, [r3, r2, lsl #2]
 8001892:	f8d7 3134 	ldr.w	r3, [r7, #308]	; 0x134
 8001896:	3301      	adds	r3, #1
 8001898:	f8c7 3134 	str.w	r3, [r7, #308]	; 0x134
 800189c:	f8d7 3134 	ldr.w	r3, [r7, #308]	; 0x134
 80018a0:	2b3f      	cmp	r3, #63	; 0x3f
 80018a2:	dd95      	ble.n	80017d0 <Transform_Sha256+0x80>
 80018a4:	2300      	movs	r3, #0
 80018a6:	f8c7 3134 	str.w	r3, [r7, #308]	; 0x134
 80018aa:	e375      	b.n	8001f98 <Transform_Sha256+0x848>
 80018ac:	f8d7 4128 	ldr.w	r4, [r7, #296]	; 0x128
 80018b0:	f8d7 311c 	ldr.w	r3, [r7, #284]	; 0x11c
 80018b4:	2106      	movs	r1, #6
 80018b6:	4618      	mov	r0, r3
 80018b8:	f7ff fe88 	bl	80015cc <rotrFixed>
 80018bc:	4605      	mov	r5, r0
 80018be:	f8d7 311c 	ldr.w	r3, [r7, #284]	; 0x11c
 80018c2:	210b      	movs	r1, #11
 80018c4:	4618      	mov	r0, r3
 80018c6:	f7ff fe81 	bl	80015cc <rotrFixed>
 80018ca:	4603      	mov	r3, r0
 80018cc:	405d      	eors	r5, r3
 80018ce:	f8d7 311c 	ldr.w	r3, [r7, #284]	; 0x11c
 80018d2:	2119      	movs	r1, #25
 80018d4:	4618      	mov	r0, r3
 80018d6:	f7ff fe79 	bl	80015cc <rotrFixed>
 80018da:	4603      	mov	r3, r0
 80018dc:	406b      	eors	r3, r5
 80018de:	18e2      	adds	r2, r4, r3
 80018e0:	f8d7 1124 	ldr.w	r1, [r7, #292]	; 0x124
 80018e4:	f8d7 011c 	ldr.w	r0, [r7, #284]	; 0x11c
 80018e8:	f8d7 4120 	ldr.w	r4, [r7, #288]	; 0x120
 80018ec:	f8d7 3124 	ldr.w	r3, [r7, #292]	; 0x124
 80018f0:	4063      	eors	r3, r4
 80018f2:	4003      	ands	r3, r0
 80018f4:	404b      	eors	r3, r1
 80018f6:	441a      	add	r2, r3
 80018f8:	49fb      	ldr	r1, [pc, #1004]	; (8001ce8 <Transform_Sha256+0x598>)
 80018fa:	f8d7 3134 	ldr.w	r3, [r7, #308]	; 0x134
 80018fe:	f851 3023 	ldr.w	r3, [r1, r3, lsl #2]
 8001902:	441a      	add	r2, r3
 8001904:	f107 030c 	add.w	r3, r7, #12
 8001908:	f8d7 1134 	ldr.w	r1, [r7, #308]	; 0x134
 800190c:	f853 3021 	ldr.w	r3, [r3, r1, lsl #2]
 8001910:	4413      	add	r3, r2
 8001912:	f8c7 3130 	str.w	r3, [r7, #304]	; 0x130
 8001916:	f8d7 310c 	ldr.w	r3, [r7, #268]	; 0x10c
 800191a:	2102      	movs	r1, #2
 800191c:	4618      	mov	r0, r3
 800191e:	f7ff fe55 	bl	80015cc <rotrFixed>
 8001922:	4604      	mov	r4, r0
 8001924:	f8d7 310c 	ldr.w	r3, [r7, #268]	; 0x10c
 8001928:	210d      	movs	r1, #13
 800192a:	4618      	mov	r0, r3
 800192c:	f7ff fe4e 	bl	80015cc <rotrFixed>
 8001930:	4603      	mov	r3, r0
 8001932:	405c      	eors	r4, r3
 8001934:	f8d7 310c 	ldr.w	r3, [r7, #268]	; 0x10c
 8001938:	2116      	movs	r1, #22
 800193a:	4618      	mov	r0, r3
 800193c:	f7ff fe46 	bl	80015cc <rotrFixed>
 8001940:	4603      	mov	r3, r0
 8001942:	ea84 0203 	eor.w	r2, r4, r3
 8001946:	f8d7 110c 	ldr.w	r1, [r7, #268]	; 0x10c
 800194a:	f8d7 3110 	ldr.w	r3, [r7, #272]	; 0x110
 800194e:	4319      	orrs	r1, r3
 8001950:	f8d7 3114 	ldr.w	r3, [r7, #276]	; 0x114
 8001954:	4019      	ands	r1, r3
 8001956:	f8d7 010c 	ldr.w	r0, [r7, #268]	; 0x10c
 800195a:	f8d7 3110 	ldr.w	r3, [r7, #272]	; 0x110
 800195e:	4003      	ands	r3, r0
 8001960:	430b      	orrs	r3, r1
 8001962:	4413      	add	r3, r2
 8001964:	f8c7 312c 	str.w	r3, [r7, #300]	; 0x12c
 8001968:	f8d7 2118 	ldr.w	r2, [r7, #280]	; 0x118
 800196c:	f8d7 3130 	ldr.w	r3, [r7, #304]	; 0x130
 8001970:	4413      	add	r3, r2
 8001972:	f8c7 3118 	str.w	r3, [r7, #280]	; 0x118
 8001976:	f8d7 2130 	ldr.w	r2, [r7, #304]	; 0x130
 800197a:	f8d7 312c 	ldr.w	r3, [r7, #300]	; 0x12c
 800197e:	4413      	add	r3, r2
 8001980:	f8c7 3128 	str.w	r3, [r7, #296]	; 0x128
 8001984:	f8d7 4124 	ldr.w	r4, [r7, #292]	; 0x124
 8001988:	f8d7 3118 	ldr.w	r3, [r7, #280]	; 0x118
 800198c:	2106      	movs	r1, #6
 800198e:	4618      	mov	r0, r3
 8001990:	f7ff fe1c 	bl	80015cc <rotrFixed>
 8001994:	4605      	mov	r5, r0
 8001996:	f8d7 3118 	ldr.w	r3, [r7, #280]	; 0x118
 800199a:	210b      	movs	r1, #11
 800199c:	4618      	mov	r0, r3
 800199e:	f7ff fe15 	bl	80015cc <rotrFixed>
 80019a2:	4603      	mov	r3, r0
 80019a4:	405d      	eors	r5, r3
 80019a6:	f8d7 3118 	ldr.w	r3, [r7, #280]	; 0x118
 80019aa:	2119      	movs	r1, #25
 80019ac:	4618      	mov	r0, r3
 80019ae:	f7ff fe0d 	bl	80015cc <rotrFixed>
 80019b2:	4603      	mov	r3, r0
 80019b4:	406b      	eors	r3, r5
 80019b6:	18e2      	adds	r2, r4, r3
 80019b8:	f8d7 1120 	ldr.w	r1, [r7, #288]	; 0x120
 80019bc:	f8d7 0118 	ldr.w	r0, [r7, #280]	; 0x118
 80019c0:	f8d7 411c 	ldr.w	r4, [r7, #284]	; 0x11c
 80019c4:	f8d7 3120 	ldr.w	r3, [r7, #288]	; 0x120
 80019c8:	4063      	eors	r3, r4
 80019ca:	4003      	ands	r3, r0
 80019cc:	404b      	eors	r3, r1
 80019ce:	441a      	add	r2, r3
 80019d0:	f8d7 3134 	ldr.w	r3, [r7, #308]	; 0x134
 80019d4:	3301      	adds	r3, #1
 80019d6:	49c4      	ldr	r1, [pc, #784]	; (8001ce8 <Transform_Sha256+0x598>)
 80019d8:	f851 3023 	ldr.w	r3, [r1, r3, lsl #2]
 80019dc:	441a      	add	r2, r3
 80019de:	f8d7 3134 	ldr.w	r3, [r7, #308]	; 0x134
 80019e2:	1c59      	adds	r1, r3, #1
 80019e4:	f107 030c 	add.w	r3, r7, #12
 80019e8:	f853 3021 	ldr.w	r3, [r3, r1, lsl #2]
 80019ec:	4413      	add	r3, r2
 80019ee:	f8c7 3130 	str.w	r3, [r7, #304]	; 0x130
 80019f2:	f8d7 3128 	ldr.w	r3, [r7, #296]	; 0x128
 80019f6:	2102      	movs	r1, #2
 80019f8:	4618      	mov	r0, r3
 80019fa:	f7ff fde7 	bl	80015cc <rotrFixed>
 80019fe:	4604      	mov	r4, r0
 8001a00:	f8d7 3128 	ldr.w	r3, [r7, #296]	; 0x128
 8001a04:	210d      	movs	r1, #13
 8001a06:	4618      	mov	r0, r3
 8001a08:	f7ff fde0 	bl	80015cc <rotrFixed>
 8001a0c:	4603      	mov	r3, r0
 8001a0e:	405c      	eors	r4, r3
 8001a10:	f8d7 3128 	ldr.w	r3, [r7, #296]	; 0x128
 8001a14:	2116      	movs	r1, #22
 8001a16:	4618      	mov	r0, r3
 8001a18:	f7ff fdd8 	bl	80015cc <rotrFixed>
 8001a1c:	4603      	mov	r3, r0
 8001a1e:	ea84 0203 	eor.w	r2, r4, r3
 8001a22:	f8d7 1128 	ldr.w	r1, [r7, #296]	; 0x128
 8001a26:	f8d7 310c 	ldr.w	r3, [r7, #268]	; 0x10c
 8001a2a:	4319      	orrs	r1, r3
 8001a2c:	f8d7 3110 	ldr.w	r3, [r7, #272]	; 0x110
 8001a30:	4019      	ands	r1, r3
 8001a32:	f8d7 0128 	ldr.w	r0, [r7, #296]	; 0x128
 8001a36:	f8d7 310c 	ldr.w	r3, [r7, #268]	; 0x10c
 8001a3a:	4003      	ands	r3, r0
 8001a3c:	430b      	orrs	r3, r1
 8001a3e:	4413      	add	r3, r2
 8001a40:	f8c7 312c 	str.w	r3, [r7, #300]	; 0x12c
 8001a44:	f8d7 2114 	ldr.w	r2, [r7, #276]	; 0x114
 8001a48:	f8d7 3130 	ldr.w	r3, [r7, #304]	; 0x130
 8001a4c:	4413      	add	r3, r2
 8001a4e:	f8c7 3114 	str.w	r3, [r7, #276]	; 0x114
 8001a52:	f8d7 2130 	ldr.w	r2, [r7, #304]	; 0x130
 8001a56:	f8d7 312c 	ldr.w	r3, [r7, #300]	; 0x12c
 8001a5a:	4413      	add	r3, r2
 8001a5c:	f8c7 3124 	str.w	r3, [r7, #292]	; 0x124
 8001a60:	f8d7 4120 	ldr.w	r4, [r7, #288]	; 0x120
 8001a64:	f8d7 3114 	ldr.w	r3, [r7, #276]	; 0x114
 8001a68:	2106      	movs	r1, #6
 8001a6a:	4618      	mov	r0, r3
 8001a6c:	f7ff fdae 	bl	80015cc <rotrFixed>
 8001a70:	4605      	mov	r5, r0
 8001a72:	f8d7 3114 	ldr.w	r3, [r7, #276]	; 0x114
 8001a76:	210b      	movs	r1, #11
 8001a78:	4618      	mov	r0, r3
 8001a7a:	f7ff fda7 	bl	80015cc <rotrFixed>
 8001a7e:	4603      	mov	r3, r0
 8001a80:	405d      	eors	r5, r3
 8001a82:	f8d7 3114 	ldr.w	r3, [r7, #276]	; 0x114
 8001a86:	2119      	movs	r1, #25
 8001a88:	4618      	mov	r0, r3
 8001a8a:	f7ff fd9f 	bl	80015cc <rotrFixed>
 8001a8e:	4603      	mov	r3, r0
 8001a90:	406b      	eors	r3, r5
 8001a92:	18e2      	adds	r2, r4, r3
 8001a94:	f8d7 111c 	ldr.w	r1, [r7, #284]	; 0x11c
 8001a98:	f8d7 0114 	ldr.w	r0, [r7, #276]	; 0x114
 8001a9c:	f8d7 4118 	ldr.w	r4, [r7, #280]	; 0x118
 8001aa0:	f8d7 311c 	ldr.w	r3, [r7, #284]	; 0x11c
 8001aa4:	4063      	eors	r3, r4
 8001aa6:	4003      	ands	r3, r0
 8001aa8:	404b      	eors	r3, r1
 8001aaa:	441a      	add	r2, r3
 8001aac:	f8d7 3134 	ldr.w	r3, [r7, #308]	; 0x134
 8001ab0:	3302      	adds	r3, #2
 8001ab2:	498d      	ldr	r1, [pc, #564]	; (8001ce8 <Transform_Sha256+0x598>)
 8001ab4:	f851 3023 	ldr.w	r3, [r1, r3, lsl #2]
 8001ab8:	441a      	add	r2, r3
 8001aba:	f8d7 3134 	ldr.w	r3, [r7, #308]	; 0x134
 8001abe:	1c99      	adds	r1, r3, #2
 8001ac0:	f107 030c 	add.w	r3, r7, #12
 8001ac4:	f853 3021 	ldr.w	r3, [r3, r1, lsl #2]
 8001ac8:	4413      	add	r3, r2
 8001aca:	f8c7 3130 	str.w	r3, [r7, #304]	; 0x130
 8001ace:	f8d7 3124 	ldr.w	r3, [r7, #292]	; 0x124
 8001ad2:	2102      	movs	r1, #2
 8001ad4:	4618      	mov	r0, r3
 8001ad6:	f7ff fd79 	bl	80015cc <rotrFixed>
 8001ada:	4604      	mov	r4, r0
 8001adc:	f8d7 3124 	ldr.w	r3, [r7, #292]	; 0x124
 8001ae0:	210d      	movs	r1, #13
 8001ae2:	4618      	mov	r0, r3
 8001ae4:	f7ff fd72 	bl	80015cc <rotrFixed>
 8001ae8:	4603      	mov	r3, r0
 8001aea:	405c      	eors	r4, r3
 8001aec:	f8d7 3124 	ldr.w	r3, [r7, #292]	; 0x124
 8001af0:	2116      	movs	r1, #22
 8001af2:	4618      	mov	r0, r3
 8001af4:	f7ff fd6a 	bl	80015cc <rotrFixed>
 8001af8:	4603      	mov	r3, r0
 8001afa:	ea84 0203 	eor.w	r2, r4, r3
 8001afe:	f8d7 1124 	ldr.w	r1, [r7, #292]	; 0x124
 8001b02:	f8d7 3128 	ldr.w	r3, [r7, #296]	; 0x128
 8001b06:	4319      	orrs	r1, r3
 8001b08:	f8d7 310c 	ldr.w	r3, [r7, #268]	; 0x10c
 8001b0c:	4019      	ands	r1, r3
 8001b0e:	f8d7 0124 	ldr.w	r0, [r7, #292]	; 0x124
 8001b12:	f8d7 3128 	ldr.w	r3, [r7, #296]	; 0x128
 8001b16:	4003      	ands	r3, r0
 8001b18:	430b      	orrs	r3, r1
 8001b1a:	4413      	add	r3, r2
 8001b1c:	f8c7 312c 	str.w	r3, [r7, #300]	; 0x12c
 8001b20:	f8d7 2110 	ldr.w	r2, [r7, #272]	; 0x110
 8001b24:	f8d7 3130 	ldr.w	r3, [r7, #304]	; 0x130
 8001b28:	4413      	add	r3, r2
 8001b2a:	f8c7 3110 	str.w	r3, [r7, #272]	; 0x110
 8001b2e:	f8d7 2130 	ldr.w	r2, [r7, #304]	; 0x130
 8001b32:	f8d7 312c 	ldr.w	r3, [r7, #300]	; 0x12c
 8001b36:	4413      	add	r3, r2
 8001b38:	f8c7 3120 	str.w	r3, [r7, #288]	; 0x120
 8001b3c:	f8d7 411c 	ldr.w	r4, [r7, #284]	; 0x11c
 8001b40:	f8d7 3110 	ldr.w	r3, [r7, #272]	; 0x110
 8001b44:	2106      	movs	r1, #6
 8001b46:	4618      	mov	r0, r3
 8001b48:	f7ff fd40 	bl	80015cc <rotrFixed>
 8001b4c:	4605      	mov	r5, r0
 8001b4e:	f8d7 3110 	ldr.w	r3, [r7, #272]	; 0x110
 8001b52:	210b      	movs	r1, #11
 8001b54:	4618      	mov	r0, r3
 8001b56:	f7ff fd39 	bl	80015cc <rotrFixed>
 8001b5a:	4603      	mov	r3, r0
 8001b5c:	405d      	eors	r5, r3
 8001b5e:	f8d7 3110 	ldr.w	r3, [r7, #272]	; 0x110
 8001b62:	2119      	movs	r1, #25
 8001b64:	4618      	mov	r0, r3
 8001b66:	f7ff fd31 	bl	80015cc <rotrFixed>
 8001b6a:	4603      	mov	r3, r0
 8001b6c:	406b      	eors	r3, r5
 8001b6e:	18e2      	adds	r2, r4, r3
 8001b70:	f8d7 1118 	ldr.w	r1, [r7, #280]	; 0x118
 8001b74:	f8d7 0110 	ldr.w	r0, [r7, #272]	; 0x110
 8001b78:	f8d7 4114 	ldr.w	r4, [r7, #276]	; 0x114
 8001b7c:	f8d7 3118 	ldr.w	r3, [r7, #280]	; 0x118
 8001b80:	4063      	eors	r3, r4
 8001b82:	4003      	ands	r3, r0
 8001b84:	404b      	eors	r3, r1
 8001b86:	441a      	add	r2, r3
 8001b88:	f8d7 3134 	ldr.w	r3, [r7, #308]	; 0x134
 8001b8c:	3303      	adds	r3, #3
 8001b8e:	4956      	ldr	r1, [pc, #344]	; (8001ce8 <Transform_Sha256+0x598>)
 8001b90:	f851 3023 	ldr.w	r3, [r1, r3, lsl #2]
 8001b94:	441a      	add	r2, r3
 8001b96:	f8d7 3134 	ldr.w	r3, [r7, #308]	; 0x134
 8001b9a:	1cd9      	adds	r1, r3, #3
 8001b9c:	f107 030c 	add.w	r3, r7, #12
 8001ba0:	f853 3021 	ldr.w	r3, [r3, r1, lsl #2]
 8001ba4:	4413      	add	r3, r2
 8001ba6:	f8c7 3130 	str.w	r3, [r7, #304]	; 0x130
 8001baa:	f8d7 3120 	ldr.w	r3, [r7, #288]	; 0x120
 8001bae:	2102      	movs	r1, #2
 8001bb0:	4618      	mov	r0, r3
 8001bb2:	f7ff fd0b 	bl	80015cc <rotrFixed>
 8001bb6:	4604      	mov	r4, r0
 8001bb8:	f8d7 3120 	ldr.w	r3, [r7, #288]	; 0x120
 8001bbc:	210d      	movs	r1, #13
 8001bbe:	4618      	mov	r0, r3
 8001bc0:	f7ff fd04 	bl	80015cc <rotrFixed>
 8001bc4:	4603      	mov	r3, r0
 8001bc6:	405c      	eors	r4, r3
 8001bc8:	f8d7 3120 	ldr.w	r3, [r7, #288]	; 0x120
 8001bcc:	2116      	movs	r1, #22
 8001bce:	4618      	mov	r0, r3
 8001bd0:	f7ff fcfc 	bl	80015cc <rotrFixed>
 8001bd4:	4603      	mov	r3, r0
 8001bd6:	ea84 0203 	eor.w	r2, r4, r3
 8001bda:	f8d7 1120 	ldr.w	r1, [r7, #288]	; 0x120
 8001bde:	f8d7 3124 	ldr.w	r3, [r7, #292]	; 0x124
 8001be2:	4319      	orrs	r1, r3
 8001be4:	f8d7 3128 	ldr.w	r3, [r7, #296]	; 0x128
 8001be8:	4019      	ands	r1, r3
 8001bea:	f8d7 0120 	ldr.w	r0, [r7, #288]	; 0x120
 8001bee:	f8d7 3124 	ldr.w	r3, [r7, #292]	; 0x124
 8001bf2:	4003      	ands	r3, r0
 8001bf4:	430b      	orrs	r3, r1
 8001bf6:	4413      	add	r3, r2
 8001bf8:	f8c7 312c 	str.w	r3, [r7, #300]	; 0x12c
 8001bfc:	f8d7 210c 	ldr.w	r2, [r7, #268]	; 0x10c
 8001c00:	f8d7 3130 	ldr.w	r3, [r7, #304]	; 0x130
 8001c04:	4413      	add	r3, r2
 8001c06:	f8c7 310c 	str.w	r3, [r7, #268]	; 0x10c
 8001c0a:	f8d7 2130 	ldr.w	r2, [r7, #304]	; 0x130
 8001c0e:	f8d7 312c 	ldr.w	r3, [r7, #300]	; 0x12c
 8001c12:	4413      	add	r3, r2
 8001c14:	f8c7 311c 	str.w	r3, [r7, #284]	; 0x11c
 8001c18:	f8d7 4118 	ldr.w	r4, [r7, #280]	; 0x118
 8001c1c:	f8d7 310c 	ldr.w	r3, [r7, #268]	; 0x10c
 8001c20:	2106      	movs	r1, #6
 8001c22:	4618      	mov	r0, r3
 8001c24:	f7ff fcd2 	bl	80015cc <rotrFixed>
 8001c28:	4605      	mov	r5, r0
 8001c2a:	f8d7 310c 	ldr.w	r3, [r7, #268]	; 0x10c
 8001c2e:	210b      	movs	r1, #11
 8001c30:	4618      	mov	r0, r3
 8001c32:	f7ff fccb 	bl	80015cc <rotrFixed>
 8001c36:	4603      	mov	r3, r0
 8001c38:	405d      	eors	r5, r3
 8001c3a:	f8d7 310c 	ldr.w	r3, [r7, #268]	; 0x10c
 8001c3e:	2119      	movs	r1, #25
 8001c40:	4618      	mov	r0, r3
 8001c42:	f7ff fcc3 	bl	80015cc <rotrFixed>
 8001c46:	4603      	mov	r3, r0
 8001c48:	406b      	eors	r3, r5
 8001c4a:	18e2      	adds	r2, r4, r3
 8001c4c:	f8d7 1114 	ldr.w	r1, [r7, #276]	; 0x114
 8001c50:	f8d7 010c 	ldr.w	r0, [r7, #268]	; 0x10c
 8001c54:	f8d7 4110 	ldr.w	r4, [r7, #272]	; 0x110
 8001c58:	f8d7 3114 	ldr.w	r3, [r7, #276]	; 0x114
 8001c5c:	4063      	eors	r3, r4
 8001c5e:	4003      	ands	r3, r0
 8001c60:	404b      	eors	r3, r1
 8001c62:	441a      	add	r2, r3
 8001c64:	f8d7 3134 	ldr.w	r3, [r7, #308]	; 0x134
 8001c68:	3304      	adds	r3, #4
 8001c6a:	491f      	ldr	r1, [pc, #124]	; (8001ce8 <Transform_Sha256+0x598>)
 8001c6c:	f851 3023 	ldr.w	r3, [r1, r3, lsl #2]
 8001c70:	441a      	add	r2, r3
 8001c72:	f8d7 3134 	ldr.w	r3, [r7, #308]	; 0x134
 8001c76:	1d19      	adds	r1, r3, #4
 8001c78:	f107 030c 	add.w	r3, r7, #12
 8001c7c:	f853 3021 	ldr.w	r3, [r3, r1, lsl #2]
 8001c80:	4413      	add	r3, r2
 8001c82:	f8c7 3130 	str.w	r3, [r7, #304]	; 0x130
 8001c86:	f8d7 311c 	ldr.w	r3, [r7, #284]	; 0x11c
 8001c8a:	2102      	movs	r1, #2
 8001c8c:	4618      	mov	r0, r3
 8001c8e:	f7ff fc9d 	bl	80015cc <rotrFixed>
 8001c92:	4604      	mov	r4, r0
 8001c94:	f8d7 311c 	ldr.w	r3, [r7, #284]	; 0x11c
 8001c98:	210d      	movs	r1, #13
 8001c9a:	4618      	mov	r0, r3
 8001c9c:	f7ff fc96 	bl	80015cc <rotrFixed>
 8001ca0:	4603      	mov	r3, r0
 8001ca2:	405c      	eors	r4, r3
 8001ca4:	f8d7 311c 	ldr.w	r3, [r7, #284]	; 0x11c
 8001ca8:	2116      	movs	r1, #22
 8001caa:	4618      	mov	r0, r3
 8001cac:	f7ff fc8e 	bl	80015cc <rotrFixed>
 8001cb0:	4603      	mov	r3, r0
 8001cb2:	ea84 0203 	eor.w	r2, r4, r3
 8001cb6:	f8d7 111c 	ldr.w	r1, [r7, #284]	; 0x11c
 8001cba:	f8d7 3120 	ldr.w	r3, [r7, #288]	; 0x120
 8001cbe:	4319      	orrs	r1, r3
 8001cc0:	f8d7 3124 	ldr.w	r3, [r7, #292]	; 0x124
 8001cc4:	4019      	ands	r1, r3
 8001cc6:	f8d7 011c 	ldr.w	r0, [r7, #284]	; 0x11c
 8001cca:	f8d7 3120 	ldr.w	r3, [r7, #288]	; 0x120
 8001cce:	4003      	ands	r3, r0
 8001cd0:	430b      	orrs	r3, r1
 8001cd2:	4413      	add	r3, r2
 8001cd4:	f8c7 312c 	str.w	r3, [r7, #300]	; 0x12c
 8001cd8:	f8d7 2128 	ldr.w	r2, [r7, #296]	; 0x128
 8001cdc:	f8d7 3130 	ldr.w	r3, [r7, #304]	; 0x130
 8001ce0:	4413      	add	r3, r2
 8001ce2:	f8c7 3128 	str.w	r3, [r7, #296]	; 0x128
 8001ce6:	e001      	b.n	8001cec <Transform_Sha256+0x59c>
 8001ce8:	08006aac 	.word	0x08006aac
 8001cec:	f8d7 2130 	ldr.w	r2, [r7, #304]	; 0x130
 8001cf0:	f8d7 312c 	ldr.w	r3, [r7, #300]	; 0x12c
 8001cf4:	4413      	add	r3, r2
 8001cf6:	f8c7 3118 	str.w	r3, [r7, #280]	; 0x118
 8001cfa:	f8d7 4114 	ldr.w	r4, [r7, #276]	; 0x114
 8001cfe:	f8d7 3128 	ldr.w	r3, [r7, #296]	; 0x128
 8001d02:	2106      	movs	r1, #6
 8001d04:	4618      	mov	r0, r3
 8001d06:	f7ff fc61 	bl	80015cc <rotrFixed>
 8001d0a:	4605      	mov	r5, r0
 8001d0c:	f8d7 3128 	ldr.w	r3, [r7, #296]	; 0x128
 8001d10:	210b      	movs	r1, #11
 8001d12:	4618      	mov	r0, r3
 8001d14:	f7ff fc5a 	bl	80015cc <rotrFixed>
 8001d18:	4603      	mov	r3, r0
 8001d1a:	405d      	eors	r5, r3
 8001d1c:	f8d7 3128 	ldr.w	r3, [r7, #296]	; 0x128
 8001d20:	2119      	movs	r1, #25
 8001d22:	4618      	mov	r0, r3
 8001d24:	f7ff fc52 	bl	80015cc <rotrFixed>
 8001d28:	4603      	mov	r3, r0
 8001d2a:	406b      	eors	r3, r5
 8001d2c:	18e2      	adds	r2, r4, r3
 8001d2e:	f8d7 1110 	ldr.w	r1, [r7, #272]	; 0x110
 8001d32:	f8d7 0128 	ldr.w	r0, [r7, #296]	; 0x128
 8001d36:	f8d7 410c 	ldr.w	r4, [r7, #268]	; 0x10c
 8001d3a:	f8d7 3110 	ldr.w	r3, [r7, #272]	; 0x110
 8001d3e:	4063      	eors	r3, r4
 8001d40:	4003      	ands	r3, r0
 8001d42:	404b      	eors	r3, r1
 8001d44:	441a      	add	r2, r3
 8001d46:	f8d7 3134 	ldr.w	r3, [r7, #308]	; 0x134
 8001d4a:	3305      	adds	r3, #5
 8001d4c:	49a9      	ldr	r1, [pc, #676]	; (8001ff4 <Transform_Sha256+0x8a4>)
 8001d4e:	f851 3023 	ldr.w	r3, [r1, r3, lsl #2]
 8001d52:	441a      	add	r2, r3
 8001d54:	f8d7 3134 	ldr.w	r3, [r7, #308]	; 0x134
 8001d58:	1d59      	adds	r1, r3, #5
 8001d5a:	f107 030c 	add.w	r3, r7, #12
 8001d5e:	f853 3021 	ldr.w	r3, [r3, r1, lsl #2]
 8001d62:	4413      	add	r3, r2
 8001d64:	f8c7 3130 	str.w	r3, [r7, #304]	; 0x130
 8001d68:	f8d7 3118 	ldr.w	r3, [r7, #280]	; 0x118
 8001d6c:	2102      	movs	r1, #2
 8001d6e:	4618      	mov	r0, r3
 8001d70:	f7ff fc2c 	bl	80015cc <rotrFixed>
 8001d74:	4604      	mov	r4, r0
 8001d76:	f8d7 3118 	ldr.w	r3, [r7, #280]	; 0x118
 8001d7a:	210d      	movs	r1, #13
 8001d7c:	4618      	mov	r0, r3
 8001d7e:	f7ff fc25 	bl	80015cc <rotrFixed>
 8001d82:	4603      	mov	r3, r0
 8001d84:	405c      	eors	r4, r3
 8001d86:	f8d7 3118 	ldr.w	r3, [r7, #280]	; 0x118
 8001d8a:	2116      	movs	r1, #22
 8001d8c:	4618      	mov	r0, r3
 8001d8e:	f7ff fc1d 	bl	80015cc <rotrFixed>
 8001d92:	4603      	mov	r3, r0
 8001d94:	ea84 0203 	eor.w	r2, r4, r3
 8001d98:	f8d7 1118 	ldr.w	r1, [r7, #280]	; 0x118
 8001d9c:	f8d7 311c 	ldr.w	r3, [r7, #284]	; 0x11c
 8001da0:	4319      	orrs	r1, r3
 8001da2:	f8d7 3120 	ldr.w	r3, [r7, #288]	; 0x120
 8001da6:	4019      	ands	r1, r3
 8001da8:	f8d7 0118 	ldr.w	r0, [r7, #280]	; 0x118
 8001dac:	f8d7 311c 	ldr.w	r3, [r7, #284]	; 0x11c
 8001db0:	4003      	ands	r3, r0
 8001db2:	430b      	orrs	r3, r1
 8001db4:	4413      	add	r3, r2
 8001db6:	f8c7 312c 	str.w	r3, [r7, #300]	; 0x12c
 8001dba:	f8d7 2124 	ldr.w	r2, [r7, #292]	; 0x124
 8001dbe:	f8d7 3130 	ldr.w	r3, [r7, #304]	; 0x130
 8001dc2:	4413      	add	r3, r2
 8001dc4:	f8c7 3124 	str.w	r3, [r7, #292]	; 0x124
 8001dc8:	f8d7 2130 	ldr.w	r2, [r7, #304]	; 0x130
 8001dcc:	f8d7 312c 	ldr.w	r3, [r7, #300]	; 0x12c
 8001dd0:	4413      	add	r3, r2
 8001dd2:	f8c7 3114 	str.w	r3, [r7, #276]	; 0x114
 8001dd6:	f8d7 4110 	ldr.w	r4, [r7, #272]	; 0x110
 8001dda:	f8d7 3124 	ldr.w	r3, [r7, #292]	; 0x124
 8001dde:	2106      	movs	r1, #6
 8001de0:	4618      	mov	r0, r3
 8001de2:	f7ff fbf3 	bl	80015cc <rotrFixed>
 8001de6:	4605      	mov	r5, r0
 8001de8:	f8d7 3124 	ldr.w	r3, [r7, #292]	; 0x124
 8001dec:	210b      	movs	r1, #11
 8001dee:	4618      	mov	r0, r3
 8001df0:	f7ff fbec 	bl	80015cc <rotrFixed>
 8001df4:	4603      	mov	r3, r0
 8001df6:	405d      	eors	r5, r3
 8001df8:	f8d7 3124 	ldr.w	r3, [r7, #292]	; 0x124
 8001dfc:	2119      	movs	r1, #25
 8001dfe:	4618      	mov	r0, r3
 8001e00:	f7ff fbe4 	bl	80015cc <rotrFixed>
 8001e04:	4603      	mov	r3, r0
 8001e06:	406b      	eors	r3, r5
 8001e08:	18e2      	adds	r2, r4, r3
 8001e0a:	f8d7 110c 	ldr.w	r1, [r7, #268]	; 0x10c
 8001e0e:	f8d7 0124 	ldr.w	r0, [r7, #292]	; 0x124
 8001e12:	f8d7 4128 	ldr.w	r4, [r7, #296]	; 0x128
 8001e16:	f8d7 310c 	ldr.w	r3, [r7, #268]	; 0x10c
 8001e1a:	4063      	eors	r3, r4
 8001e1c:	4003      	ands	r3, r0
 8001e1e:	404b      	eors	r3, r1
 8001e20:	441a      	add	r2, r3
 8001e22:	f8d7 3134 	ldr.w	r3, [r7, #308]	; 0x134
 8001e26:	3306      	adds	r3, #6
 8001e28:	4972      	ldr	r1, [pc, #456]	; (8001ff4 <Transform_Sha256+0x8a4>)
 8001e2a:	f851 3023 	ldr.w	r3, [r1, r3, lsl #2]
 8001e2e:	441a      	add	r2, r3
 8001e30:	f8d7 3134 	ldr.w	r3, [r7, #308]	; 0x134
 8001e34:	1d99      	adds	r1, r3, #6
 8001e36:	f107 030c 	add.w	r3, r7, #12
 8001e3a:	f853 3021 	ldr.w	r3, [r3, r1, lsl #2]
 8001e3e:	4413      	add	r3, r2
 8001e40:	f8c7 3130 	str.w	r3, [r7, #304]	; 0x130
 8001e44:	f8d7 3114 	ldr.w	r3, [r7, #276]	; 0x114
 8001e48:	2102      	movs	r1, #2
 8001e4a:	4618      	mov	r0, r3
 8001e4c:	f7ff fbbe 	bl	80015cc <rotrFixed>
 8001e50:	4604      	mov	r4, r0
 8001e52:	f8d7 3114 	ldr.w	r3, [r7, #276]	; 0x114
 8001e56:	210d      	movs	r1, #13
 8001e58:	4618      	mov	r0, r3
 8001e5a:	f7ff fbb7 	bl	80015cc <rotrFixed>
 8001e5e:	4603      	mov	r3, r0
 8001e60:	405c      	eors	r4, r3
 8001e62:	f8d7 3114 	ldr.w	r3, [r7, #276]	; 0x114
 8001e66:	2116      	movs	r1, #22
 8001e68:	4618      	mov	r0, r3
 8001e6a:	f7ff fbaf 	bl	80015cc <rotrFixed>
 8001e6e:	4603      	mov	r3, r0
 8001e70:	ea84 0203 	eor.w	r2, r4, r3
 8001e74:	f8d7 1114 	ldr.w	r1, [r7, #276]	; 0x114
 8001e78:	f8d7 3118 	ldr.w	r3, [r7, #280]	; 0x118
 8001e7c:	4319      	orrs	r1, r3
 8001e7e:	f8d7 311c 	ldr.w	r3, [r7, #284]	; 0x11c
 8001e82:	4019      	ands	r1, r3
 8001e84:	f8d7 0114 	ldr.w	r0, [r7, #276]	; 0x114
 8001e88:	f8d7 3118 	ldr.w	r3, [r7, #280]	; 0x118
 8001e8c:	4003      	ands	r3, r0
 8001e8e:	430b      	orrs	r3, r1
 8001e90:	4413      	add	r3, r2
 8001e92:	f8c7 312c 	str.w	r3, [r7, #300]	; 0x12c
 8001e96:	f8d7 2120 	ldr.w	r2, [r7, #288]	; 0x120
 8001e9a:	f8d7 3130 	ldr.w	r3, [r7, #304]	; 0x130
 8001e9e:	4413      	add	r3, r2
 8001ea0:	f8c7 3120 	str.w	r3, [r7, #288]	; 0x120
 8001ea4:	f8d7 2130 	ldr.w	r2, [r7, #304]	; 0x130
 8001ea8:	f8d7 312c 	ldr.w	r3, [r7, #300]	; 0x12c
 8001eac:	4413      	add	r3, r2
 8001eae:	f8c7 3110 	str.w	r3, [r7, #272]	; 0x110
 8001eb2:	f8d7 410c 	ldr.w	r4, [r7, #268]	; 0x10c
 8001eb6:	f8d7 3120 	ldr.w	r3, [r7, #288]	; 0x120
 8001eba:	2106      	movs	r1, #6
 8001ebc:	4618      	mov	r0, r3
 8001ebe:	f7ff fb85 	bl	80015cc <rotrFixed>
 8001ec2:	4605      	mov	r5, r0
 8001ec4:	f8d7 3120 	ldr.w	r3, [r7, #288]	; 0x120
 8001ec8:	210b      	movs	r1, #11
 8001eca:	4618      	mov	r0, r3
 8001ecc:	f7ff fb7e 	bl	80015cc <rotrFixed>
 8001ed0:	4603      	mov	r3, r0
 8001ed2:	405d      	eors	r5, r3
 8001ed4:	f8d7 3120 	ldr.w	r3, [r7, #288]	; 0x120
 8001ed8:	2119      	movs	r1, #25
 8001eda:	4618      	mov	r0, r3
 8001edc:	f7ff fb76 	bl	80015cc <rotrFixed>
 8001ee0:	4603      	mov	r3, r0
 8001ee2:	406b      	eors	r3, r5
 8001ee4:	18e2      	adds	r2, r4, r3
 8001ee6:	f8d7 1128 	ldr.w	r1, [r7, #296]	; 0x128
 8001eea:	f8d7 0120 	ldr.w	r0, [r7, #288]	; 0x120
 8001eee:	f8d7 4124 	ldr.w	r4, [r7, #292]	; 0x124
 8001ef2:	f8d7 3128 	ldr.w	r3, [r7, #296]	; 0x128
 8001ef6:	4063      	eors	r3, r4
 8001ef8:	4003      	ands	r3, r0
 8001efa:	404b      	eors	r3, r1
 8001efc:	441a      	add	r2, r3
 8001efe:	f8d7 3134 	ldr.w	r3, [r7, #308]	; 0x134
 8001f02:	3307      	adds	r3, #7
 8001f04:	493b      	ldr	r1, [pc, #236]	; (8001ff4 <Transform_Sha256+0x8a4>)
 8001f06:	f851 3023 	ldr.w	r3, [r1, r3, lsl #2]
 8001f0a:	441a      	add	r2, r3
 8001f0c:	f8d7 3134 	ldr.w	r3, [r7, #308]	; 0x134
 8001f10:	1dd9      	adds	r1, r3, #7
 8001f12:	f107 030c 	add.w	r3, r7, #12
 8001f16:	f853 3021 	ldr.w	r3, [r3, r1, lsl #2]
 8001f1a:	4413      	add	r3, r2
 8001f1c:	f8c7 3130 	str.w	r3, [r7, #304]	; 0x130
 8001f20:	f8d7 3110 	ldr.w	r3, [r7, #272]	; 0x110
 8001f24:	2102      	movs	r1, #2
 8001f26:	4618      	mov	r0, r3
 8001f28:	f7ff fb50 	bl	80015cc <rotrFixed>
 8001f2c:	4604      	mov	r4, r0
 8001f2e:	f8d7 3110 	ldr.w	r3, [r7, #272]	; 0x110
 8001f32:	210d      	movs	r1, #13
 8001f34:	4618      	mov	r0, r3
 8001f36:	f7ff fb49 	bl	80015cc <rotrFixed>
 8001f3a:	4603      	mov	r3, r0
 8001f3c:	405c      	eors	r4, r3
 8001f3e:	f8d7 3110 	ldr.w	r3, [r7, #272]	; 0x110
 8001f42:	2116      	movs	r1, #22
 8001f44:	4618      	mov	r0, r3
 8001f46:	f7ff fb41 	bl	80015cc <rotrFixed>
 8001f4a:	4603      	mov	r3, r0
 8001f4c:	ea84 0203 	eor.w	r2, r4, r3
 8001f50:	f8d7 1110 	ldr.w	r1, [r7, #272]	; 0x110
 8001f54:	f8d7 3114 	ldr.w	r3, [r7, #276]	; 0x114
 8001f58:	4319      	orrs	r1, r3
 8001f5a:	f8d7 3118 	ldr.w	r3, [r7, #280]	; 0x118
 8001f5e:	4019      	ands	r1, r3
 8001f60:	f8d7 0110 	ldr.w	r0, [r7, #272]	; 0x110
 8001f64:	f8d7 3114 	ldr.w	r3, [r7, #276]	; 0x114
 8001f68:	4003      	ands	r3, r0
 8001f6a:	430b      	orrs	r3, r1
 8001f6c:	4413      	add	r3, r2
 8001f6e:	f8c7 312c 	str.w	r3, [r7, #300]	; 0x12c
 8001f72:	f8d7 211c 	ldr.w	r2, [r7, #284]	; 0x11c
 8001f76:	f8d7 3130 	ldr.w	r3, [r7, #304]	; 0x130
 8001f7a:	4413      	add	r3, r2
 8001f7c:	f8c7 311c 	str.w	r3, [r7, #284]	; 0x11c
 8001f80:	f8d7 2130 	ldr.w	r2, [r7, #304]	; 0x130
 8001f84:	f8d7 312c 	ldr.w	r3, [r7, #300]	; 0x12c
 8001f88:	4413      	add	r3, r2
 8001f8a:	f8c7 310c 	str.w	r3, [r7, #268]	; 0x10c
 8001f8e:	f8d7 3134 	ldr.w	r3, [r7, #308]	; 0x134
 8001f92:	3308      	adds	r3, #8
 8001f94:	f8c7 3134 	str.w	r3, [r7, #308]	; 0x134
 8001f98:	f8d7 3134 	ldr.w	r3, [r7, #308]	; 0x134
 8001f9c:	2b3f      	cmp	r3, #63	; 0x3f
 8001f9e:	f77f ac85 	ble.w	80018ac <Transform_Sha256+0x15c>
 8001fa2:	2300      	movs	r3, #0
 8001fa4:	f8c7 3134 	str.w	r3, [r7, #308]	; 0x134
 8001fa8:	e019      	b.n	8001fde <Transform_Sha256+0x88e>
 8001faa:	1d3b      	adds	r3, r7, #4
 8001fac:	681b      	ldr	r3, [r3, #0]
 8001fae:	f8d7 2134 	ldr.w	r2, [r7, #308]	; 0x134
 8001fb2:	f853 2022 	ldr.w	r2, [r3, r2, lsl #2]
 8001fb6:	f8d7 3134 	ldr.w	r3, [r7, #308]	; 0x134
 8001fba:	009b      	lsls	r3, r3, #2
 8001fbc:	f507 719c 	add.w	r1, r7, #312	; 0x138
 8001fc0:	440b      	add	r3, r1
 8001fc2:	f853 3c2c 	ldr.w	r3, [r3, #-44]
 8001fc6:	18d1      	adds	r1, r2, r3
 8001fc8:	1d3b      	adds	r3, r7, #4
 8001fca:	681b      	ldr	r3, [r3, #0]
 8001fcc:	f8d7 2134 	ldr.w	r2, [r7, #308]	; 0x134
 8001fd0:	f843 1022 	str.w	r1, [r3, r2, lsl #2]
 8001fd4:	f8d7 3134 	ldr.w	r3, [r7, #308]	; 0x134
 8001fd8:	3301      	adds	r3, #1
 8001fda:	f8c7 3134 	str.w	r3, [r7, #308]	; 0x134
 8001fde:	f8d7 3134 	ldr.w	r3, [r7, #308]	; 0x134
 8001fe2:	2b07      	cmp	r3, #7
 8001fe4:	dde1      	ble.n	8001faa <Transform_Sha256+0x85a>
 8001fe6:	2300      	movs	r3, #0
 8001fe8:	4618      	mov	r0, r3
 8001fea:	f507 779c 	add.w	r7, r7, #312	; 0x138
 8001fee:	46bd      	mov	sp, r7
 8001ff0:	bdb0      	pop	{r4, r5, r7, pc}
 8001ff2:	bf00      	nop
 8001ff4:	08006aac 	.word	0x08006aac

08001ff8 <AddLength>:
 8001ff8:	b480      	push	{r7}
 8001ffa:	b085      	sub	sp, #20
 8001ffc:	af00      	add	r7, sp, #0
 8001ffe:	6078      	str	r0, [r7, #4]
 8002000:	6039      	str	r1, [r7, #0]
 8002002:	687b      	ldr	r3, [r7, #4]
 8002004:	6e5b      	ldr	r3, [r3, #100]	; 0x64
 8002006:	60fb      	str	r3, [r7, #12]
 8002008:	687b      	ldr	r3, [r7, #4]
 800200a:	6e5a      	ldr	r2, [r3, #100]	; 0x64
 800200c:	683b      	ldr	r3, [r7, #0]
 800200e:	441a      	add	r2, r3
 8002010:	687b      	ldr	r3, [r7, #4]
 8002012:	665a      	str	r2, [r3, #100]	; 0x64
 8002014:	687b      	ldr	r3, [r7, #4]
 8002016:	6e5b      	ldr	r3, [r3, #100]	; 0x64
 8002018:	68fa      	ldr	r2, [r7, #12]
 800201a:	429a      	cmp	r2, r3
 800201c:	d904      	bls.n	8002028 <AddLength+0x30>
 800201e:	687b      	ldr	r3, [r7, #4]
 8002020:	6e9b      	ldr	r3, [r3, #104]	; 0x68
 8002022:	1c5a      	adds	r2, r3, #1
 8002024:	687b      	ldr	r3, [r7, #4]
 8002026:	669a      	str	r2, [r3, #104]	; 0x68
 8002028:	bf00      	nop
 800202a:	3714      	adds	r7, #20
 800202c:	46bd      	mov	sp, r7
 800202e:	bc80      	pop	{r7}
 8002030:	4770      	bx	lr

08002032 <Sha256Update>:
 8002032:	b580      	push	{r7, lr}
 8002034:	b088      	sub	sp, #32
 8002036:	af00      	add	r7, sp, #0
 8002038:	60f8      	str	r0, [r7, #12]
 800203a:	60b9      	str	r1, [r7, #8]
 800203c:	607a      	str	r2, [r7, #4]
 800203e:	2300      	movs	r3, #0
 8002040:	61fb      	str	r3, [r7, #28]
 8002042:	68fb      	ldr	r3, [r7, #12]
 8002044:	2b00      	cmp	r3, #0
 8002046:	d005      	beq.n	8002054 <Sha256Update+0x22>
 8002048:	68bb      	ldr	r3, [r7, #8]
 800204a:	2b00      	cmp	r3, #0
 800204c:	d105      	bne.n	800205a <Sha256Update+0x28>
 800204e:	687b      	ldr	r3, [r7, #4]
 8002050:	2b00      	cmp	r3, #0
 8002052:	d002      	beq.n	800205a <Sha256Update+0x28>
 8002054:	f06f 03ac 	mvn.w	r3, #172	; 0xac
 8002058:	e084      	b.n	8002164 <Sha256Update+0x132>
 800205a:	68bb      	ldr	r3, [r7, #8]
 800205c:	2b00      	cmp	r3, #0
 800205e:	d104      	bne.n	800206a <Sha256Update+0x38>
 8002060:	687b      	ldr	r3, [r7, #4]
 8002062:	2b00      	cmp	r3, #0
 8002064:	d101      	bne.n	800206a <Sha256Update+0x38>
 8002066:	2300      	movs	r3, #0
 8002068:	e07c      	b.n	8002164 <Sha256Update+0x132>
 800206a:	68fb      	ldr	r3, [r7, #12]
 800206c:	6e1b      	ldr	r3, [r3, #96]	; 0x60
 800206e:	2b3f      	cmp	r3, #63	; 0x3f
 8002070:	d902      	bls.n	8002078 <Sha256Update+0x46>
 8002072:	f06f 0383 	mvn.w	r3, #131	; 0x83
 8002076:	e075      	b.n	8002164 <Sha256Update+0x132>
 8002078:	6879      	ldr	r1, [r7, #4]
 800207a:	68f8      	ldr	r0, [r7, #12]
 800207c:	f7ff ffbc 	bl	8001ff8 <AddLength>
 8002080:	68fb      	ldr	r3, [r7, #12]
 8002082:	3320      	adds	r3, #32
 8002084:	61bb      	str	r3, [r7, #24]
 8002086:	68fb      	ldr	r3, [r7, #12]
 8002088:	6e1b      	ldr	r3, [r3, #96]	; 0x60
 800208a:	2b00      	cmp	r3, #0
 800208c:	d056      	beq.n	800213c <Sha256Update+0x10a>
 800208e:	68fb      	ldr	r3, [r7, #12]
 8002090:	6e1b      	ldr	r3, [r3, #96]	; 0x60
 8002092:	f1c3 0340 	rsb	r3, r3, #64	; 0x40
 8002096:	4619      	mov	r1, r3
 8002098:	6878      	ldr	r0, [r7, #4]
 800209a:	f7ff fae2 	bl	8001662 <min>
 800209e:	6178      	str	r0, [r7, #20]
 80020a0:	68fb      	ldr	r3, [r7, #12]
 80020a2:	6e1b      	ldr	r3, [r3, #96]	; 0x60
 80020a4:	69ba      	ldr	r2, [r7, #24]
 80020a6:	4413      	add	r3, r2
 80020a8:	697a      	ldr	r2, [r7, #20]
 80020aa:	68b9      	ldr	r1, [r7, #8]
 80020ac:	4618      	mov	r0, r3
 80020ae:	f7fe fc38 	bl	8000922 <memcpy>
 80020b2:	68fb      	ldr	r3, [r7, #12]
 80020b4:	6e1a      	ldr	r2, [r3, #96]	; 0x60
 80020b6:	697b      	ldr	r3, [r7, #20]
 80020b8:	441a      	add	r2, r3
 80020ba:	68fb      	ldr	r3, [r7, #12]
 80020bc:	661a      	str	r2, [r3, #96]	; 0x60
 80020be:	68ba      	ldr	r2, [r7, #8]
 80020c0:	697b      	ldr	r3, [r7, #20]
 80020c2:	4413      	add	r3, r2
 80020c4:	60bb      	str	r3, [r7, #8]
 80020c6:	687a      	ldr	r2, [r7, #4]
 80020c8:	697b      	ldr	r3, [r7, #20]
 80020ca:	1ad3      	subs	r3, r2, r3
 80020cc:	607b      	str	r3, [r7, #4]
 80020ce:	68fb      	ldr	r3, [r7, #12]
 80020d0:	6e1b      	ldr	r3, [r3, #96]	; 0x60
 80020d2:	2b40      	cmp	r3, #64	; 0x40
 80020d4:	d132      	bne.n	800213c <Sha256Update+0x10a>
 80020d6:	68fb      	ldr	r3, [r7, #12]
 80020d8:	f103 0020 	add.w	r0, r3, #32
 80020dc:	68fb      	ldr	r3, [r7, #12]
 80020de:	3320      	adds	r3, #32
 80020e0:	2240      	movs	r2, #64	; 0x40
 80020e2:	4619      	mov	r1, r3
 80020e4:	f7ff fa97 	bl	8001616 <ByteReverseWords>
 80020e8:	69b9      	ldr	r1, [r7, #24]
 80020ea:	68f8      	ldr	r0, [r7, #12]
 80020ec:	f7ff fb30 	bl	8001750 <Transform_Sha256>
 80020f0:	61f8      	str	r0, [r7, #28]
 80020f2:	69fb      	ldr	r3, [r7, #28]
 80020f4:	2b00      	cmp	r3, #0
 80020f6:	d103      	bne.n	8002100 <Sha256Update+0xce>
 80020f8:	68fb      	ldr	r3, [r7, #12]
 80020fa:	2200      	movs	r2, #0
 80020fc:	661a      	str	r2, [r3, #96]	; 0x60
 80020fe:	e01d      	b.n	800213c <Sha256Update+0x10a>
 8002100:	2300      	movs	r3, #0
 8002102:	607b      	str	r3, [r7, #4]
 8002104:	e01a      	b.n	800213c <Sha256Update+0x10a>
 8002106:	68fb      	ldr	r3, [r7, #12]
 8002108:	3320      	adds	r3, #32
 800210a:	613b      	str	r3, [r7, #16]
 800210c:	2240      	movs	r2, #64	; 0x40
 800210e:	68b9      	ldr	r1, [r7, #8]
 8002110:	6938      	ldr	r0, [r7, #16]
 8002112:	f7fe fc06 	bl	8000922 <memcpy>
 8002116:	68bb      	ldr	r3, [r7, #8]
 8002118:	3340      	adds	r3, #64	; 0x40
 800211a:	60bb      	str	r3, [r7, #8]
 800211c:	687b      	ldr	r3, [r7, #4]
 800211e:	3b40      	subs	r3, #64	; 0x40
 8002120:	607b      	str	r3, [r7, #4]
 8002122:	2240      	movs	r2, #64	; 0x40
 8002124:	6939      	ldr	r1, [r7, #16]
 8002126:	6938      	ldr	r0, [r7, #16]
 8002128:	f7ff fa75 	bl	8001616 <ByteReverseWords>
 800212c:	6939      	ldr	r1, [r7, #16]
 800212e:	68f8      	ldr	r0, [r7, #12]
 8002130:	f7ff fb0e 	bl	8001750 <Transform_Sha256>
 8002134:	61f8      	str	r0, [r7, #28]
 8002136:	69fb      	ldr	r3, [r7, #28]
 8002138:	2b00      	cmp	r3, #0
 800213a:	d103      	bne.n	8002144 <Sha256Update+0x112>
 800213c:	687b      	ldr	r3, [r7, #4]
 800213e:	2b3f      	cmp	r3, #63	; 0x3f
 8002140:	d8e1      	bhi.n	8002106 <Sha256Update+0xd4>
 8002142:	e000      	b.n	8002146 <Sha256Update+0x114>
 8002144:	bf00      	nop
 8002146:	69fb      	ldr	r3, [r7, #28]
 8002148:	2b00      	cmp	r3, #0
 800214a:	d10a      	bne.n	8002162 <Sha256Update+0x130>
 800214c:	687b      	ldr	r3, [r7, #4]
 800214e:	2b00      	cmp	r3, #0
 8002150:	d007      	beq.n	8002162 <Sha256Update+0x130>
 8002152:	687a      	ldr	r2, [r7, #4]
 8002154:	68b9      	ldr	r1, [r7, #8]
 8002156:	69b8      	ldr	r0, [r7, #24]
 8002158:	f7fe fbe3 	bl	8000922 <memcpy>
 800215c:	68fb      	ldr	r3, [r7, #12]
 800215e:	687a      	ldr	r2, [r7, #4]
 8002160:	661a      	str	r2, [r3, #96]	; 0x60
 8002162:	69fb      	ldr	r3, [r7, #28]
 8002164:	4618      	mov	r0, r3
 8002166:	3720      	adds	r7, #32
 8002168:	46bd      	mov	sp, r7
 800216a:	bd80      	pop	{r7, pc}

0800216c <wc_Sha256Update>:
 800216c:	b580      	push	{r7, lr}
 800216e:	b084      	sub	sp, #16
 8002170:	af00      	add	r7, sp, #0
 8002172:	60f8      	str	r0, [r7, #12]
 8002174:	60b9      	str	r1, [r7, #8]
 8002176:	607a      	str	r2, [r7, #4]
 8002178:	68fb      	ldr	r3, [r7, #12]
 800217a:	2b00      	cmp	r3, #0
 800217c:	d005      	beq.n	800218a <wc_Sha256Update+0x1e>
 800217e:	68bb      	ldr	r3, [r7, #8]
 8002180:	2b00      	cmp	r3, #0
 8002182:	d105      	bne.n	8002190 <wc_Sha256Update+0x24>
 8002184:	687b      	ldr	r3, [r7, #4]
 8002186:	2b00      	cmp	r3, #0
 8002188:	d002      	beq.n	8002190 <wc_Sha256Update+0x24>
 800218a:	f06f 03ac 	mvn.w	r3, #172	; 0xac
 800218e:	e00d      	b.n	80021ac <wc_Sha256Update+0x40>
 8002190:	68bb      	ldr	r3, [r7, #8]
 8002192:	2b00      	cmp	r3, #0
 8002194:	d104      	bne.n	80021a0 <wc_Sha256Update+0x34>
 8002196:	687b      	ldr	r3, [r7, #4]
 8002198:	2b00      	cmp	r3, #0
 800219a:	d101      	bne.n	80021a0 <wc_Sha256Update+0x34>
 800219c:	2300      	movs	r3, #0
 800219e:	e005      	b.n	80021ac <wc_Sha256Update+0x40>
 80021a0:	687a      	ldr	r2, [r7, #4]
 80021a2:	68b9      	ldr	r1, [r7, #8]
 80021a4:	68f8      	ldr	r0, [r7, #12]
 80021a6:	f7ff ff44 	bl	8002032 <Sha256Update>
 80021aa:	4603      	mov	r3, r0
 80021ac:	4618      	mov	r0, r3
 80021ae:	3710      	adds	r7, #16
 80021b0:	46bd      	mov	sp, r7
 80021b2:	bd80      	pop	{r7, pc}

080021b4 <Sha256Final>:
 80021b4:	b580      	push	{r7, lr}
 80021b6:	b084      	sub	sp, #16
 80021b8:	af00      	add	r7, sp, #0
 80021ba:	6078      	str	r0, [r7, #4]
 80021bc:	687b      	ldr	r3, [r7, #4]
 80021be:	2b00      	cmp	r3, #0
 80021c0:	d102      	bne.n	80021c8 <Sha256Final+0x14>
 80021c2:	f06f 03ac 	mvn.w	r3, #172	; 0xac
 80021c6:	e06f      	b.n	80022a8 <Sha256Final+0xf4>
 80021c8:	687b      	ldr	r3, [r7, #4]
 80021ca:	3320      	adds	r3, #32
 80021cc:	60fb      	str	r3, [r7, #12]
 80021ce:	687b      	ldr	r3, [r7, #4]
 80021d0:	6e1b      	ldr	r3, [r3, #96]	; 0x60
 80021d2:	1c59      	adds	r1, r3, #1
 80021d4:	687a      	ldr	r2, [r7, #4]
 80021d6:	6611      	str	r1, [r2, #96]	; 0x60
 80021d8:	68fa      	ldr	r2, [r7, #12]
 80021da:	4413      	add	r3, r2
 80021dc:	2280      	movs	r2, #128	; 0x80
 80021de:	701a      	strb	r2, [r3, #0]
 80021e0:	687b      	ldr	r3, [r7, #4]
 80021e2:	6e1b      	ldr	r3, [r3, #96]	; 0x60
 80021e4:	2b38      	cmp	r3, #56	; 0x38
 80021e6:	d924      	bls.n	8002232 <Sha256Final+0x7e>
 80021e8:	687b      	ldr	r3, [r7, #4]
 80021ea:	6e1b      	ldr	r3, [r3, #96]	; 0x60
 80021ec:	68fa      	ldr	r2, [r7, #12]
 80021ee:	18d0      	adds	r0, r2, r3
 80021f0:	687b      	ldr	r3, [r7, #4]
 80021f2:	6e1b      	ldr	r3, [r3, #96]	; 0x60
 80021f4:	f1c3 0340 	rsb	r3, r3, #64	; 0x40
 80021f8:	461a      	mov	r2, r3
 80021fa:	2100      	movs	r1, #0
 80021fc:	f7fe fb61 	bl	80008c2 <memset>
 8002200:	687b      	ldr	r3, [r7, #4]
 8002202:	2240      	movs	r2, #64	; 0x40
 8002204:	661a      	str	r2, [r3, #96]	; 0x60
 8002206:	687b      	ldr	r3, [r7, #4]
 8002208:	f103 0020 	add.w	r0, r3, #32
 800220c:	687b      	ldr	r3, [r7, #4]
 800220e:	3320      	adds	r3, #32
 8002210:	2240      	movs	r2, #64	; 0x40
 8002212:	4619      	mov	r1, r3
 8002214:	f7ff f9ff 	bl	8001616 <ByteReverseWords>
 8002218:	68f9      	ldr	r1, [r7, #12]
 800221a:	6878      	ldr	r0, [r7, #4]
 800221c:	f7ff fa98 	bl	8001750 <Transform_Sha256>
 8002220:	60b8      	str	r0, [r7, #8]
 8002222:	68bb      	ldr	r3, [r7, #8]
 8002224:	2b00      	cmp	r3, #0
 8002226:	d001      	beq.n	800222c <Sha256Final+0x78>
 8002228:	68bb      	ldr	r3, [r7, #8]
 800222a:	e03d      	b.n	80022a8 <Sha256Final+0xf4>
 800222c:	687b      	ldr	r3, [r7, #4]
 800222e:	2200      	movs	r2, #0
 8002230:	661a      	str	r2, [r3, #96]	; 0x60
 8002232:	687b      	ldr	r3, [r7, #4]
 8002234:	6e1b      	ldr	r3, [r3, #96]	; 0x60
 8002236:	68fa      	ldr	r2, [r7, #12]
 8002238:	18d0      	adds	r0, r2, r3
 800223a:	687b      	ldr	r3, [r7, #4]
 800223c:	6e1b      	ldr	r3, [r3, #96]	; 0x60
 800223e:	f1c3 0338 	rsb	r3, r3, #56	; 0x38
 8002242:	461a      	mov	r2, r3
 8002244:	2100      	movs	r1, #0
 8002246:	f7fe fb3c 	bl	80008c2 <memset>
 800224a:	687b      	ldr	r3, [r7, #4]
 800224c:	6e5b      	ldr	r3, [r3, #100]	; 0x64
 800224e:	0f5a      	lsrs	r2, r3, #29
 8002250:	687b      	ldr	r3, [r7, #4]
 8002252:	6e9b      	ldr	r3, [r3, #104]	; 0x68
 8002254:	00db      	lsls	r3, r3, #3
 8002256:	441a      	add	r2, r3
 8002258:	687b      	ldr	r3, [r7, #4]
 800225a:	669a      	str	r2, [r3, #104]	; 0x68
 800225c:	687b      	ldr	r3, [r7, #4]
 800225e:	6e5b      	ldr	r3, [r3, #100]	; 0x64
 8002260:	00da      	lsls	r2, r3, #3
 8002262:	687b      	ldr	r3, [r7, #4]
 8002264:	665a      	str	r2, [r3, #100]	; 0x64
 8002266:	687b      	ldr	r3, [r7, #4]
 8002268:	f103 0020 	add.w	r0, r3, #32
 800226c:	687b      	ldr	r3, [r7, #4]
 800226e:	3320      	adds	r3, #32
 8002270:	2240      	movs	r2, #64	; 0x40
 8002272:	4619      	mov	r1, r3
 8002274:	f7ff f9cf 	bl	8001616 <ByteReverseWords>
 8002278:	68fb      	ldr	r3, [r7, #12]
 800227a:	f103 0038 	add.w	r0, r3, #56	; 0x38
 800227e:	687b      	ldr	r3, [r7, #4]
 8002280:	3368      	adds	r3, #104	; 0x68
 8002282:	2204      	movs	r2, #4
 8002284:	4619      	mov	r1, r3
 8002286:	f7fe fb4c 	bl	8000922 <memcpy>
 800228a:	68fb      	ldr	r3, [r7, #12]
 800228c:	f103 003c 	add.w	r0, r3, #60	; 0x3c
 8002290:	687b      	ldr	r3, [r7, #4]
 8002292:	3364      	adds	r3, #100	; 0x64
 8002294:	2204      	movs	r2, #4
 8002296:	4619      	mov	r1, r3
 8002298:	f7fe fb43 	bl	8000922 <memcpy>
 800229c:	68f9      	ldr	r1, [r7, #12]
 800229e:	6878      	ldr	r0, [r7, #4]
 80022a0:	f7ff fa56 	bl	8001750 <Transform_Sha256>
 80022a4:	60b8      	str	r0, [r7, #8]
 80022a6:	68bb      	ldr	r3, [r7, #8]
 80022a8:	4618      	mov	r0, r3
 80022aa:	3710      	adds	r7, #16
 80022ac:	46bd      	mov	sp, r7
 80022ae:	bd80      	pop	{r7, pc}

080022b0 <wc_Sha256Final>:
 80022b0:	b580      	push	{r7, lr}
 80022b2:	b084      	sub	sp, #16
 80022b4:	af00      	add	r7, sp, #0
 80022b6:	6078      	str	r0, [r7, #4]
 80022b8:	6039      	str	r1, [r7, #0]
 80022ba:	687b      	ldr	r3, [r7, #4]
 80022bc:	2b00      	cmp	r3, #0
 80022be:	d002      	beq.n	80022c6 <wc_Sha256Final+0x16>
 80022c0:	683b      	ldr	r3, [r7, #0]
 80022c2:	2b00      	cmp	r3, #0
 80022c4:	d102      	bne.n	80022cc <wc_Sha256Final+0x1c>
 80022c6:	f06f 03ac 	mvn.w	r3, #172	; 0xac
 80022ca:	e018      	b.n	80022fe <wc_Sha256Final+0x4e>
 80022cc:	6878      	ldr	r0, [r7, #4]
 80022ce:	f7ff ff71 	bl	80021b4 <Sha256Final>
 80022d2:	60f8      	str	r0, [r7, #12]
 80022d4:	68fb      	ldr	r3, [r7, #12]
 80022d6:	2b00      	cmp	r3, #0
 80022d8:	d001      	beq.n	80022de <wc_Sha256Final+0x2e>
 80022da:	68fb      	ldr	r3, [r7, #12]
 80022dc:	e00f      	b.n	80022fe <wc_Sha256Final+0x4e>
 80022de:	687b      	ldr	r3, [r7, #4]
 80022e0:	6879      	ldr	r1, [r7, #4]
 80022e2:	2220      	movs	r2, #32
 80022e4:	4618      	mov	r0, r3
 80022e6:	f7ff f996 	bl	8001616 <ByteReverseWords>
 80022ea:	687b      	ldr	r3, [r7, #4]
 80022ec:	2220      	movs	r2, #32
 80022ee:	4619      	mov	r1, r3
 80022f0:	6838      	ldr	r0, [r7, #0]
 80022f2:	f7fe fb16 	bl	8000922 <memcpy>
 80022f6:	6878      	ldr	r0, [r7, #4]
 80022f8:	f7ff f9c2 	bl	8001680 <InitSha256>
 80022fc:	4603      	mov	r3, r0
 80022fe:	4618      	mov	r0, r3
 8002300:	3710      	adds	r7, #16
 8002302:	46bd      	mov	sp, r7
 8002304:	bd80      	pop	{r7, pc}

08002306 <wc_InitSha256>:
 8002306:	b580      	push	{r7, lr}
 8002308:	b082      	sub	sp, #8
 800230a:	af00      	add	r7, sp, #0
 800230c:	6078      	str	r0, [r7, #4]
 800230e:	f06f 0201 	mvn.w	r2, #1
 8002312:	2100      	movs	r1, #0
 8002314:	6878      	ldr	r0, [r7, #4]
 8002316:	f7ff f9fb 	bl	8001710 <wc_InitSha256_ex>
 800231a:	4603      	mov	r3, r0
 800231c:	4618      	mov	r0, r3
 800231e:	3708      	adds	r7, #8
 8002320:	46bd      	mov	sp, r7
 8002322:	bd80      	pop	{r7, pc}

08002324 <_sp_zero>:
 8002324:	b480      	push	{r7}
 8002326:	b083      	sub	sp, #12
 8002328:	af00      	add	r7, sp, #0
 800232a:	6078      	str	r0, [r7, #4]
 800232c:	687b      	ldr	r3, [r7, #4]
 800232e:	2200      	movs	r2, #0
 8002330:	601a      	str	r2, [r3, #0]
 8002332:	bf00      	nop
 8002334:	370c      	adds	r7, #12
 8002336:	46bd      	mov	sp, r7
 8002338:	bc80      	pop	{r7}
 800233a:	4770      	bx	lr

0800233c <sp_init>:
 800233c:	b580      	push	{r7, lr}
 800233e:	b084      	sub	sp, #16
 8002340:	af00      	add	r7, sp, #0
 8002342:	6078      	str	r0, [r7, #4]
 8002344:	2300      	movs	r3, #0
 8002346:	60fb      	str	r3, [r7, #12]
 8002348:	687b      	ldr	r3, [r7, #4]
 800234a:	2b00      	cmp	r3, #0
 800234c:	d102      	bne.n	8002354 <sp_init+0x18>
 800234e:	f06f 0302 	mvn.w	r3, #2
 8002352:	60fb      	str	r3, [r7, #12]
 8002354:	68fb      	ldr	r3, [r7, #12]
 8002356:	2b00      	cmp	r3, #0
 8002358:	d105      	bne.n	8002366 <sp_init+0x2a>
 800235a:	6878      	ldr	r0, [r7, #4]
 800235c:	f7ff ffe2 	bl	8002324 <_sp_zero>
 8002360:	687b      	ldr	r3, [r7, #4]
 8002362:	2212      	movs	r2, #18
 8002364:	605a      	str	r2, [r3, #4]
 8002366:	68fb      	ldr	r3, [r7, #12]
 8002368:	4618      	mov	r0, r3
 800236a:	3710      	adds	r7, #16
 800236c:	46bd      	mov	sp, r7
 800236e:	bd80      	pop	{r7, pc}

08002370 <sp_init_multi>:
 8002370:	b580      	push	{r7, lr}
 8002372:	b084      	sub	sp, #16
 8002374:	af00      	add	r7, sp, #0
 8002376:	60f8      	str	r0, [r7, #12]
 8002378:	60b9      	str	r1, [r7, #8]
 800237a:	607a      	str	r2, [r7, #4]
 800237c:	603b      	str	r3, [r7, #0]
 800237e:	68fb      	ldr	r3, [r7, #12]
 8002380:	2b00      	cmp	r3, #0
 8002382:	d008      	beq.n	8002396 <sp_init_multi+0x26>
 8002384:	68f8      	ldr	r0, [r7, #12]
 8002386:	f7ff ffcd 	bl	8002324 <_sp_zero>
 800238a:	68fb      	ldr	r3, [r7, #12]
 800238c:	2200      	movs	r2, #0
 800238e:	609a      	str	r2, [r3, #8]
 8002390:	68fb      	ldr	r3, [r7, #12]
 8002392:	2212      	movs	r2, #18
 8002394:	605a      	str	r2, [r3, #4]
 8002396:	68bb      	ldr	r3, [r7, #8]
 8002398:	2b00      	cmp	r3, #0
 800239a:	d008      	beq.n	80023ae <sp_init_multi+0x3e>
 800239c:	68b8      	ldr	r0, [r7, #8]
 800239e:	f7ff ffc1 	bl	8002324 <_sp_zero>
 80023a2:	68bb      	ldr	r3, [r7, #8]
 80023a4:	2200      	movs	r2, #0
 80023a6:	609a      	str	r2, [r3, #8]
 80023a8:	68bb      	ldr	r3, [r7, #8]
 80023aa:	2212      	movs	r2, #18
 80023ac:	605a      	str	r2, [r3, #4]
 80023ae:	687b      	ldr	r3, [r7, #4]
 80023b0:	2b00      	cmp	r3, #0
 80023b2:	d008      	beq.n	80023c6 <sp_init_multi+0x56>
 80023b4:	6878      	ldr	r0, [r7, #4]
 80023b6:	f7ff ffb5 	bl	8002324 <_sp_zero>
 80023ba:	687b      	ldr	r3, [r7, #4]
 80023bc:	2200      	movs	r2, #0
 80023be:	609a      	str	r2, [r3, #8]
 80023c0:	687b      	ldr	r3, [r7, #4]
 80023c2:	2212      	movs	r2, #18
 80023c4:	605a      	str	r2, [r3, #4]
 80023c6:	683b      	ldr	r3, [r7, #0]
 80023c8:	2b00      	cmp	r3, #0
 80023ca:	d008      	beq.n	80023de <sp_init_multi+0x6e>
 80023cc:	6838      	ldr	r0, [r7, #0]
 80023ce:	f7ff ffa9 	bl	8002324 <_sp_zero>
 80023d2:	683b      	ldr	r3, [r7, #0]
 80023d4:	2200      	movs	r2, #0
 80023d6:	609a      	str	r2, [r3, #8]
 80023d8:	683b      	ldr	r3, [r7, #0]
 80023da:	2212      	movs	r2, #18
 80023dc:	605a      	str	r2, [r3, #4]
 80023de:	69bb      	ldr	r3, [r7, #24]
 80023e0:	2b00      	cmp	r3, #0
 80023e2:	d008      	beq.n	80023f6 <sp_init_multi+0x86>
 80023e4:	69b8      	ldr	r0, [r7, #24]
 80023e6:	f7ff ff9d 	bl	8002324 <_sp_zero>
 80023ea:	69bb      	ldr	r3, [r7, #24]
 80023ec:	2200      	movs	r2, #0
 80023ee:	609a      	str	r2, [r3, #8]
 80023f0:	69bb      	ldr	r3, [r7, #24]
 80023f2:	2212      	movs	r2, #18
 80023f4:	605a      	str	r2, [r3, #4]
 80023f6:	69fb      	ldr	r3, [r7, #28]
 80023f8:	2b00      	cmp	r3, #0
 80023fa:	d008      	beq.n	800240e <sp_init_multi+0x9e>
 80023fc:	69f8      	ldr	r0, [r7, #28]
 80023fe:	f7ff ff91 	bl	8002324 <_sp_zero>
 8002402:	69fb      	ldr	r3, [r7, #28]
 8002404:	2200      	movs	r2, #0
 8002406:	609a      	str	r2, [r3, #8]
 8002408:	69fb      	ldr	r3, [r7, #28]
 800240a:	2212      	movs	r2, #18
 800240c:	605a      	str	r2, [r3, #4]
 800240e:	2300      	movs	r3, #0
 8002410:	4618      	mov	r0, r3
 8002412:	3710      	adds	r7, #16
 8002414:	46bd      	mov	sp, r7
 8002416:	bd80      	pop	{r7, pc}

08002418 <sp_grow>:
 8002418:	b480      	push	{r7}
 800241a:	b085      	sub	sp, #20
 800241c:	af00      	add	r7, sp, #0
 800241e:	6078      	str	r0, [r7, #4]
 8002420:	6039      	str	r1, [r7, #0]
 8002422:	2300      	movs	r3, #0
 8002424:	60fb      	str	r3, [r7, #12]
 8002426:	687b      	ldr	r3, [r7, #4]
 8002428:	2b00      	cmp	r3, #0
 800242a:	d102      	bne.n	8002432 <sp_grow+0x1a>
 800242c:	f06f 0302 	mvn.w	r3, #2
 8002430:	60fb      	str	r3, [r7, #12]
 8002432:	68fb      	ldr	r3, [r7, #12]
 8002434:	2b00      	cmp	r3, #0
 8002436:	d107      	bne.n	8002448 <sp_grow+0x30>
 8002438:	687b      	ldr	r3, [r7, #4]
 800243a:	685b      	ldr	r3, [r3, #4]
 800243c:	683a      	ldr	r2, [r7, #0]
 800243e:	429a      	cmp	r2, r3
 8002440:	dd02      	ble.n	8002448 <sp_grow+0x30>
 8002442:	f06f 0301 	mvn.w	r3, #1
 8002446:	60fb      	str	r3, [r7, #12]
 8002448:	68fb      	ldr	r3, [r7, #12]
 800244a:	2b00      	cmp	r3, #0
 800244c:	d110      	bne.n	8002470 <sp_grow+0x58>
 800244e:	687b      	ldr	r3, [r7, #4]
 8002450:	681b      	ldr	r3, [r3, #0]
 8002452:	60bb      	str	r3, [r7, #8]
 8002454:	e008      	b.n	8002468 <sp_grow+0x50>
 8002456:	687b      	ldr	r3, [r7, #4]
 8002458:	68ba      	ldr	r2, [r7, #8]
 800245a:	3202      	adds	r2, #2
 800245c:	2100      	movs	r1, #0
 800245e:	f843 1022 	str.w	r1, [r3, r2, lsl #2]
 8002462:	68bb      	ldr	r3, [r7, #8]
 8002464:	3301      	adds	r3, #1
 8002466:	60bb      	str	r3, [r7, #8]
 8002468:	68ba      	ldr	r2, [r7, #8]
 800246a:	683b      	ldr	r3, [r7, #0]
 800246c:	429a      	cmp	r2, r3
 800246e:	dbf2      	blt.n	8002456 <sp_grow+0x3e>
 8002470:	68fb      	ldr	r3, [r7, #12]
 8002472:	4618      	mov	r0, r3
 8002474:	3714      	adds	r7, #20
 8002476:	46bd      	mov	sp, r7
 8002478:	bc80      	pop	{r7}
 800247a:	4770      	bx	lr

0800247c <sp_clear>:
 800247c:	b580      	push	{r7, lr}
 800247e:	b084      	sub	sp, #16
 8002480:	af00      	add	r7, sp, #0
 8002482:	6078      	str	r0, [r7, #4]
 8002484:	687b      	ldr	r3, [r7, #4]
 8002486:	2b00      	cmp	r3, #0
 8002488:	d013      	beq.n	80024b2 <sp_clear+0x36>
 800248a:	2300      	movs	r3, #0
 800248c:	60fb      	str	r3, [r7, #12]
 800248e:	e008      	b.n	80024a2 <sp_clear+0x26>
 8002490:	687b      	ldr	r3, [r7, #4]
 8002492:	68fa      	ldr	r2, [r7, #12]
 8002494:	3202      	adds	r2, #2
 8002496:	2100      	movs	r1, #0
 8002498:	f843 1022 	str.w	r1, [r3, r2, lsl #2]
 800249c:	68fb      	ldr	r3, [r7, #12]
 800249e:	3301      	adds	r3, #1
 80024a0:	60fb      	str	r3, [r7, #12]
 80024a2:	687b      	ldr	r3, [r7, #4]
 80024a4:	681b      	ldr	r3, [r3, #0]
 80024a6:	68fa      	ldr	r2, [r7, #12]
 80024a8:	429a      	cmp	r2, r3
 80024aa:	dbf1      	blt.n	8002490 <sp_clear+0x14>
 80024ac:	6878      	ldr	r0, [r7, #4]
 80024ae:	f7ff ff39 	bl	8002324 <_sp_zero>
 80024b2:	bf00      	nop
 80024b4:	3710      	adds	r7, #16
 80024b6:	46bd      	mov	sp, r7
 80024b8:	bd80      	pop	{r7, pc}

080024ba <_sp_cmp_abs>:
 80024ba:	b480      	push	{r7}
 80024bc:	b085      	sub	sp, #20
 80024be:	af00      	add	r7, sp, #0
 80024c0:	6078      	str	r0, [r7, #4]
 80024c2:	6039      	str	r1, [r7, #0]
 80024c4:	2300      	movs	r3, #0
 80024c6:	60fb      	str	r3, [r7, #12]
 80024c8:	687b      	ldr	r3, [r7, #4]
 80024ca:	681a      	ldr	r2, [r3, #0]
 80024cc:	683b      	ldr	r3, [r7, #0]
 80024ce:	681b      	ldr	r3, [r3, #0]
 80024d0:	429a      	cmp	r2, r3
 80024d2:	dd02      	ble.n	80024da <_sp_cmp_abs+0x20>
 80024d4:	2301      	movs	r3, #1
 80024d6:	60fb      	str	r3, [r7, #12]
 80024d8:	e033      	b.n	8002542 <_sp_cmp_abs+0x88>
 80024da:	687b      	ldr	r3, [r7, #4]
 80024dc:	681a      	ldr	r2, [r3, #0]
 80024de:	683b      	ldr	r3, [r7, #0]
 80024e0:	681b      	ldr	r3, [r3, #0]
 80024e2:	429a      	cmp	r2, r3
 80024e4:	da03      	bge.n	80024ee <_sp_cmp_abs+0x34>
 80024e6:	f04f 33ff 	mov.w	r3, #4294967295	; 0xffffffff
 80024ea:	60fb      	str	r3, [r7, #12]
 80024ec:	e029      	b.n	8002542 <_sp_cmp_abs+0x88>
 80024ee:	687b      	ldr	r3, [r7, #4]
 80024f0:	681b      	ldr	r3, [r3, #0]
 80024f2:	3b01      	subs	r3, #1
 80024f4:	60bb      	str	r3, [r7, #8]
 80024f6:	e021      	b.n	800253c <_sp_cmp_abs+0x82>
 80024f8:	687b      	ldr	r3, [r7, #4]
 80024fa:	68ba      	ldr	r2, [r7, #8]
 80024fc:	3202      	adds	r2, #2
 80024fe:	f853 2022 	ldr.w	r2, [r3, r2, lsl #2]
 8002502:	683b      	ldr	r3, [r7, #0]
 8002504:	68b9      	ldr	r1, [r7, #8]
 8002506:	3102      	adds	r1, #2
 8002508:	f853 3021 	ldr.w	r3, [r3, r1, lsl #2]
 800250c:	429a      	cmp	r2, r3
 800250e:	d902      	bls.n	8002516 <_sp_cmp_abs+0x5c>
 8002510:	2301      	movs	r3, #1
 8002512:	60fb      	str	r3, [r7, #12]
 8002514:	e015      	b.n	8002542 <_sp_cmp_abs+0x88>
 8002516:	687b      	ldr	r3, [r7, #4]
 8002518:	68ba      	ldr	r2, [r7, #8]
 800251a:	3202      	adds	r2, #2
 800251c:	f853 2022 	ldr.w	r2, [r3, r2, lsl #2]
 8002520:	683b      	ldr	r3, [r7, #0]
 8002522:	68b9      	ldr	r1, [r7, #8]
 8002524:	3102      	adds	r1, #2
 8002526:	f853 3021 	ldr.w	r3, [r3, r1, lsl #2]
 800252a:	429a      	cmp	r2, r3
 800252c:	d203      	bcs.n	8002536 <_sp_cmp_abs+0x7c>
 800252e:	f04f 33ff 	mov.w	r3, #4294967295	; 0xffffffff
 8002532:	60fb      	str	r3, [r7, #12]
 8002534:	e005      	b.n	8002542 <_sp_cmp_abs+0x88>
 8002536:	68bb      	ldr	r3, [r7, #8]
 8002538:	3b01      	subs	r3, #1
 800253a:	60bb      	str	r3, [r7, #8]
 800253c:	68bb      	ldr	r3, [r7, #8]
 800253e:	2b00      	cmp	r3, #0
 8002540:	dada      	bge.n	80024f8 <_sp_cmp_abs+0x3e>
 8002542:	68fb      	ldr	r3, [r7, #12]
 8002544:	4618      	mov	r0, r3
 8002546:	3714      	adds	r7, #20
 8002548:	46bd      	mov	sp, r7
 800254a:	bc80      	pop	{r7}
 800254c:	4770      	bx	lr

0800254e <_sp_cmp>:
 800254e:	b580      	push	{r7, lr}
 8002550:	b084      	sub	sp, #16
 8002552:	af00      	add	r7, sp, #0
 8002554:	6078      	str	r0, [r7, #4]
 8002556:	6039      	str	r1, [r7, #0]
 8002558:	6839      	ldr	r1, [r7, #0]
 800255a:	6878      	ldr	r0, [r7, #4]
 800255c:	f7ff ffad 	bl	80024ba <_sp_cmp_abs>
 8002560:	60f8      	str	r0, [r7, #12]
 8002562:	68fb      	ldr	r3, [r7, #12]
 8002564:	4618      	mov	r0, r3
 8002566:	3710      	adds	r7, #16
 8002568:	46bd      	mov	sp, r7
 800256a:	bd80      	pop	{r7, pc}

0800256c <sp_cmp>:
 800256c:	b580      	push	{r7, lr}
 800256e:	b084      	sub	sp, #16
 8002570:	af00      	add	r7, sp, #0
 8002572:	6078      	str	r0, [r7, #4]
 8002574:	6039      	str	r1, [r7, #0]
 8002576:	687a      	ldr	r2, [r7, #4]
 8002578:	683b      	ldr	r3, [r7, #0]
 800257a:	429a      	cmp	r2, r3
 800257c:	d102      	bne.n	8002584 <sp_cmp+0x18>
 800257e:	2300      	movs	r3, #0
 8002580:	60fb      	str	r3, [r7, #12]
 8002582:	e011      	b.n	80025a8 <sp_cmp+0x3c>
 8002584:	687b      	ldr	r3, [r7, #4]
 8002586:	2b00      	cmp	r3, #0
 8002588:	d103      	bne.n	8002592 <sp_cmp+0x26>
 800258a:	f04f 33ff 	mov.w	r3, #4294967295	; 0xffffffff
 800258e:	60fb      	str	r3, [r7, #12]
 8002590:	e00a      	b.n	80025a8 <sp_cmp+0x3c>
 8002592:	683b      	ldr	r3, [r7, #0]
 8002594:	2b00      	cmp	r3, #0
 8002596:	d102      	bne.n	800259e <sp_cmp+0x32>
 8002598:	2301      	movs	r3, #1
 800259a:	60fb      	str	r3, [r7, #12]
 800259c:	e004      	b.n	80025a8 <sp_cmp+0x3c>
 800259e:	6839      	ldr	r1, [r7, #0]
 80025a0:	6878      	ldr	r0, [r7, #4]
 80025a2:	f7ff ffd4 	bl	800254e <_sp_cmp>
 80025a6:	60f8      	str	r0, [r7, #12]
 80025a8:	68fb      	ldr	r3, [r7, #12]
 80025aa:	4618      	mov	r0, r3
 80025ac:	3710      	adds	r7, #16
 80025ae:	46bd      	mov	sp, r7
 80025b0:	bd80      	pop	{r7, pc}

080025b2 <sp_set>:
 80025b2:	b480      	push	{r7}
 80025b4:	b085      	sub	sp, #20
 80025b6:	af00      	add	r7, sp, #0
 80025b8:	6078      	str	r0, [r7, #4]
 80025ba:	6039      	str	r1, [r7, #0]
 80025bc:	2300      	movs	r3, #0
 80025be:	60fb      	str	r3, [r7, #12]
 80025c0:	687b      	ldr	r3, [r7, #4]
 80025c2:	2b00      	cmp	r3, #0
 80025c4:	d102      	bne.n	80025cc <sp_set+0x1a>
 80025c6:	f06f 0302 	mvn.w	r3, #2
 80025ca:	60fb      	str	r3, [r7, #12]
 80025cc:	68fb      	ldr	r3, [r7, #12]
 80025ce:	2b00      	cmp	r3, #0
 80025d0:	d10b      	bne.n	80025ea <sp_set+0x38>
 80025d2:	687b      	ldr	r3, [r7, #4]
 80025d4:	683a      	ldr	r2, [r7, #0]
 80025d6:	609a      	str	r2, [r3, #8]
 80025d8:	683b      	ldr	r3, [r7, #0]
 80025da:	2b00      	cmp	r3, #0
 80025dc:	bf14      	ite	ne
 80025de:	2301      	movne	r3, #1
 80025e0:	2300      	moveq	r3, #0
 80025e2:	b2db      	uxtb	r3, r3
 80025e4:	461a      	mov	r2, r3
 80025e6:	687b      	ldr	r3, [r7, #4]
 80025e8:	601a      	str	r2, [r3, #0]
 80025ea:	68fb      	ldr	r3, [r7, #12]
 80025ec:	4618      	mov	r0, r3
 80025ee:	3714      	adds	r7, #20
 80025f0:	46bd      	mov	sp, r7
 80025f2:	bc80      	pop	{r7}
 80025f4:	4770      	bx	lr
	...

080025f8 <sp_read_unsigned_bin>:
 80025f8:	b480      	push	{r7}
 80025fa:	b08b      	sub	sp, #44	; 0x2c
 80025fc:	af00      	add	r7, sp, #0
 80025fe:	60f8      	str	r0, [r7, #12]
 8002600:	60b9      	str	r1, [r7, #8]
 8002602:	607a      	str	r2, [r7, #4]
 8002604:	2300      	movs	r3, #0
 8002606:	627b      	str	r3, [r7, #36]	; 0x24
 8002608:	68fb      	ldr	r3, [r7, #12]
 800260a:	2b00      	cmp	r3, #0
 800260c:	d005      	beq.n	800261a <sp_read_unsigned_bin+0x22>
 800260e:	68bb      	ldr	r3, [r7, #8]
 8002610:	2b00      	cmp	r3, #0
 8002612:	d105      	bne.n	8002620 <sp_read_unsigned_bin+0x28>
 8002614:	687b      	ldr	r3, [r7, #4]
 8002616:	2b00      	cmp	r3, #0
 8002618:	d002      	beq.n	8002620 <sp_read_unsigned_bin+0x28>
 800261a:	f06f 0302 	mvn.w	r3, #2
 800261e:	627b      	str	r3, [r7, #36]	; 0x24
 8002620:	6a7b      	ldr	r3, [r7, #36]	; 0x24
 8002622:	2b00      	cmp	r3, #0
 8002624:	d109      	bne.n	800263a <sp_read_unsigned_bin+0x42>
 8002626:	68fb      	ldr	r3, [r7, #12]
 8002628:	685b      	ldr	r3, [r3, #4]
 800262a:	3b01      	subs	r3, #1
 800262c:	009b      	lsls	r3, r3, #2
 800262e:	687a      	ldr	r2, [r7, #4]
 8002630:	429a      	cmp	r2, r3
 8002632:	d902      	bls.n	800263a <sp_read_unsigned_bin+0x42>
 8002634:	f06f 0302 	mvn.w	r3, #2
 8002638:	627b      	str	r3, [r7, #36]	; 0x24
 800263a:	6a7b      	ldr	r3, [r7, #36]	; 0x24
 800263c:	2b00      	cmp	r3, #0
 800263e:	f040 80ba 	bne.w	80027b6 <sp_read_unsigned_bin+0x1be>
 8002642:	687b      	ldr	r3, [r7, #4]
 8002644:	3303      	adds	r3, #3
 8002646:	089b      	lsrs	r3, r3, #2
 8002648:	461a      	mov	r2, r3
 800264a:	68fb      	ldr	r3, [r7, #12]
 800264c:	601a      	str	r2, [r3, #0]
 800264e:	687b      	ldr	r3, [r7, #4]
 8002650:	3b01      	subs	r3, #1
 8002652:	623b      	str	r3, [r7, #32]
 8002654:	2300      	movs	r3, #0
 8002656:	61fb      	str	r3, [r7, #28]
 8002658:	e03a      	b.n	80026d0 <sp_read_unsigned_bin+0xd8>
 800265a:	6a3b      	ldr	r3, [r7, #32]
 800265c:	68ba      	ldr	r2, [r7, #8]
 800265e:	4413      	add	r3, r2
 8002660:	781b      	ldrb	r3, [r3, #0]
 8002662:	4619      	mov	r1, r3
 8002664:	68fb      	ldr	r3, [r7, #12]
 8002666:	69fa      	ldr	r2, [r7, #28]
 8002668:	3202      	adds	r2, #2
 800266a:	f843 1022 	str.w	r1, [r3, r2, lsl #2]
 800266e:	68fb      	ldr	r3, [r7, #12]
 8002670:	69fa      	ldr	r2, [r7, #28]
 8002672:	3202      	adds	r2, #2
 8002674:	f853 2022 	ldr.w	r2, [r3, r2, lsl #2]
 8002678:	6a3b      	ldr	r3, [r7, #32]
 800267a:	3b01      	subs	r3, #1
 800267c:	68b9      	ldr	r1, [r7, #8]
 800267e:	440b      	add	r3, r1
 8002680:	781b      	ldrb	r3, [r3, #0]
 8002682:	021b      	lsls	r3, r3, #8
 8002684:	ea42 0103 	orr.w	r1, r2, r3
 8002688:	68fb      	ldr	r3, [r7, #12]
 800268a:	69fa      	ldr	r2, [r7, #28]
 800268c:	3202      	adds	r2, #2
 800268e:	f843 1022 	str.w	r1, [r3, r2, lsl #2]
 8002692:	68fb      	ldr	r3, [r7, #12]
 8002694:	69fa      	ldr	r2, [r7, #28]
 8002696:	3202      	adds	r2, #2
 8002698:	f853 2022 	ldr.w	r2, [r3, r2, lsl #2]
 800269c:	6a3b      	ldr	r3, [r7, #32]
 800269e:	3b02      	subs	r3, #2
 80026a0:	68b9      	ldr	r1, [r7, #8]
 80026a2:	440b      	add	r3, r1
 80026a4:	781b      	ldrb	r3, [r3, #0]
 80026a6:	0419      	lsls	r1, r3, #16
 80026a8:	6a3b      	ldr	r3, [r7, #32]
 80026aa:	3b03      	subs	r3, #3
 80026ac:	68b8      	ldr	r0, [r7, #8]
 80026ae:	4403      	add	r3, r0
 80026b0:	781b      	ldrb	r3, [r3, #0]
 80026b2:	061b      	lsls	r3, r3, #24
 80026b4:	430b      	orrs	r3, r1
 80026b6:	ea42 0103 	orr.w	r1, r2, r3
 80026ba:	68fb      	ldr	r3, [r7, #12]
 80026bc:	69fa      	ldr	r2, [r7, #28]
 80026be:	3202      	adds	r2, #2
 80026c0:	f843 1022 	str.w	r1, [r3, r2, lsl #2]
 80026c4:	69fb      	ldr	r3, [r7, #28]
 80026c6:	3301      	adds	r3, #1
 80026c8:	61fb      	str	r3, [r7, #28]
 80026ca:	6a3b      	ldr	r3, [r7, #32]
 80026cc:	3b04      	subs	r3, #4
 80026ce:	623b      	str	r3, [r7, #32]
 80026d0:	6a3b      	ldr	r3, [r7, #32]
 80026d2:	2b02      	cmp	r3, #2
 80026d4:	dcc1      	bgt.n	800265a <sp_read_unsigned_bin+0x62>
 80026d6:	68fb      	ldr	r3, [r7, #12]
 80026d8:	69fa      	ldr	r2, [r7, #28]
 80026da:	3202      	adds	r2, #2
 80026dc:	2100      	movs	r1, #0
 80026de:	f843 1022 	str.w	r1, [r3, r2, lsl #2]
 80026e2:	6a3b      	ldr	r3, [r7, #32]
 80026e4:	2b00      	cmp	r3, #0
 80026e6:	db50      	blt.n	800278a <sp_read_unsigned_bin+0x192>
 80026e8:	68fb      	ldr	r3, [r7, #12]
 80026ea:	3308      	adds	r3, #8
 80026ec:	617b      	str	r3, [r7, #20]
 80026ee:	68fb      	ldr	r3, [r7, #12]
 80026f0:	681b      	ldr	r3, [r3, #0]
 80026f2:	1e5a      	subs	r2, r3, #1
 80026f4:	68fb      	ldr	r3, [r7, #12]
 80026f6:	3202      	adds	r2, #2
 80026f8:	2100      	movs	r1, #0
 80026fa:	f843 1022 	str.w	r1, [r3, r2, lsl #2]
 80026fe:	6a3b      	ldr	r3, [r7, #32]
 8002700:	2b06      	cmp	r3, #6
 8002702:	d842      	bhi.n	800278a <sp_read_unsigned_bin+0x192>
 8002704:	a201      	add	r2, pc, #4	; (adr r2, 800270c <sp_read_unsigned_bin+0x114>)
 8002706:	f852 f023 	ldr.w	pc, [r2, r3, lsl #2]
 800270a:	bf00      	nop
 800270c:	0800277d 	.word	0x0800277d
 8002710:	0800276f 	.word	0x0800276f
 8002714:	08002761 	.word	0x08002761
 8002718:	08002753 	.word	0x08002753
 800271c:	08002745 	.word	0x08002745
 8002720:	08002737 	.word	0x08002737
 8002724:	08002729 	.word	0x08002729
 8002728:	687b      	ldr	r3, [r7, #4]
 800272a:	3b07      	subs	r3, #7
 800272c:	697a      	ldr	r2, [r7, #20]
 800272e:	4413      	add	r3, r2
 8002730:	68ba      	ldr	r2, [r7, #8]
 8002732:	7992      	ldrb	r2, [r2, #6]
 8002734:	701a      	strb	r2, [r3, #0]
 8002736:	687b      	ldr	r3, [r7, #4]
 8002738:	3b06      	subs	r3, #6
 800273a:	697a      	ldr	r2, [r7, #20]
 800273c:	4413      	add	r3, r2
 800273e:	68ba      	ldr	r2, [r7, #8]
 8002740:	7952      	ldrb	r2, [r2, #5]
 8002742:	701a      	strb	r2, [r3, #0]
 8002744:	687b      	ldr	r3, [r7, #4]
 8002746:	3b05      	subs	r3, #5
 8002748:	697a      	ldr	r2, [r7, #20]
 800274a:	4413      	add	r3, r2
 800274c:	68ba      	ldr	r2, [r7, #8]
 800274e:	7912      	ldrb	r2, [r2, #4]
 8002750:	701a      	strb	r2, [r3, #0]
 8002752:	687b      	ldr	r3, [r7, #4]
 8002754:	3b04      	subs	r3, #4
 8002756:	697a      	ldr	r2, [r7, #20]
 8002758:	4413      	add	r3, r2
 800275a:	68ba      	ldr	r2, [r7, #8]
 800275c:	78d2      	ldrb	r2, [r2, #3]
 800275e:	701a      	strb	r2, [r3, #0]
 8002760:	687b      	ldr	r3, [r7, #4]
 8002762:	3b03      	subs	r3, #3
 8002764:	697a      	ldr	r2, [r7, #20]
 8002766:	4413      	add	r3, r2
 8002768:	68ba      	ldr	r2, [r7, #8]
 800276a:	7892      	ldrb	r2, [r2, #2]
 800276c:	701a      	strb	r2, [r3, #0]
 800276e:	687b      	ldr	r3, [r7, #4]
 8002770:	3b02      	subs	r3, #2
 8002772:	697a      	ldr	r2, [r7, #20]
 8002774:	4413      	add	r3, r2
 8002776:	68ba      	ldr	r2, [r7, #8]
 8002778:	7852      	ldrb	r2, [r2, #1]
 800277a:	701a      	strb	r2, [r3, #0]
 800277c:	687b      	ldr	r3, [r7, #4]
 800277e:	3b01      	subs	r3, #1
 8002780:	697a      	ldr	r2, [r7, #20]
 8002782:	4413      	add	r3, r2
 8002784:	68ba      	ldr	r2, [r7, #8]
 8002786:	7812      	ldrb	r2, [r2, #0]
 8002788:	701a      	strb	r2, [r3, #0]
 800278a:	68fb      	ldr	r3, [r7, #12]
 800278c:	681b      	ldr	r3, [r3, #0]
 800278e:	3b01      	subs	r3, #1
 8002790:	61bb      	str	r3, [r7, #24]
 8002792:	e002      	b.n	800279a <sp_read_unsigned_bin+0x1a2>
 8002794:	69bb      	ldr	r3, [r7, #24]
 8002796:	3b01      	subs	r3, #1
 8002798:	61bb      	str	r3, [r7, #24]
 800279a:	69bb      	ldr	r3, [r7, #24]
 800279c:	2b00      	cmp	r3, #0
 800279e:	db06      	blt.n	80027ae <sp_read_unsigned_bin+0x1b6>
 80027a0:	68fb      	ldr	r3, [r7, #12]
 80027a2:	69ba      	ldr	r2, [r7, #24]
 80027a4:	3202      	adds	r2, #2
 80027a6:	f853 3022 	ldr.w	r3, [r3, r2, lsl #2]
 80027aa:	2b00      	cmp	r3, #0
 80027ac:	d0f2      	beq.n	8002794 <sp_read_unsigned_bin+0x19c>
 80027ae:	69bb      	ldr	r3, [r7, #24]
 80027b0:	1c5a      	adds	r2, r3, #1
 80027b2:	68fb      	ldr	r3, [r7, #12]
 80027b4:	601a      	str	r2, [r3, #0]
 80027b6:	6a7b      	ldr	r3, [r7, #36]	; 0x24
 80027b8:	4618      	mov	r0, r3
 80027ba:	372c      	adds	r7, #44	; 0x2c
 80027bc:	46bd      	mov	sp, r7
 80027be:	bc80      	pop	{r7}
 80027c0:	4770      	bx	lr
 80027c2:	bf00      	nop

080027c4 <_sp_read_radix_16>:
 80027c4:	b580      	push	{r7, lr}
 80027c6:	b088      	sub	sp, #32
 80027c8:	af00      	add	r7, sp, #0
 80027ca:	6078      	str	r0, [r7, #4]
 80027cc:	6039      	str	r1, [r7, #0]
 80027ce:	2300      	movs	r3, #0
 80027d0:	61fb      	str	r3, [r7, #28]
 80027d2:	2300      	movs	r3, #0
 80027d4:	617b      	str	r3, [r7, #20]
 80027d6:	2300      	movs	r3, #0
 80027d8:	613b      	str	r3, [r7, #16]
 80027da:	e002      	b.n	80027e2 <_sp_read_radix_16+0x1e>
 80027dc:	683b      	ldr	r3, [r7, #0]
 80027de:	3301      	adds	r3, #1
 80027e0:	603b      	str	r3, [r7, #0]
 80027e2:	683b      	ldr	r3, [r7, #0]
 80027e4:	781b      	ldrb	r3, [r3, #0]
 80027e6:	2b30      	cmp	r3, #48	; 0x30
 80027e8:	d0f8      	beq.n	80027dc <_sp_read_radix_16+0x18>
 80027ea:	687b      	ldr	r3, [r7, #4]
 80027ec:	2200      	movs	r2, #0
 80027ee:	609a      	str	r2, [r3, #8]
 80027f0:	6838      	ldr	r0, [r7, #0]
 80027f2:	f7fe f880 	bl	80008f6 <strlen>
 80027f6:	4603      	mov	r3, r0
 80027f8:	3b01      	subs	r3, #1
 80027fa:	61bb      	str	r3, [r7, #24]
 80027fc:	e053      	b.n	80028a6 <_sp_read_radix_16+0xe2>
 80027fe:	69bb      	ldr	r3, [r7, #24]
 8002800:	683a      	ldr	r2, [r7, #0]
 8002802:	4413      	add	r3, r2
 8002804:	781b      	ldrb	r3, [r3, #0]
 8002806:	73fb      	strb	r3, [r7, #15]
 8002808:	7bfb      	ldrb	r3, [r7, #15]
 800280a:	2b2f      	cmp	r3, #47	; 0x2f
 800280c:	d906      	bls.n	800281c <_sp_read_radix_16+0x58>
 800280e:	7bfb      	ldrb	r3, [r7, #15]
 8002810:	2b39      	cmp	r3, #57	; 0x39
 8002812:	d803      	bhi.n	800281c <_sp_read_radix_16+0x58>
 8002814:	7bfb      	ldrb	r3, [r7, #15]
 8002816:	3b30      	subs	r3, #48	; 0x30
 8002818:	73fb      	strb	r3, [r7, #15]
 800281a:	e017      	b.n	800284c <_sp_read_radix_16+0x88>
 800281c:	7bfb      	ldrb	r3, [r7, #15]
 800281e:	2b40      	cmp	r3, #64	; 0x40
 8002820:	d906      	bls.n	8002830 <_sp_read_radix_16+0x6c>
 8002822:	7bfb      	ldrb	r3, [r7, #15]
 8002824:	2b46      	cmp	r3, #70	; 0x46
 8002826:	d803      	bhi.n	8002830 <_sp_read_radix_16+0x6c>
 8002828:	7bfb      	ldrb	r3, [r7, #15]
 800282a:	3b37      	subs	r3, #55	; 0x37
 800282c:	73fb      	strb	r3, [r7, #15]
 800282e:	e00d      	b.n	800284c <_sp_read_radix_16+0x88>
 8002830:	7bfb      	ldrb	r3, [r7, #15]
 8002832:	2b60      	cmp	r3, #96	; 0x60
 8002834:	d906      	bls.n	8002844 <_sp_read_radix_16+0x80>
 8002836:	7bfb      	ldrb	r3, [r7, #15]
 8002838:	2b66      	cmp	r3, #102	; 0x66
 800283a:	d803      	bhi.n	8002844 <_sp_read_radix_16+0x80>
 800283c:	7bfb      	ldrb	r3, [r7, #15]
 800283e:	3b57      	subs	r3, #87	; 0x57
 8002840:	73fb      	strb	r3, [r7, #15]
 8002842:	e003      	b.n	800284c <_sp_read_radix_16+0x88>
 8002844:	f06f 0302 	mvn.w	r3, #2
 8002848:	61fb      	str	r3, [r7, #28]
 800284a:	e02f      	b.n	80028ac <_sp_read_radix_16+0xe8>
 800284c:	697b      	ldr	r3, [r7, #20]
 800284e:	2b20      	cmp	r3, #32
 8002850:	d113      	bne.n	800287a <_sp_read_radix_16+0xb6>
 8002852:	693b      	ldr	r3, [r7, #16]
 8002854:	3301      	adds	r3, #1
 8002856:	613b      	str	r3, [r7, #16]
 8002858:	687b      	ldr	r3, [r7, #4]
 800285a:	685b      	ldr	r3, [r3, #4]
 800285c:	693a      	ldr	r2, [r7, #16]
 800285e:	429a      	cmp	r2, r3
 8002860:	db03      	blt.n	800286a <_sp_read_radix_16+0xa6>
 8002862:	f06f 0302 	mvn.w	r3, #2
 8002866:	61fb      	str	r3, [r7, #28]
 8002868:	e020      	b.n	80028ac <_sp_read_radix_16+0xe8>
 800286a:	2300      	movs	r3, #0
 800286c:	617b      	str	r3, [r7, #20]
 800286e:	687b      	ldr	r3, [r7, #4]
 8002870:	693a      	ldr	r2, [r7, #16]
 8002872:	3202      	adds	r2, #2
 8002874:	2100      	movs	r1, #0
 8002876:	f843 1022 	str.w	r1, [r3, r2, lsl #2]
 800287a:	687b      	ldr	r3, [r7, #4]
 800287c:	693a      	ldr	r2, [r7, #16]
 800287e:	3202      	adds	r2, #2
 8002880:	f853 2022 	ldr.w	r2, [r3, r2, lsl #2]
 8002884:	7bf9      	ldrb	r1, [r7, #15]
 8002886:	697b      	ldr	r3, [r7, #20]
 8002888:	fa01 f303 	lsl.w	r3, r1, r3
 800288c:	ea42 0103 	orr.w	r1, r2, r3
 8002890:	687b      	ldr	r3, [r7, #4]
 8002892:	693a      	ldr	r2, [r7, #16]
 8002894:	3202      	adds	r2, #2
 8002896:	f843 1022 	str.w	r1, [r3, r2, lsl #2]
 800289a:	697b      	ldr	r3, [r7, #20]
 800289c:	3304      	adds	r3, #4
 800289e:	617b      	str	r3, [r7, #20]
 80028a0:	69bb      	ldr	r3, [r7, #24]
 80028a2:	3b01      	subs	r3, #1
 80028a4:	61bb      	str	r3, [r7, #24]
 80028a6:	69bb      	ldr	r3, [r7, #24]
 80028a8:	2b00      	cmp	r3, #0
 80028aa:	daa8      	bge.n	80027fe <_sp_read_radix_16+0x3a>
 80028ac:	69fb      	ldr	r3, [r7, #28]
 80028ae:	2b00      	cmp	r3, #0
 80028b0:	d119      	bne.n	80028e6 <_sp_read_radix_16+0x122>
 80028b2:	693b      	ldr	r3, [r7, #16]
 80028b4:	1c5a      	adds	r2, r3, #1
 80028b6:	687b      	ldr	r3, [r7, #4]
 80028b8:	601a      	str	r2, [r3, #0]
 80028ba:	687b      	ldr	r3, [r7, #4]
 80028bc:	681b      	ldr	r3, [r3, #0]
 80028be:	3b01      	subs	r3, #1
 80028c0:	60bb      	str	r3, [r7, #8]
 80028c2:	e002      	b.n	80028ca <_sp_read_radix_16+0x106>
 80028c4:	68bb      	ldr	r3, [r7, #8]
 80028c6:	3b01      	subs	r3, #1
 80028c8:	60bb      	str	r3, [r7, #8]
 80028ca:	68bb      	ldr	r3, [r7, #8]
 80028cc:	2b00      	cmp	r3, #0
 80028ce:	db06      	blt.n	80028de <_sp_read_radix_16+0x11a>
 80028d0:	687b      	ldr	r3, [r7, #4]
 80028d2:	68ba      	ldr	r2, [r7, #8]
 80028d4:	3202      	adds	r2, #2
 80028d6:	f853 3022 	ldr.w	r3, [r3, r2, lsl #2]
 80028da:	2b00      	cmp	r3, #0
 80028dc:	d0f2      	beq.n	80028c4 <_sp_read_radix_16+0x100>
 80028de:	68bb      	ldr	r3, [r7, #8]
 80028e0:	1c5a      	adds	r2, r3, #1
 80028e2:	687b      	ldr	r3, [r7, #4]
 80028e4:	601a      	str	r2, [r3, #0]
 80028e6:	69fb      	ldr	r3, [r7, #28]
 80028e8:	4618      	mov	r0, r3
 80028ea:	3720      	adds	r7, #32
 80028ec:	46bd      	mov	sp, r7
 80028ee:	bd80      	pop	{r7, pc}

080028f0 <sp_read_radix>:
 80028f0:	b580      	push	{r7, lr}
 80028f2:	b086      	sub	sp, #24
 80028f4:	af00      	add	r7, sp, #0
 80028f6:	60f8      	str	r0, [r7, #12]
 80028f8:	60b9      	str	r1, [r7, #8]
 80028fa:	607a      	str	r2, [r7, #4]
 80028fc:	2300      	movs	r3, #0
 80028fe:	617b      	str	r3, [r7, #20]
 8002900:	68fb      	ldr	r3, [r7, #12]
 8002902:	2b00      	cmp	r3, #0
 8002904:	d002      	beq.n	800290c <sp_read_radix+0x1c>
 8002906:	68bb      	ldr	r3, [r7, #8]
 8002908:	2b00      	cmp	r3, #0
 800290a:	d102      	bne.n	8002912 <sp_read_radix+0x22>
 800290c:	f06f 0302 	mvn.w	r3, #2
 8002910:	617b      	str	r3, [r7, #20]
 8002912:	697b      	ldr	r3, [r7, #20]
 8002914:	2b00      	cmp	r3, #0
 8002916:	d113      	bne.n	8002940 <sp_read_radix+0x50>
 8002918:	68bb      	ldr	r3, [r7, #8]
 800291a:	781b      	ldrb	r3, [r3, #0]
 800291c:	2b2d      	cmp	r3, #45	; 0x2d
 800291e:	d103      	bne.n	8002928 <sp_read_radix+0x38>
 8002920:	f06f 0302 	mvn.w	r3, #2
 8002924:	617b      	str	r3, [r7, #20]
 8002926:	e00b      	b.n	8002940 <sp_read_radix+0x50>
 8002928:	687b      	ldr	r3, [r7, #4]
 800292a:	2b10      	cmp	r3, #16
 800292c:	d105      	bne.n	800293a <sp_read_radix+0x4a>
 800292e:	68b9      	ldr	r1, [r7, #8]
 8002930:	68f8      	ldr	r0, [r7, #12]
 8002932:	f7ff ff47 	bl	80027c4 <_sp_read_radix_16>
 8002936:	6178      	str	r0, [r7, #20]
 8002938:	e002      	b.n	8002940 <sp_read_radix+0x50>
 800293a:	f06f 0302 	mvn.w	r3, #2
 800293e:	617b      	str	r3, [r7, #20]
 8002940:	697b      	ldr	r3, [r7, #20]
 8002942:	4618      	mov	r0, r3
 8002944:	3718      	adds	r7, #24
 8002946:	46bd      	mov	sp, r7
 8002948:	bd80      	pop	{r7, pc}

0800294a <ForceZero>:
 800294a:	b480      	push	{r7}
 800294c:	b085      	sub	sp, #20
 800294e:	af00      	add	r7, sp, #0
 8002950:	6078      	str	r0, [r7, #4]
 8002952:	6039      	str	r1, [r7, #0]
 8002954:	687b      	ldr	r3, [r7, #4]
 8002956:	60fb      	str	r3, [r7, #12]
 8002958:	e004      	b.n	8002964 <ForceZero+0x1a>
 800295a:	68fb      	ldr	r3, [r7, #12]
 800295c:	1c5a      	adds	r2, r3, #1
 800295e:	60fa      	str	r2, [r7, #12]
 8002960:	2200      	movs	r2, #0
 8002962:	701a      	strb	r2, [r3, #0]
 8002964:	683b      	ldr	r3, [r7, #0]
 8002966:	1e5a      	subs	r2, r3, #1
 8002968:	603a      	str	r2, [r7, #0]
 800296a:	2b00      	cmp	r3, #0
 800296c:	d1f5      	bne.n	800295a <ForceZero+0x10>
 800296e:	bf00      	nop
 8002970:	bf00      	nop
 8002972:	3714      	adds	r7, #20
 8002974:	46bd      	mov	sp, r7
 8002976:	bc80      	pop	{r7}
 8002978:	4770      	bx	lr
	...

0800297c <sp_256_mul_10>:
 800297c:	e92d 0ff0 	stmdb	sp!, {r4, r5, r6, r7, r8, r9, sl, fp}
 8002980:	b08a      	sub	sp, #40	; 0x28
 8002982:	af00      	add	r7, sp, #0
 8002984:	60f8      	str	r0, [r7, #12]
 8002986:	60b9      	str	r1, [r7, #8]
 8002988:	607a      	str	r2, [r7, #4]
 800298a:	68bb      	ldr	r3, [r7, #8]
 800298c:	3324      	adds	r3, #36	; 0x24
 800298e:	681b      	ldr	r3, [r3, #0]
 8002990:	4618      	mov	r0, r3
 8002992:	ea4f 71e0 	mov.w	r1, r0, asr #31
 8002996:	687b      	ldr	r3, [r7, #4]
 8002998:	3324      	adds	r3, #36	; 0x24
 800299a:	681b      	ldr	r3, [r3, #0]
 800299c:	461a      	mov	r2, r3
 800299e:	ea4f 73e2 	mov.w	r3, r2, asr #31
 80029a2:	fb02 fc01 	mul.w	ip, r2, r1
 80029a6:	fb00 f603 	mul.w	r6, r0, r3
 80029aa:	4466      	add	r6, ip
 80029ac:	fba0 2302 	umull	r2, r3, r0, r2
 80029b0:	18f1      	adds	r1, r6, r3
 80029b2:	460b      	mov	r3, r1
 80029b4:	e9c7 2306 	strd	r2, r3, [r7, #24]
 80029b8:	e9c7 2306 	strd	r2, r3, [r7, #24]
 80029bc:	e9d7 0106 	ldrd	r0, r1, [r7, #24]
 80029c0:	f04f 0200 	mov.w	r2, #0
 80029c4:	f04f 0300 	mov.w	r3, #0
 80029c8:	0e82      	lsrs	r2, r0, #26
 80029ca:	ea42 1281 	orr.w	r2, r2, r1, lsl #6
 80029ce:	168b      	asrs	r3, r1, #26
 80029d0:	68f9      	ldr	r1, [r7, #12]
 80029d2:	314c      	adds	r1, #76	; 0x4c
 80029d4:	4613      	mov	r3, r2
 80029d6:	600b      	str	r3, [r1, #0]
 80029d8:	e9d7 0106 	ldrd	r0, r1, [r7, #24]
 80029dc:	f04f 0200 	mov.w	r2, #0
 80029e0:	f04f 0300 	mov.w	r3, #0
 80029e4:	068b      	lsls	r3, r1, #26
 80029e6:	ea43 1390 	orr.w	r3, r3, r0, lsr #6
 80029ea:	0682      	lsls	r2, r0, #26
 80029ec:	f04f 407c 	mov.w	r0, #4227858432	; 0xfc000000
 80029f0:	494a      	ldr	r1, [pc, #296]	; (8002b1c <sp_256_mul_10+0x1a0>)
 80029f2:	ea02 0a00 	and.w	sl, r2, r0
 80029f6:	ea03 0b01 	and.w	fp, r3, r1
 80029fa:	e9c7 ab06 	strd	sl, fp, [r7, #24]
 80029fe:	2311      	movs	r3, #17
 8002a00:	623b      	str	r3, [r7, #32]
 8002a02:	e075      	b.n	8002af0 <sp_256_mul_10+0x174>
 8002a04:	2309      	movs	r3, #9
 8002a06:	627b      	str	r3, [r7, #36]	; 0x24
 8002a08:	e02e      	b.n	8002a68 <sp_256_mul_10+0xec>
 8002a0a:	6a3a      	ldr	r2, [r7, #32]
 8002a0c:	6a7b      	ldr	r3, [r7, #36]	; 0x24
 8002a0e:	1ad3      	subs	r3, r2, r3
 8002a10:	617b      	str	r3, [r7, #20]
 8002a12:	697b      	ldr	r3, [r7, #20]
 8002a14:	2b09      	cmp	r3, #9
 8002a16:	dc2b      	bgt.n	8002a70 <sp_256_mul_10+0xf4>
 8002a18:	697b      	ldr	r3, [r7, #20]
 8002a1a:	2b00      	cmp	r3, #0
 8002a1c:	db20      	blt.n	8002a60 <sp_256_mul_10+0xe4>
 8002a1e:	6a7b      	ldr	r3, [r7, #36]	; 0x24
 8002a20:	009b      	lsls	r3, r3, #2
 8002a22:	68ba      	ldr	r2, [r7, #8]
 8002a24:	4413      	add	r3, r2
 8002a26:	681b      	ldr	r3, [r3, #0]
 8002a28:	4618      	mov	r0, r3
 8002a2a:	ea4f 71e0 	mov.w	r1, r0, asr #31
 8002a2e:	697b      	ldr	r3, [r7, #20]
 8002a30:	009b      	lsls	r3, r3, #2
 8002a32:	687a      	ldr	r2, [r7, #4]
 8002a34:	4413      	add	r3, r2
 8002a36:	681b      	ldr	r3, [r3, #0]
 8002a38:	461a      	mov	r2, r3
 8002a3a:	ea4f 73e2 	mov.w	r3, r2, asr #31
 8002a3e:	fb02 fc01 	mul.w	ip, r2, r1
 8002a42:	fb00 f603 	mul.w	r6, r0, r3
 8002a46:	4466      	add	r6, ip
 8002a48:	fba0 2302 	umull	r2, r3, r0, r2
 8002a4c:	18f1      	adds	r1, r6, r3
 8002a4e:	460b      	mov	r3, r1
 8002a50:	e9d7 0106 	ldrd	r0, r1, [r7, #24]
 8002a54:	1884      	adds	r4, r0, r2
 8002a56:	eb41 0503 	adc.w	r5, r1, r3
 8002a5a:	e9c7 4506 	strd	r4, r5, [r7, #24]
 8002a5e:	e000      	b.n	8002a62 <sp_256_mul_10+0xe6>
 8002a60:	bf00      	nop
 8002a62:	6a7b      	ldr	r3, [r7, #36]	; 0x24
 8002a64:	3b01      	subs	r3, #1
 8002a66:	627b      	str	r3, [r7, #36]	; 0x24
 8002a68:	6a7b      	ldr	r3, [r7, #36]	; 0x24
 8002a6a:	2b00      	cmp	r3, #0
 8002a6c:	dacd      	bge.n	8002a0a <sp_256_mul_10+0x8e>
 8002a6e:	e000      	b.n	8002a72 <sp_256_mul_10+0xf6>
 8002a70:	bf00      	nop
 8002a72:	6a3b      	ldr	r3, [r7, #32]
 8002a74:	3302      	adds	r3, #2
 8002a76:	009b      	lsls	r3, r3, #2
 8002a78:	68fa      	ldr	r2, [r7, #12]
 8002a7a:	4413      	add	r3, r2
 8002a7c:	681e      	ldr	r6, [r3, #0]
 8002a7e:	e9d7 0106 	ldrd	r0, r1, [r7, #24]
 8002a82:	f04f 0200 	mov.w	r2, #0
 8002a86:	f04f 0300 	mov.w	r3, #0
 8002a8a:	150a      	asrs	r2, r1, #20
 8002a8c:	17cb      	asrs	r3, r1, #31
 8002a8e:	4611      	mov	r1, r2
 8002a90:	6a3b      	ldr	r3, [r7, #32]
 8002a92:	3302      	adds	r3, #2
 8002a94:	009b      	lsls	r3, r3, #2
 8002a96:	68fa      	ldr	r2, [r7, #12]
 8002a98:	4413      	add	r3, r2
 8002a9a:	1872      	adds	r2, r6, r1
 8002a9c:	601a      	str	r2, [r3, #0]
 8002a9e:	e9d7 0106 	ldrd	r0, r1, [r7, #24]
 8002aa2:	f04f 0200 	mov.w	r2, #0
 8002aa6:	f04f 0300 	mov.w	r3, #0
 8002aaa:	0e82      	lsrs	r2, r0, #26
 8002aac:	ea42 1281 	orr.w	r2, r2, r1, lsl #6
 8002ab0:	168b      	asrs	r3, r1, #26
 8002ab2:	4611      	mov	r1, r2
 8002ab4:	6a3b      	ldr	r3, [r7, #32]
 8002ab6:	3301      	adds	r3, #1
 8002ab8:	009b      	lsls	r3, r3, #2
 8002aba:	68fa      	ldr	r2, [r7, #12]
 8002abc:	4413      	add	r3, r2
 8002abe:	f021 427c 	bic.w	r2, r1, #4227858432	; 0xfc000000
 8002ac2:	601a      	str	r2, [r3, #0]
 8002ac4:	e9d7 0106 	ldrd	r0, r1, [r7, #24]
 8002ac8:	f04f 0200 	mov.w	r2, #0
 8002acc:	f04f 0300 	mov.w	r3, #0
 8002ad0:	068b      	lsls	r3, r1, #26
 8002ad2:	ea43 1390 	orr.w	r3, r3, r0, lsr #6
 8002ad6:	0682      	lsls	r2, r0, #26
 8002ad8:	f04f 407c 	mov.w	r0, #4227858432	; 0xfc000000
 8002adc:	490f      	ldr	r1, [pc, #60]	; (8002b1c <sp_256_mul_10+0x1a0>)
 8002ade:	ea02 0800 	and.w	r8, r2, r0
 8002ae2:	ea03 0901 	and.w	r9, r3, r1
 8002ae6:	e9c7 8906 	strd	r8, r9, [r7, #24]
 8002aea:	6a3b      	ldr	r3, [r7, #32]
 8002aec:	3b01      	subs	r3, #1
 8002aee:	623b      	str	r3, [r7, #32]
 8002af0:	6a3b      	ldr	r3, [r7, #32]
 8002af2:	2b00      	cmp	r3, #0
 8002af4:	da86      	bge.n	8002a04 <sp_256_mul_10+0x88>
 8002af6:	e9d7 0106 	ldrd	r0, r1, [r7, #24]
 8002afa:	f04f 0200 	mov.w	r2, #0
 8002afe:	f04f 0300 	mov.w	r3, #0
 8002b02:	0e82      	lsrs	r2, r0, #26
 8002b04:	ea42 1281 	orr.w	r2, r2, r1, lsl #6
 8002b08:	168b      	asrs	r3, r1, #26
 8002b0a:	68fb      	ldr	r3, [r7, #12]
 8002b0c:	601a      	str	r2, [r3, #0]
 8002b0e:	bf00      	nop
 8002b10:	3728      	adds	r7, #40	; 0x28
 8002b12:	46bd      	mov	sp, r7
 8002b14:	e8bd 0ff0 	ldmia.w	sp!, {r4, r5, r6, r7, r8, r9, sl, fp}
 8002b18:	4770      	bx	lr
 8002b1a:	bf00      	nop
 8002b1c:	000fffff 	.word	0x000fffff

08002b20 <sp_256_sqr_10>:
 8002b20:	e92d 0ff0 	stmdb	sp!, {r4, r5, r6, r7, r8, r9, sl, fp}
 8002b24:	b08c      	sub	sp, #48	; 0x30
 8002b26:	af00      	add	r7, sp, #0
 8002b28:	6178      	str	r0, [r7, #20]
 8002b2a:	6139      	str	r1, [r7, #16]
 8002b2c:	693b      	ldr	r3, [r7, #16]
 8002b2e:	3324      	adds	r3, #36	; 0x24
 8002b30:	681b      	ldr	r3, [r3, #0]
 8002b32:	461a      	mov	r2, r3
 8002b34:	ea4f 73e2 	mov.w	r3, r2, asr #31
 8002b38:	6939      	ldr	r1, [r7, #16]
 8002b3a:	3124      	adds	r1, #36	; 0x24
 8002b3c:	6809      	ldr	r1, [r1, #0]
 8002b3e:	4608      	mov	r0, r1
 8002b40:	ea4f 71e0 	mov.w	r1, r0, asr #31
 8002b44:	fb00 fc03 	mul.w	ip, r0, r3
 8002b48:	fb02 f401 	mul.w	r4, r2, r1
 8002b4c:	4464      	add	r4, ip
 8002b4e:	fba2 2300 	umull	r2, r3, r2, r0
 8002b52:	18e1      	adds	r1, r4, r3
 8002b54:	460b      	mov	r3, r1
 8002b56:	e9c7 2306 	strd	r2, r3, [r7, #24]
 8002b5a:	e9c7 2306 	strd	r2, r3, [r7, #24]
 8002b5e:	e9d7 0106 	ldrd	r0, r1, [r7, #24]
 8002b62:	f04f 0200 	mov.w	r2, #0
 8002b66:	f04f 0300 	mov.w	r3, #0
 8002b6a:	0e82      	lsrs	r2, r0, #26
 8002b6c:	ea42 1281 	orr.w	r2, r2, r1, lsl #6
 8002b70:	168b      	asrs	r3, r1, #26
 8002b72:	6979      	ldr	r1, [r7, #20]
 8002b74:	314c      	adds	r1, #76	; 0x4c
 8002b76:	4613      	mov	r3, r2
 8002b78:	600b      	str	r3, [r1, #0]
 8002b7a:	e9d7 2306 	ldrd	r2, r3, [r7, #24]
 8002b7e:	f04f 0000 	mov.w	r0, #0
 8002b82:	f04f 0100 	mov.w	r1, #0
 8002b86:	0699      	lsls	r1, r3, #26
 8002b88:	ea41 1192 	orr.w	r1, r1, r2, lsr #6
 8002b8c:	0690      	lsls	r0, r2, #26
 8002b8e:	f04f 427c 	mov.w	r2, #4227858432	; 0xfc000000
 8002b92:	4b63      	ldr	r3, [pc, #396]	; (8002d20 <sp_256_sqr_10+0x200>)
 8002b94:	ea00 0502 	and.w	r5, r0, r2
 8002b98:	ea01 0603 	and.w	r6, r1, r3
 8002b9c:	e9c7 5606 	strd	r5, r6, [r7, #24]
 8002ba0:	2311      	movs	r3, #17
 8002ba2:	627b      	str	r3, [r7, #36]	; 0x24
 8002ba4:	e0a6      	b.n	8002cf4 <sp_256_sqr_10+0x1d4>
 8002ba6:	2309      	movs	r3, #9
 8002ba8:	62fb      	str	r3, [r7, #44]	; 0x2c
 8002baa:	e039      	b.n	8002c20 <sp_256_sqr_10+0x100>
 8002bac:	6a7a      	ldr	r2, [r7, #36]	; 0x24
 8002bae:	6afb      	ldr	r3, [r7, #44]	; 0x2c
 8002bb0:	1ad3      	subs	r3, r2, r3
 8002bb2:	62bb      	str	r3, [r7, #40]	; 0x28
 8002bb4:	6abb      	ldr	r3, [r7, #40]	; 0x28
 8002bb6:	2b09      	cmp	r3, #9
 8002bb8:	dc35      	bgt.n	8002c26 <sp_256_sqr_10+0x106>
 8002bba:	6afa      	ldr	r2, [r7, #44]	; 0x2c
 8002bbc:	6abb      	ldr	r3, [r7, #40]	; 0x28
 8002bbe:	429a      	cmp	r2, r3
 8002bc0:	dd31      	ble.n	8002c26 <sp_256_sqr_10+0x106>
 8002bc2:	6abb      	ldr	r3, [r7, #40]	; 0x28
 8002bc4:	2b00      	cmp	r3, #0
 8002bc6:	db27      	blt.n	8002c18 <sp_256_sqr_10+0xf8>
 8002bc8:	6afb      	ldr	r3, [r7, #44]	; 0x2c
 8002bca:	009b      	lsls	r3, r3, #2
 8002bcc:	693a      	ldr	r2, [r7, #16]
 8002bce:	4413      	add	r3, r2
 8002bd0:	681b      	ldr	r3, [r3, #0]
 8002bd2:	4618      	mov	r0, r3
 8002bd4:	ea4f 71e0 	mov.w	r1, r0, asr #31
 8002bd8:	6abb      	ldr	r3, [r7, #40]	; 0x28
 8002bda:	009b      	lsls	r3, r3, #2
 8002bdc:	693a      	ldr	r2, [r7, #16]
 8002bde:	4413      	add	r3, r2
 8002be0:	681b      	ldr	r3, [r3, #0]
 8002be2:	461a      	mov	r2, r3
 8002be4:	ea4f 73e2 	mov.w	r3, r2, asr #31
 8002be8:	fb02 f501 	mul.w	r5, r2, r1
 8002bec:	fb00 f403 	mul.w	r4, r0, r3
 8002bf0:	442c      	add	r4, r5
 8002bf2:	fba0 2302 	umull	r2, r3, r0, r2
 8002bf6:	18e1      	adds	r1, r4, r3
 8002bf8:	460b      	mov	r3, r1
 8002bfa:	1891      	adds	r1, r2, r2
 8002bfc:	60b9      	str	r1, [r7, #8]
 8002bfe:	415b      	adcs	r3, r3
 8002c00:	60fb      	str	r3, [r7, #12]
 8002c02:	e9d7 0102 	ldrd	r0, r1, [r7, #8]
 8002c06:	e9d7 2306 	ldrd	r2, r3, [r7, #24]
 8002c0a:	eb12 0800 	adds.w	r8, r2, r0
 8002c0e:	eb43 0901 	adc.w	r9, r3, r1
 8002c12:	e9c7 8906 	strd	r8, r9, [r7, #24]
 8002c16:	e000      	b.n	8002c1a <sp_256_sqr_10+0xfa>
 8002c18:	bf00      	nop
 8002c1a:	6afb      	ldr	r3, [r7, #44]	; 0x2c
 8002c1c:	3b01      	subs	r3, #1
 8002c1e:	62fb      	str	r3, [r7, #44]	; 0x2c
 8002c20:	6afb      	ldr	r3, [r7, #44]	; 0x2c
 8002c22:	2b00      	cmp	r3, #0
 8002c24:	dac2      	bge.n	8002bac <sp_256_sqr_10+0x8c>
 8002c26:	6afa      	ldr	r2, [r7, #44]	; 0x2c
 8002c28:	6abb      	ldr	r3, [r7, #40]	; 0x28
 8002c2a:	429a      	cmp	r2, r3
 8002c2c:	d120      	bne.n	8002c70 <sp_256_sqr_10+0x150>
 8002c2e:	6afb      	ldr	r3, [r7, #44]	; 0x2c
 8002c30:	009b      	lsls	r3, r3, #2
 8002c32:	693a      	ldr	r2, [r7, #16]
 8002c34:	4413      	add	r3, r2
 8002c36:	681b      	ldr	r3, [r3, #0]
 8002c38:	4618      	mov	r0, r3
 8002c3a:	ea4f 71e0 	mov.w	r1, r0, asr #31
 8002c3e:	6afb      	ldr	r3, [r7, #44]	; 0x2c
 8002c40:	009b      	lsls	r3, r3, #2
 8002c42:	693a      	ldr	r2, [r7, #16]
 8002c44:	4413      	add	r3, r2
 8002c46:	681b      	ldr	r3, [r3, #0]
 8002c48:	461a      	mov	r2, r3
 8002c4a:	ea4f 73e2 	mov.w	r3, r2, asr #31
 8002c4e:	fb02 f501 	mul.w	r5, r2, r1
 8002c52:	fb00 f403 	mul.w	r4, r0, r3
 8002c56:	442c      	add	r4, r5
 8002c58:	fba0 2302 	umull	r2, r3, r0, r2
 8002c5c:	18e1      	adds	r1, r4, r3
 8002c5e:	460b      	mov	r3, r1
 8002c60:	e9d7 0106 	ldrd	r0, r1, [r7, #24]
 8002c64:	eb10 0a02 	adds.w	sl, r0, r2
 8002c68:	eb41 0b03 	adc.w	fp, r1, r3
 8002c6c:	e9c7 ab06 	strd	sl, fp, [r7, #24]
 8002c70:	6a7b      	ldr	r3, [r7, #36]	; 0x24
 8002c72:	3302      	adds	r3, #2
 8002c74:	009b      	lsls	r3, r3, #2
 8002c76:	697a      	ldr	r2, [r7, #20]
 8002c78:	4413      	add	r3, r2
 8002c7a:	681c      	ldr	r4, [r3, #0]
 8002c7c:	e9d7 0106 	ldrd	r0, r1, [r7, #24]
 8002c80:	f04f 0200 	mov.w	r2, #0
 8002c84:	f04f 0300 	mov.w	r3, #0
 8002c88:	150a      	asrs	r2, r1, #20
 8002c8a:	17cb      	asrs	r3, r1, #31
 8002c8c:	4611      	mov	r1, r2
 8002c8e:	6a7b      	ldr	r3, [r7, #36]	; 0x24
 8002c90:	3302      	adds	r3, #2
 8002c92:	009b      	lsls	r3, r3, #2
 8002c94:	697a      	ldr	r2, [r7, #20]
 8002c96:	4413      	add	r3, r2
 8002c98:	1862      	adds	r2, r4, r1
 8002c9a:	601a      	str	r2, [r3, #0]
 8002c9c:	e9d7 0106 	ldrd	r0, r1, [r7, #24]
 8002ca0:	f04f 0200 	mov.w	r2, #0
 8002ca4:	f04f 0300 	mov.w	r3, #0
 8002ca8:	0e82      	lsrs	r2, r0, #26
 8002caa:	ea42 1281 	orr.w	r2, r2, r1, lsl #6
 8002cae:	168b      	asrs	r3, r1, #26
 8002cb0:	4611      	mov	r1, r2
 8002cb2:	6a7b      	ldr	r3, [r7, #36]	; 0x24
 8002cb4:	3301      	adds	r3, #1
 8002cb6:	009b      	lsls	r3, r3, #2
 8002cb8:	697a      	ldr	r2, [r7, #20]
 8002cba:	4413      	add	r3, r2
 8002cbc:	f021 427c 	bic.w	r2, r1, #4227858432	; 0xfc000000
 8002cc0:	601a      	str	r2, [r3, #0]
 8002cc2:	e9d7 0106 	ldrd	r0, r1, [r7, #24]
 8002cc6:	f04f 0200 	mov.w	r2, #0
 8002cca:	f04f 0300 	mov.w	r3, #0
 8002cce:	068b      	lsls	r3, r1, #26
 8002cd0:	ea43 1390 	orr.w	r3, r3, r0, lsr #6
 8002cd4:	0682      	lsls	r2, r0, #26
 8002cd6:	f04f 407c 	mov.w	r0, #4227858432	; 0xfc000000
 8002cda:	4911      	ldr	r1, [pc, #68]	; (8002d20 <sp_256_sqr_10+0x200>)
 8002cdc:	ea02 0400 	and.w	r4, r2, r0
 8002ce0:	603c      	str	r4, [r7, #0]
 8002ce2:	400b      	ands	r3, r1
 8002ce4:	607b      	str	r3, [r7, #4]
 8002ce6:	e9d7 3400 	ldrd	r3, r4, [r7]
 8002cea:	e9c7 3406 	strd	r3, r4, [r7, #24]
 8002cee:	6a7b      	ldr	r3, [r7, #36]	; 0x24
 8002cf0:	3b01      	subs	r3, #1
 8002cf2:	627b      	str	r3, [r7, #36]	; 0x24
 8002cf4:	6a7b      	ldr	r3, [r7, #36]	; 0x24
 8002cf6:	2b00      	cmp	r3, #0
 8002cf8:	f6bf af55 	bge.w	8002ba6 <sp_256_sqr_10+0x86>
 8002cfc:	e9d7 0106 	ldrd	r0, r1, [r7, #24]
 8002d00:	f04f 0200 	mov.w	r2, #0
 8002d04:	f04f 0300 	mov.w	r3, #0
 8002d08:	0e82      	lsrs	r2, r0, #26
 8002d0a:	ea42 1281 	orr.w	r2, r2, r1, lsl #6
 8002d0e:	168b      	asrs	r3, r1, #26
 8002d10:	697b      	ldr	r3, [r7, #20]
 8002d12:	601a      	str	r2, [r3, #0]
 8002d14:	bf00      	nop
 8002d16:	3730      	adds	r7, #48	; 0x30
 8002d18:	46bd      	mov	sp, r7
 8002d1a:	e8bd 0ff0 	ldmia.w	sp!, {r4, r5, r6, r7, r8, r9, sl, fp}
 8002d1e:	4770      	bx	lr
 8002d20:	000fffff 	.word	0x000fffff

08002d24 <sp_256_add_10>:
 8002d24:	b480      	push	{r7}
 8002d26:	b087      	sub	sp, #28
 8002d28:	af00      	add	r7, sp, #0
 8002d2a:	60f8      	str	r0, [r7, #12]
 8002d2c:	60b9      	str	r1, [r7, #8]
 8002d2e:	607a      	str	r2, [r7, #4]
 8002d30:	2300      	movs	r3, #0
 8002d32:	617b      	str	r3, [r7, #20]
 8002d34:	e012      	b.n	8002d5c <sp_256_add_10+0x38>
 8002d36:	697b      	ldr	r3, [r7, #20]
 8002d38:	009b      	lsls	r3, r3, #2
 8002d3a:	68ba      	ldr	r2, [r7, #8]
 8002d3c:	4413      	add	r3, r2
 8002d3e:	6819      	ldr	r1, [r3, #0]
 8002d40:	697b      	ldr	r3, [r7, #20]
 8002d42:	009b      	lsls	r3, r3, #2
 8002d44:	687a      	ldr	r2, [r7, #4]
 8002d46:	4413      	add	r3, r2
 8002d48:	681a      	ldr	r2, [r3, #0]
 8002d4a:	697b      	ldr	r3, [r7, #20]
 8002d4c:	009b      	lsls	r3, r3, #2
 8002d4e:	68f8      	ldr	r0, [r7, #12]
 8002d50:	4403      	add	r3, r0
 8002d52:	440a      	add	r2, r1
 8002d54:	601a      	str	r2, [r3, #0]
 8002d56:	697b      	ldr	r3, [r7, #20]
 8002d58:	3301      	adds	r3, #1
 8002d5a:	617b      	str	r3, [r7, #20]
 8002d5c:	697b      	ldr	r3, [r7, #20]
 8002d5e:	2b09      	cmp	r3, #9
 8002d60:	dde9      	ble.n	8002d36 <sp_256_add_10+0x12>
 8002d62:	2300      	movs	r3, #0
 8002d64:	4618      	mov	r0, r3
 8002d66:	371c      	adds	r7, #28
 8002d68:	46bd      	mov	sp, r7
 8002d6a:	bc80      	pop	{r7}
 8002d6c:	4770      	bx	lr

08002d6e <sp_256_sub_10>:
 8002d6e:	b480      	push	{r7}
 8002d70:	b087      	sub	sp, #28
 8002d72:	af00      	add	r7, sp, #0
 8002d74:	60f8      	str	r0, [r7, #12]
 8002d76:	60b9      	str	r1, [r7, #8]
 8002d78:	607a      	str	r2, [r7, #4]
 8002d7a:	2300      	movs	r3, #0
 8002d7c:	617b      	str	r3, [r7, #20]
 8002d7e:	e012      	b.n	8002da6 <sp_256_sub_10+0x38>
 8002d80:	697b      	ldr	r3, [r7, #20]
 8002d82:	009b      	lsls	r3, r3, #2
 8002d84:	68ba      	ldr	r2, [r7, #8]
 8002d86:	4413      	add	r3, r2
 8002d88:	6819      	ldr	r1, [r3, #0]
 8002d8a:	697b      	ldr	r3, [r7, #20]
 8002d8c:	009b      	lsls	r3, r3, #2
 8002d8e:	687a      	ldr	r2, [r7, #4]
 8002d90:	4413      	add	r3, r2
 8002d92:	681a      	ldr	r2, [r3, #0]
 8002d94:	697b      	ldr	r3, [r7, #20]
 8002d96:	009b      	lsls	r3, r3, #2
 8002d98:	68f8      	ldr	r0, [r7, #12]
 8002d9a:	4403      	add	r3, r0
 8002d9c:	1a8a      	subs	r2, r1, r2
 8002d9e:	601a      	str	r2, [r3, #0]
 8002da0:	697b      	ldr	r3, [r7, #20]
 8002da2:	3301      	adds	r3, #1
 8002da4:	617b      	str	r3, [r7, #20]
 8002da6:	697b      	ldr	r3, [r7, #20]
 8002da8:	2b09      	cmp	r3, #9
 8002daa:	dde9      	ble.n	8002d80 <sp_256_sub_10+0x12>
 8002dac:	2300      	movs	r3, #0
 8002dae:	4618      	mov	r0, r3
 8002db0:	371c      	adds	r7, #28
 8002db2:	46bd      	mov	sp, r7
 8002db4:	bc80      	pop	{r7}
 8002db6:	4770      	bx	lr

08002db8 <sp_256_from_mp>:
 8002db8:	b480      	push	{r7}
 8002dba:	b089      	sub	sp, #36	; 0x24
 8002dbc:	af00      	add	r7, sp, #0
 8002dbe:	60f8      	str	r0, [r7, #12]
 8002dc0:	60b9      	str	r1, [r7, #8]
 8002dc2:	607a      	str	r2, [r7, #4]
 8002dc4:	2300      	movs	r3, #0
 8002dc6:	61bb      	str	r3, [r7, #24]
 8002dc8:	2300      	movs	r3, #0
 8002dca:	617b      	str	r3, [r7, #20]
 8002dcc:	68fb      	ldr	r3, [r7, #12]
 8002dce:	2200      	movs	r2, #0
 8002dd0:	601a      	str	r2, [r3, #0]
 8002dd2:	2300      	movs	r3, #0
 8002dd4:	61fb      	str	r3, [r7, #28]
 8002dd6:	e078      	b.n	8002eca <sp_256_from_mp+0x112>
 8002dd8:	69bb      	ldr	r3, [r7, #24]
 8002dda:	009b      	lsls	r3, r3, #2
 8002ddc:	68fa      	ldr	r2, [r7, #12]
 8002dde:	4413      	add	r3, r2
 8002de0:	6819      	ldr	r1, [r3, #0]
 8002de2:	687b      	ldr	r3, [r7, #4]
 8002de4:	69fa      	ldr	r2, [r7, #28]
 8002de6:	3202      	adds	r2, #2
 8002de8:	f853 3022 	ldr.w	r3, [r3, r2, lsl #2]
 8002dec:	461a      	mov	r2, r3
 8002dee:	697b      	ldr	r3, [r7, #20]
 8002df0:	409a      	lsls	r2, r3
 8002df2:	69bb      	ldr	r3, [r7, #24]
 8002df4:	009b      	lsls	r3, r3, #2
 8002df6:	68f8      	ldr	r0, [r7, #12]
 8002df8:	4403      	add	r3, r0
 8002dfa:	430a      	orrs	r2, r1
 8002dfc:	601a      	str	r2, [r3, #0]
 8002dfe:	69bb      	ldr	r3, [r7, #24]
 8002e00:	009b      	lsls	r3, r3, #2
 8002e02:	68fa      	ldr	r2, [r7, #12]
 8002e04:	4413      	add	r3, r2
 8002e06:	681a      	ldr	r2, [r3, #0]
 8002e08:	69bb      	ldr	r3, [r7, #24]
 8002e0a:	009b      	lsls	r3, r3, #2
 8002e0c:	68f9      	ldr	r1, [r7, #12]
 8002e0e:	440b      	add	r3, r1
 8002e10:	f022 427c 	bic.w	r2, r2, #4227858432	; 0xfc000000
 8002e14:	601a      	str	r2, [r3, #0]
 8002e16:	697b      	ldr	r3, [r7, #20]
 8002e18:	f1c3 031a 	rsb	r3, r3, #26
 8002e1c:	617b      	str	r3, [r7, #20]
 8002e1e:	69bb      	ldr	r3, [r7, #24]
 8002e20:	3301      	adds	r3, #1
 8002e22:	68ba      	ldr	r2, [r7, #8]
 8002e24:	429a      	cmp	r2, r3
 8002e26:	dd5b      	ble.n	8002ee0 <sp_256_from_mp+0x128>
 8002e28:	687b      	ldr	r3, [r7, #4]
 8002e2a:	69fa      	ldr	r2, [r7, #28]
 8002e2c:	3202      	adds	r2, #2
 8002e2e:	f853 2022 	ldr.w	r2, [r3, r2, lsl #2]
 8002e32:	697b      	ldr	r3, [r7, #20]
 8002e34:	fa22 f103 	lsr.w	r1, r2, r3
 8002e38:	69bb      	ldr	r3, [r7, #24]
 8002e3a:	3301      	adds	r3, #1
 8002e3c:	61bb      	str	r3, [r7, #24]
 8002e3e:	69bb      	ldr	r3, [r7, #24]
 8002e40:	009b      	lsls	r3, r3, #2
 8002e42:	68fa      	ldr	r2, [r7, #12]
 8002e44:	4413      	add	r3, r2
 8002e46:	460a      	mov	r2, r1
 8002e48:	601a      	str	r2, [r3, #0]
 8002e4a:	e031      	b.n	8002eb0 <sp_256_from_mp+0xf8>
 8002e4c:	697b      	ldr	r3, [r7, #20]
 8002e4e:	331a      	adds	r3, #26
 8002e50:	617b      	str	r3, [r7, #20]
 8002e52:	69bb      	ldr	r3, [r7, #24]
 8002e54:	009b      	lsls	r3, r3, #2
 8002e56:	68fa      	ldr	r2, [r7, #12]
 8002e58:	4413      	add	r3, r2
 8002e5a:	681a      	ldr	r2, [r3, #0]
 8002e5c:	69bb      	ldr	r3, [r7, #24]
 8002e5e:	009b      	lsls	r3, r3, #2
 8002e60:	68f9      	ldr	r1, [r7, #12]
 8002e62:	440b      	add	r3, r1
 8002e64:	f022 427c 	bic.w	r2, r2, #4227858432	; 0xfc000000
 8002e68:	601a      	str	r2, [r3, #0]
 8002e6a:	69bb      	ldr	r3, [r7, #24]
 8002e6c:	3301      	adds	r3, #1
 8002e6e:	68ba      	ldr	r2, [r7, #8]
 8002e70:	429a      	cmp	r2, r3
 8002e72:	dd22      	ble.n	8002eba <sp_256_from_mp+0x102>
 8002e74:	697b      	ldr	r3, [r7, #20]
 8002e76:	2b1f      	cmp	r3, #31
 8002e78:	d811      	bhi.n	8002e9e <sp_256_from_mp+0xe6>
 8002e7a:	687b      	ldr	r3, [r7, #4]
 8002e7c:	69fa      	ldr	r2, [r7, #28]
 8002e7e:	3202      	adds	r2, #2
 8002e80:	f853 2022 	ldr.w	r2, [r3, r2, lsl #2]
 8002e84:	697b      	ldr	r3, [r7, #20]
 8002e86:	fa22 f103 	lsr.w	r1, r2, r3
 8002e8a:	69bb      	ldr	r3, [r7, #24]
 8002e8c:	3301      	adds	r3, #1
 8002e8e:	61bb      	str	r3, [r7, #24]
 8002e90:	69bb      	ldr	r3, [r7, #24]
 8002e92:	009b      	lsls	r3, r3, #2
 8002e94:	68fa      	ldr	r2, [r7, #12]
 8002e96:	4413      	add	r3, r2
 8002e98:	460a      	mov	r2, r1
 8002e9a:	601a      	str	r2, [r3, #0]
 8002e9c:	e008      	b.n	8002eb0 <sp_256_from_mp+0xf8>
 8002e9e:	69bb      	ldr	r3, [r7, #24]
 8002ea0:	3301      	adds	r3, #1
 8002ea2:	61bb      	str	r3, [r7, #24]
 8002ea4:	69bb      	ldr	r3, [r7, #24]
 8002ea6:	009b      	lsls	r3, r3, #2
 8002ea8:	68fa      	ldr	r2, [r7, #12]
 8002eaa:	4413      	add	r3, r2
 8002eac:	2200      	movs	r2, #0
 8002eae:	601a      	str	r2, [r3, #0]
 8002eb0:	697b      	ldr	r3, [r7, #20]
 8002eb2:	331a      	adds	r3, #26
 8002eb4:	2b20      	cmp	r3, #32
 8002eb6:	d9c9      	bls.n	8002e4c <sp_256_from_mp+0x94>
 8002eb8:	e000      	b.n	8002ebc <sp_256_from_mp+0x104>
 8002eba:	bf00      	nop
 8002ebc:	697b      	ldr	r3, [r7, #20]
 8002ebe:	f1c3 0320 	rsb	r3, r3, #32
 8002ec2:	617b      	str	r3, [r7, #20]
 8002ec4:	69fb      	ldr	r3, [r7, #28]
 8002ec6:	3301      	adds	r3, #1
 8002ec8:	61fb      	str	r3, [r7, #28]
 8002eca:	687b      	ldr	r3, [r7, #4]
 8002ecc:	681b      	ldr	r3, [r3, #0]
 8002ece:	69fa      	ldr	r2, [r7, #28]
 8002ed0:	429a      	cmp	r2, r3
 8002ed2:	da06      	bge.n	8002ee2 <sp_256_from_mp+0x12a>
 8002ed4:	69ba      	ldr	r2, [r7, #24]
 8002ed6:	68bb      	ldr	r3, [r7, #8]
 8002ed8:	429a      	cmp	r2, r3
 8002eda:	f6ff af7d 	blt.w	8002dd8 <sp_256_from_mp+0x20>
 8002ede:	e000      	b.n	8002ee2 <sp_256_from_mp+0x12a>
 8002ee0:	bf00      	nop
 8002ee2:	69bb      	ldr	r3, [r7, #24]
 8002ee4:	3301      	adds	r3, #1
 8002ee6:	61bb      	str	r3, [r7, #24]
 8002ee8:	e008      	b.n	8002efc <sp_256_from_mp+0x144>
 8002eea:	69bb      	ldr	r3, [r7, #24]
 8002eec:	009b      	lsls	r3, r3, #2
 8002eee:	68fa      	ldr	r2, [r7, #12]
 8002ef0:	4413      	add	r3, r2
 8002ef2:	2200      	movs	r2, #0
 8002ef4:	601a      	str	r2, [r3, #0]
 8002ef6:	69bb      	ldr	r3, [r7, #24]
 8002ef8:	3301      	adds	r3, #1
 8002efa:	61bb      	str	r3, [r7, #24]
 8002efc:	69ba      	ldr	r2, [r7, #24]
 8002efe:	68bb      	ldr	r3, [r7, #8]
 8002f00:	429a      	cmp	r2, r3
 8002f02:	dbf2      	blt.n	8002eea <sp_256_from_mp+0x132>
 8002f04:	bf00      	nop
 8002f06:	bf00      	nop
 8002f08:	3724      	adds	r7, #36	; 0x24
 8002f0a:	46bd      	mov	sp, r7
 8002f0c:	bc80      	pop	{r7}
 8002f0e:	4770      	bx	lr

08002f10 <sp_256_to_mp>:
 8002f10:	b580      	push	{r7, lr}
 8002f12:	b088      	sub	sp, #32
 8002f14:	af00      	add	r7, sp, #0
 8002f16:	6078      	str	r0, [r7, #4]
 8002f18:	6039      	str	r1, [r7, #0]
 8002f1a:	2108      	movs	r1, #8
 8002f1c:	6838      	ldr	r0, [r7, #0]
 8002f1e:	f7ff fa7b 	bl	8002418 <sp_grow>
 8002f22:	60f8      	str	r0, [r7, #12]
 8002f24:	68fb      	ldr	r3, [r7, #12]
 8002f26:	2b00      	cmp	r3, #0
 8002f28:	d15c      	bne.n	8002fe4 <sp_256_to_mp+0xd4>
 8002f2a:	2300      	movs	r3, #0
 8002f2c:	61bb      	str	r3, [r7, #24]
 8002f2e:	2300      	movs	r3, #0
 8002f30:	617b      	str	r3, [r7, #20]
 8002f32:	683b      	ldr	r3, [r7, #0]
 8002f34:	2200      	movs	r2, #0
 8002f36:	609a      	str	r2, [r3, #8]
 8002f38:	2300      	movs	r3, #0
 8002f3a:	61fb      	str	r3, [r7, #28]
 8002f3c:	e036      	b.n	8002fac <sp_256_to_mp+0x9c>
 8002f3e:	683b      	ldr	r3, [r7, #0]
 8002f40:	69ba      	ldr	r2, [r7, #24]
 8002f42:	3202      	adds	r2, #2
 8002f44:	f853 2022 	ldr.w	r2, [r3, r2, lsl #2]
 8002f48:	69fb      	ldr	r3, [r7, #28]
 8002f4a:	009b      	lsls	r3, r3, #2
 8002f4c:	6879      	ldr	r1, [r7, #4]
 8002f4e:	440b      	add	r3, r1
 8002f50:	681b      	ldr	r3, [r3, #0]
 8002f52:	4619      	mov	r1, r3
 8002f54:	697b      	ldr	r3, [r7, #20]
 8002f56:	fa01 f303 	lsl.w	r3, r1, r3
 8002f5a:	ea42 0103 	orr.w	r1, r2, r3
 8002f5e:	683b      	ldr	r3, [r7, #0]
 8002f60:	69ba      	ldr	r2, [r7, #24]
 8002f62:	3202      	adds	r2, #2
 8002f64:	f843 1022 	str.w	r1, [r3, r2, lsl #2]
 8002f68:	697b      	ldr	r3, [r7, #20]
 8002f6a:	2b05      	cmp	r3, #5
 8002f6c:	dd18      	ble.n	8002fa0 <sp_256_to_mp+0x90>
 8002f6e:	697b      	ldr	r3, [r7, #20]
 8002f70:	f1c3 0320 	rsb	r3, r3, #32
 8002f74:	617b      	str	r3, [r7, #20]
 8002f76:	69fb      	ldr	r3, [r7, #28]
 8002f78:	009b      	lsls	r3, r3, #2
 8002f7a:	687a      	ldr	r2, [r7, #4]
 8002f7c:	4413      	add	r3, r2
 8002f7e:	681a      	ldr	r2, [r3, #0]
 8002f80:	697b      	ldr	r3, [r7, #20]
 8002f82:	411a      	asrs	r2, r3
 8002f84:	69bb      	ldr	r3, [r7, #24]
 8002f86:	3301      	adds	r3, #1
 8002f88:	61bb      	str	r3, [r7, #24]
 8002f8a:	4611      	mov	r1, r2
 8002f8c:	683b      	ldr	r3, [r7, #0]
 8002f8e:	69ba      	ldr	r2, [r7, #24]
 8002f90:	3202      	adds	r2, #2
 8002f92:	f843 1022 	str.w	r1, [r3, r2, lsl #2]
 8002f96:	697b      	ldr	r3, [r7, #20]
 8002f98:	f1c3 031a 	rsb	r3, r3, #26
 8002f9c:	617b      	str	r3, [r7, #20]
 8002f9e:	e002      	b.n	8002fa6 <sp_256_to_mp+0x96>
 8002fa0:	697b      	ldr	r3, [r7, #20]
 8002fa2:	331a      	adds	r3, #26
 8002fa4:	617b      	str	r3, [r7, #20]
 8002fa6:	69fb      	ldr	r3, [r7, #28]
 8002fa8:	3301      	adds	r3, #1
 8002faa:	61fb      	str	r3, [r7, #28]
 8002fac:	69fb      	ldr	r3, [r7, #28]
 8002fae:	2b09      	cmp	r3, #9
 8002fb0:	ddc5      	ble.n	8002f3e <sp_256_to_mp+0x2e>
 8002fb2:	683b      	ldr	r3, [r7, #0]
 8002fb4:	2208      	movs	r2, #8
 8002fb6:	601a      	str	r2, [r3, #0]
 8002fb8:	683b      	ldr	r3, [r7, #0]
 8002fba:	681b      	ldr	r3, [r3, #0]
 8002fbc:	3b01      	subs	r3, #1
 8002fbe:	613b      	str	r3, [r7, #16]
 8002fc0:	e002      	b.n	8002fc8 <sp_256_to_mp+0xb8>
 8002fc2:	693b      	ldr	r3, [r7, #16]
 8002fc4:	3b01      	subs	r3, #1
 8002fc6:	613b      	str	r3, [r7, #16]
 8002fc8:	693b      	ldr	r3, [r7, #16]
 8002fca:	2b00      	cmp	r3, #0
 8002fcc:	db06      	blt.n	8002fdc <sp_256_to_mp+0xcc>
 8002fce:	683b      	ldr	r3, [r7, #0]
 8002fd0:	693a      	ldr	r2, [r7, #16]
 8002fd2:	3202      	adds	r2, #2
 8002fd4:	f853 3022 	ldr.w	r3, [r3, r2, lsl #2]
 8002fd8:	2b00      	cmp	r3, #0
 8002fda:	d0f2      	beq.n	8002fc2 <sp_256_to_mp+0xb2>
 8002fdc:	693b      	ldr	r3, [r7, #16]
 8002fde:	1c5a      	adds	r2, r3, #1
 8002fe0:	683b      	ldr	r3, [r7, #0]
 8002fe2:	601a      	str	r2, [r3, #0]
 8002fe4:	68fb      	ldr	r3, [r7, #12]
 8002fe6:	4618      	mov	r0, r3
 8002fe8:	3720      	adds	r7, #32
 8002fea:	46bd      	mov	sp, r7
 8002fec:	bd80      	pop	{r7, pc}

08002fee <sp_256_point_to_ecc_point_10>:
 8002fee:	b580      	push	{r7, lr}
 8002ff0:	b084      	sub	sp, #16
 8002ff2:	af00      	add	r7, sp, #0
 8002ff4:	6078      	str	r0, [r7, #4]
 8002ff6:	6039      	str	r1, [r7, #0]
 8002ff8:	687b      	ldr	r3, [r7, #4]
 8002ffa:	683a      	ldr	r2, [r7, #0]
 8002ffc:	4611      	mov	r1, r2
 8002ffe:	4618      	mov	r0, r3
 8003000:	f7ff ff86 	bl	8002f10 <sp_256_to_mp>
 8003004:	60f8      	str	r0, [r7, #12]
 8003006:	68fb      	ldr	r3, [r7, #12]
 8003008:	2b00      	cmp	r3, #0
 800300a:	d109      	bne.n	8003020 <sp_256_point_to_ecc_point_10+0x32>
 800300c:	687b      	ldr	r3, [r7, #4]
 800300e:	f103 0250 	add.w	r2, r3, #80	; 0x50
 8003012:	683b      	ldr	r3, [r7, #0]
 8003014:	3350      	adds	r3, #80	; 0x50
 8003016:	4619      	mov	r1, r3
 8003018:	4610      	mov	r0, r2
 800301a:	f7ff ff79 	bl	8002f10 <sp_256_to_mp>
 800301e:	60f8      	str	r0, [r7, #12]
 8003020:	68fb      	ldr	r3, [r7, #12]
 8003022:	2b00      	cmp	r3, #0
 8003024:	d109      	bne.n	800303a <sp_256_point_to_ecc_point_10+0x4c>
 8003026:	687b      	ldr	r3, [r7, #4]
 8003028:	f103 02a0 	add.w	r2, r3, #160	; 0xa0
 800302c:	683b      	ldr	r3, [r7, #0]
 800302e:	33a0      	adds	r3, #160	; 0xa0
 8003030:	4619      	mov	r1, r3
 8003032:	4610      	mov	r0, r2
 8003034:	f7ff ff6c 	bl	8002f10 <sp_256_to_mp>
 8003038:	60f8      	str	r0, [r7, #12]
 800303a:	68fb      	ldr	r3, [r7, #12]
 800303c:	4618      	mov	r0, r3
 800303e:	3710      	adds	r7, #16
 8003040:	46bd      	mov	sp, r7
 8003042:	bd80      	pop	{r7, pc}

08003044 <sp_256_cmp_10>:
 8003044:	b480      	push	{r7}
 8003046:	b085      	sub	sp, #20
 8003048:	af00      	add	r7, sp, #0
 800304a:	6078      	str	r0, [r7, #4]
 800304c:	6039      	str	r1, [r7, #0]
 800304e:	2300      	movs	r3, #0
 8003050:	60fb      	str	r3, [r7, #12]
 8003052:	2309      	movs	r3, #9
 8003054:	60bb      	str	r3, [r7, #8]
 8003056:	e018      	b.n	800308a <sp_256_cmp_10+0x46>
 8003058:	68bb      	ldr	r3, [r7, #8]
 800305a:	009b      	lsls	r3, r3, #2
 800305c:	687a      	ldr	r2, [r7, #4]
 800305e:	4413      	add	r3, r2
 8003060:	681a      	ldr	r2, [r3, #0]
 8003062:	68bb      	ldr	r3, [r7, #8]
 8003064:	009b      	lsls	r3, r3, #2
 8003066:	6839      	ldr	r1, [r7, #0]
 8003068:	440b      	add	r3, r1
 800306a:	681b      	ldr	r3, [r3, #0]
 800306c:	1ad2      	subs	r2, r2, r3
 800306e:	68fb      	ldr	r3, [r7, #12]
 8003070:	2b00      	cmp	r3, #0
 8003072:	bf0c      	ite	eq
 8003074:	2301      	moveq	r3, #1
 8003076:	2300      	movne	r3, #0
 8003078:	b2db      	uxtb	r3, r3
 800307a:	425b      	negs	r3, r3
 800307c:	4013      	ands	r3, r2
 800307e:	68fa      	ldr	r2, [r7, #12]
 8003080:	4313      	orrs	r3, r2
 8003082:	60fb      	str	r3, [r7, #12]
 8003084:	68bb      	ldr	r3, [r7, #8]
 8003086:	3b01      	subs	r3, #1
 8003088:	60bb      	str	r3, [r7, #8]
 800308a:	68bb      	ldr	r3, [r7, #8]
 800308c:	2b00      	cmp	r3, #0
 800308e:	dae3      	bge.n	8003058 <sp_256_cmp_10+0x14>
 8003090:	68fb      	ldr	r3, [r7, #12]
 8003092:	4618      	mov	r0, r3
 8003094:	3714      	adds	r7, #20
 8003096:	46bd      	mov	sp, r7
 8003098:	bc80      	pop	{r7}
 800309a:	4770      	bx	lr

0800309c <sp_256_cond_sub_10>:
 800309c:	b480      	push	{r7}
 800309e:	b087      	sub	sp, #28
 80030a0:	af00      	add	r7, sp, #0
 80030a2:	60f8      	str	r0, [r7, #12]
 80030a4:	60b9      	str	r1, [r7, #8]
 80030a6:	607a      	str	r2, [r7, #4]
 80030a8:	603b      	str	r3, [r7, #0]
 80030aa:	2300      	movs	r3, #0
 80030ac:	617b      	str	r3, [r7, #20]
 80030ae:	e014      	b.n	80030da <sp_256_cond_sub_10+0x3e>
 80030b0:	697b      	ldr	r3, [r7, #20]
 80030b2:	009b      	lsls	r3, r3, #2
 80030b4:	68ba      	ldr	r2, [r7, #8]
 80030b6:	4413      	add	r3, r2
 80030b8:	6819      	ldr	r1, [r3, #0]
 80030ba:	697b      	ldr	r3, [r7, #20]
 80030bc:	009b      	lsls	r3, r3, #2
 80030be:	687a      	ldr	r2, [r7, #4]
 80030c0:	4413      	add	r3, r2
 80030c2:	681a      	ldr	r2, [r3, #0]
 80030c4:	683b      	ldr	r3, [r7, #0]
 80030c6:	401a      	ands	r2, r3
 80030c8:	697b      	ldr	r3, [r7, #20]
 80030ca:	009b      	lsls	r3, r3, #2
 80030cc:	68f8      	ldr	r0, [r7, #12]
 80030ce:	4403      	add	r3, r0
 80030d0:	1a8a      	subs	r2, r1, r2
 80030d2:	601a      	str	r2, [r3, #0]
 80030d4:	697b      	ldr	r3, [r7, #20]
 80030d6:	3301      	adds	r3, #1
 80030d8:	617b      	str	r3, [r7, #20]
 80030da:	697b      	ldr	r3, [r7, #20]
 80030dc:	2b09      	cmp	r3, #9
 80030de:	dde7      	ble.n	80030b0 <sp_256_cond_sub_10+0x14>
 80030e0:	bf00      	nop
 80030e2:	bf00      	nop
 80030e4:	371c      	adds	r7, #28
 80030e6:	46bd      	mov	sp, r7
 80030e8:	bc80      	pop	{r7}
 80030ea:	4770      	bx	lr

080030ec <sp_256_mul_add_10>:
 80030ec:	e92d 03b0 	stmdb	sp!, {r4, r5, r7, r8, r9}
 80030f0:	b08b      	sub	sp, #44	; 0x2c
 80030f2:	af00      	add	r7, sp, #0
 80030f4:	60f8      	str	r0, [r7, #12]
 80030f6:	60b9      	str	r1, [r7, #8]
 80030f8:	607a      	str	r2, [r7, #4]
 80030fa:	687b      	ldr	r3, [r7, #4]
 80030fc:	461a      	mov	r2, r3
 80030fe:	ea4f 73e2 	mov.w	r3, r2, asr #31
 8003102:	e9c7 2304 	strd	r2, r3, [r7, #16]
 8003106:	f04f 0200 	mov.w	r2, #0
 800310a:	f04f 0300 	mov.w	r3, #0
 800310e:	e9c7 2308 	strd	r2, r3, [r7, #32]
 8003112:	2300      	movs	r3, #0
 8003114:	61fb      	str	r3, [r7, #28]
 8003116:	e03d      	b.n	8003194 <sp_256_mul_add_10+0xa8>
 8003118:	69fb      	ldr	r3, [r7, #28]
 800311a:	009b      	lsls	r3, r3, #2
 800311c:	68ba      	ldr	r2, [r7, #8]
 800311e:	4413      	add	r3, r2
 8003120:	681b      	ldr	r3, [r3, #0]
 8003122:	461a      	mov	r2, r3
 8003124:	ea4f 73e2 	mov.w	r3, r2, asr #31
 8003128:	6939      	ldr	r1, [r7, #16]
 800312a:	fb03 f001 	mul.w	r0, r3, r1
 800312e:	6979      	ldr	r1, [r7, #20]
 8003130:	fb02 f101 	mul.w	r1, r2, r1
 8003134:	4401      	add	r1, r0
 8003136:	6938      	ldr	r0, [r7, #16]
 8003138:	fba0 2302 	umull	r2, r3, r0, r2
 800313c:	4419      	add	r1, r3
 800313e:	460b      	mov	r3, r1
 8003140:	69f9      	ldr	r1, [r7, #28]
 8003142:	0089      	lsls	r1, r1, #2
 8003144:	68f8      	ldr	r0, [r7, #12]
 8003146:	4401      	add	r1, r0
 8003148:	6809      	ldr	r1, [r1, #0]
 800314a:	4608      	mov	r0, r1
 800314c:	ea4f 71e0 	mov.w	r1, r0, asr #31
 8003150:	1814      	adds	r4, r2, r0
 8003152:	eb43 0501 	adc.w	r5, r3, r1
 8003156:	e9d7 2308 	ldrd	r2, r3, [r7, #32]
 800315a:	eb12 0804 	adds.w	r8, r2, r4
 800315e:	eb43 0905 	adc.w	r9, r3, r5
 8003162:	e9c7 8908 	strd	r8, r9, [r7, #32]
 8003166:	6a3a      	ldr	r2, [r7, #32]
 8003168:	69fb      	ldr	r3, [r7, #28]
 800316a:	009b      	lsls	r3, r3, #2
 800316c:	68f9      	ldr	r1, [r7, #12]
 800316e:	440b      	add	r3, r1
 8003170:	f022 427c 	bic.w	r2, r2, #4227858432	; 0xfc000000
 8003174:	601a      	str	r2, [r3, #0]
 8003176:	e9d7 0108 	ldrd	r0, r1, [r7, #32]
 800317a:	f04f 0200 	mov.w	r2, #0
 800317e:	f04f 0300 	mov.w	r3, #0
 8003182:	0e82      	lsrs	r2, r0, #26
 8003184:	ea42 1281 	orr.w	r2, r2, r1, lsl #6
 8003188:	168b      	asrs	r3, r1, #26
 800318a:	e9c7 2308 	strd	r2, r3, [r7, #32]
 800318e:	69fb      	ldr	r3, [r7, #28]
 8003190:	3301      	adds	r3, #1
 8003192:	61fb      	str	r3, [r7, #28]
 8003194:	69fb      	ldr	r3, [r7, #28]
 8003196:	2b09      	cmp	r3, #9
 8003198:	ddbe      	ble.n	8003118 <sp_256_mul_add_10+0x2c>
 800319a:	68fb      	ldr	r3, [r7, #12]
 800319c:	3328      	adds	r3, #40	; 0x28
 800319e:	6819      	ldr	r1, [r3, #0]
 80031a0:	6a3a      	ldr	r2, [r7, #32]
 80031a2:	68fb      	ldr	r3, [r7, #12]
 80031a4:	3328      	adds	r3, #40	; 0x28
 80031a6:	440a      	add	r2, r1
 80031a8:	601a      	str	r2, [r3, #0]
 80031aa:	bf00      	nop
 80031ac:	372c      	adds	r7, #44	; 0x2c
 80031ae:	46bd      	mov	sp, r7
 80031b0:	e8bd 03b0 	ldmia.w	sp!, {r4, r5, r7, r8, r9}
 80031b4:	4770      	bx	lr

080031b6 <sp_256_norm_10>:
 80031b6:	b480      	push	{r7}
 80031b8:	b085      	sub	sp, #20
 80031ba:	af00      	add	r7, sp, #0
 80031bc:	6078      	str	r0, [r7, #4]
 80031be:	2300      	movs	r3, #0
 80031c0:	60fb      	str	r3, [r7, #12]
 80031c2:	e021      	b.n	8003208 <sp_256_norm_10+0x52>
 80031c4:	68fb      	ldr	r3, [r7, #12]
 80031c6:	3301      	adds	r3, #1
 80031c8:	009b      	lsls	r3, r3, #2
 80031ca:	687a      	ldr	r2, [r7, #4]
 80031cc:	4413      	add	r3, r2
 80031ce:	6819      	ldr	r1, [r3, #0]
 80031d0:	68fb      	ldr	r3, [r7, #12]
 80031d2:	009b      	lsls	r3, r3, #2
 80031d4:	687a      	ldr	r2, [r7, #4]
 80031d6:	4413      	add	r3, r2
 80031d8:	681b      	ldr	r3, [r3, #0]
 80031da:	169a      	asrs	r2, r3, #26
 80031dc:	68fb      	ldr	r3, [r7, #12]
 80031de:	3301      	adds	r3, #1
 80031e0:	009b      	lsls	r3, r3, #2
 80031e2:	6878      	ldr	r0, [r7, #4]
 80031e4:	4403      	add	r3, r0
 80031e6:	440a      	add	r2, r1
 80031e8:	601a      	str	r2, [r3, #0]
 80031ea:	68fb      	ldr	r3, [r7, #12]
 80031ec:	009b      	lsls	r3, r3, #2
 80031ee:	687a      	ldr	r2, [r7, #4]
 80031f0:	4413      	add	r3, r2
 80031f2:	681a      	ldr	r2, [r3, #0]
 80031f4:	68fb      	ldr	r3, [r7, #12]
 80031f6:	009b      	lsls	r3, r3, #2
 80031f8:	6879      	ldr	r1, [r7, #4]
 80031fa:	440b      	add	r3, r1
 80031fc:	f022 427c 	bic.w	r2, r2, #4227858432	; 0xfc000000
 8003200:	601a      	str	r2, [r3, #0]
 8003202:	68fb      	ldr	r3, [r7, #12]
 8003204:	3301      	adds	r3, #1
 8003206:	60fb      	str	r3, [r7, #12]
 8003208:	68fb      	ldr	r3, [r7, #12]
 800320a:	2b08      	cmp	r3, #8
 800320c:	ddda      	ble.n	80031c4 <sp_256_norm_10+0xe>
 800320e:	bf00      	nop
 8003210:	bf00      	nop
 8003212:	3714      	adds	r7, #20
 8003214:	46bd      	mov	sp, r7
 8003216:	bc80      	pop	{r7}
 8003218:	4770      	bx	lr

0800321a <sp_256_mont_shift_10>:
 800321a:	b580      	push	{r7, lr}
 800321c:	b086      	sub	sp, #24
 800321e:	af00      	add	r7, sp, #0
 8003220:	6078      	str	r0, [r7, #4]
 8003222:	6039      	str	r1, [r7, #0]
 8003224:	683b      	ldr	r3, [r7, #0]
 8003226:	6a9b      	ldr	r3, [r3, #40]	; 0x28
 8003228:	60fb      	str	r3, [r7, #12]
 800322a:	683b      	ldr	r3, [r7, #0]
 800322c:	3324      	adds	r3, #36	; 0x24
 800322e:	681b      	ldr	r3, [r3, #0]
 8003230:	159b      	asrs	r3, r3, #22
 8003232:	613b      	str	r3, [r7, #16]
 8003234:	2300      	movs	r3, #0
 8003236:	617b      	str	r3, [r7, #20]
 8003238:	e020      	b.n	800327c <sp_256_mont_shift_10+0x62>
 800323a:	68fb      	ldr	r3, [r7, #12]
 800323c:	011b      	lsls	r3, r3, #4
 800323e:	f023 4340 	bic.w	r3, r3, #3221225472	; 0xc0000000
 8003242:	f023 030f 	bic.w	r3, r3, #15
 8003246:	693a      	ldr	r2, [r7, #16]
 8003248:	4413      	add	r3, r2
 800324a:	613b      	str	r3, [r7, #16]
 800324c:	697b      	ldr	r3, [r7, #20]
 800324e:	009b      	lsls	r3, r3, #2
 8003250:	687a      	ldr	r2, [r7, #4]
 8003252:	4413      	add	r3, r2
 8003254:	693a      	ldr	r2, [r7, #16]
 8003256:	f022 427c 	bic.w	r2, r2, #4227858432	; 0xfc000000
 800325a:	601a      	str	r2, [r3, #0]
 800325c:	693b      	ldr	r3, [r7, #16]
 800325e:	169b      	asrs	r3, r3, #26
 8003260:	613b      	str	r3, [r7, #16]
 8003262:	697b      	ldr	r3, [r7, #20]
 8003264:	330b      	adds	r3, #11
 8003266:	009b      	lsls	r3, r3, #2
 8003268:	683a      	ldr	r2, [r7, #0]
 800326a:	4413      	add	r3, r2
 800326c:	681a      	ldr	r2, [r3, #0]
 800326e:	68fb      	ldr	r3, [r7, #12]
 8003270:	169b      	asrs	r3, r3, #26
 8003272:	4413      	add	r3, r2
 8003274:	60fb      	str	r3, [r7, #12]
 8003276:	697b      	ldr	r3, [r7, #20]
 8003278:	3301      	adds	r3, #1
 800327a:	617b      	str	r3, [r7, #20]
 800327c:	697b      	ldr	r3, [r7, #20]
 800327e:	2b08      	cmp	r3, #8
 8003280:	dddb      	ble.n	800323a <sp_256_mont_shift_10+0x20>
 8003282:	68fb      	ldr	r3, [r7, #12]
 8003284:	011b      	lsls	r3, r3, #4
 8003286:	693a      	ldr	r2, [r7, #16]
 8003288:	4413      	add	r3, r2
 800328a:	613b      	str	r3, [r7, #16]
 800328c:	687b      	ldr	r3, [r7, #4]
 800328e:	3324      	adds	r3, #36	; 0x24
 8003290:	693a      	ldr	r2, [r7, #16]
 8003292:	601a      	str	r2, [r3, #0]
 8003294:	687b      	ldr	r3, [r7, #4]
 8003296:	3328      	adds	r3, #40	; 0x28
 8003298:	2228      	movs	r2, #40	; 0x28
 800329a:	2100      	movs	r1, #0
 800329c:	4618      	mov	r0, r3
 800329e:	f7fd fb10 	bl	80008c2 <memset>
 80032a2:	bf00      	nop
 80032a4:	3718      	adds	r7, #24
 80032a6:	46bd      	mov	sp, r7
 80032a8:	bd80      	pop	{r7, pc}
	...

080032ac <sp_256_mont_reduce_10>:
 80032ac:	b580      	push	{r7, lr}
 80032ae:	b086      	sub	sp, #24
 80032b0:	af00      	add	r7, sp, #0
 80032b2:	60f8      	str	r0, [r7, #12]
 80032b4:	60b9      	str	r1, [r7, #8]
 80032b6:	607a      	str	r2, [r7, #4]
 80032b8:	687b      	ldr	r3, [r7, #4]
 80032ba:	2b01      	cmp	r3, #1
 80032bc:	d063      	beq.n	8003386 <sp_256_mont_reduce_10+0xda>
 80032be:	2300      	movs	r3, #0
 80032c0:	617b      	str	r3, [r7, #20]
 80032c2:	e029      	b.n	8003318 <sp_256_mont_reduce_10+0x6c>
 80032c4:	697b      	ldr	r3, [r7, #20]
 80032c6:	009b      	lsls	r3, r3, #2
 80032c8:	68fa      	ldr	r2, [r7, #12]
 80032ca:	4413      	add	r3, r2
 80032cc:	681b      	ldr	r3, [r3, #0]
 80032ce:	687a      	ldr	r2, [r7, #4]
 80032d0:	fb02 f303 	mul.w	r3, r2, r3
 80032d4:	f023 437c 	bic.w	r3, r3, #4227858432	; 0xfc000000
 80032d8:	613b      	str	r3, [r7, #16]
 80032da:	697b      	ldr	r3, [r7, #20]
 80032dc:	009b      	lsls	r3, r3, #2
 80032de:	68fa      	ldr	r2, [r7, #12]
 80032e0:	4413      	add	r3, r2
 80032e2:	693a      	ldr	r2, [r7, #16]
 80032e4:	68b9      	ldr	r1, [r7, #8]
 80032e6:	4618      	mov	r0, r3
 80032e8:	f7ff ff00 	bl	80030ec <sp_256_mul_add_10>
 80032ec:	697b      	ldr	r3, [r7, #20]
 80032ee:	3301      	adds	r3, #1
 80032f0:	009b      	lsls	r3, r3, #2
 80032f2:	68fa      	ldr	r2, [r7, #12]
 80032f4:	4413      	add	r3, r2
 80032f6:	6819      	ldr	r1, [r3, #0]
 80032f8:	697b      	ldr	r3, [r7, #20]
 80032fa:	009b      	lsls	r3, r3, #2
 80032fc:	68fa      	ldr	r2, [r7, #12]
 80032fe:	4413      	add	r3, r2
 8003300:	681b      	ldr	r3, [r3, #0]
 8003302:	169a      	asrs	r2, r3, #26
 8003304:	697b      	ldr	r3, [r7, #20]
 8003306:	3301      	adds	r3, #1
 8003308:	009b      	lsls	r3, r3, #2
 800330a:	68f8      	ldr	r0, [r7, #12]
 800330c:	4403      	add	r3, r0
 800330e:	440a      	add	r2, r1
 8003310:	601a      	str	r2, [r3, #0]
 8003312:	697b      	ldr	r3, [r7, #20]
 8003314:	3301      	adds	r3, #1
 8003316:	617b      	str	r3, [r7, #20]
 8003318:	697b      	ldr	r3, [r7, #20]
 800331a:	2b08      	cmp	r3, #8
 800331c:	ddd2      	ble.n	80032c4 <sp_256_mont_reduce_10+0x18>
 800331e:	697b      	ldr	r3, [r7, #20]
 8003320:	009b      	lsls	r3, r3, #2
 8003322:	68fa      	ldr	r2, [r7, #12]
 8003324:	4413      	add	r3, r2
 8003326:	681b      	ldr	r3, [r3, #0]
 8003328:	687a      	ldr	r2, [r7, #4]
 800332a:	fb02 f303 	mul.w	r3, r2, r3
 800332e:	f3c3 0315 	ubfx	r3, r3, #0, #22
 8003332:	613b      	str	r3, [r7, #16]
 8003334:	697b      	ldr	r3, [r7, #20]
 8003336:	009b      	lsls	r3, r3, #2
 8003338:	68fa      	ldr	r2, [r7, #12]
 800333a:	4413      	add	r3, r2
 800333c:	693a      	ldr	r2, [r7, #16]
 800333e:	68b9      	ldr	r1, [r7, #8]
 8003340:	4618      	mov	r0, r3
 8003342:	f7ff fed3 	bl	80030ec <sp_256_mul_add_10>
 8003346:	697b      	ldr	r3, [r7, #20]
 8003348:	3301      	adds	r3, #1
 800334a:	009b      	lsls	r3, r3, #2
 800334c:	68fa      	ldr	r2, [r7, #12]
 800334e:	4413      	add	r3, r2
 8003350:	6819      	ldr	r1, [r3, #0]
 8003352:	697b      	ldr	r3, [r7, #20]
 8003354:	009b      	lsls	r3, r3, #2
 8003356:	68fa      	ldr	r2, [r7, #12]
 8003358:	4413      	add	r3, r2
 800335a:	681b      	ldr	r3, [r3, #0]
 800335c:	169a      	asrs	r2, r3, #26
 800335e:	697b      	ldr	r3, [r7, #20]
 8003360:	3301      	adds	r3, #1
 8003362:	009b      	lsls	r3, r3, #2
 8003364:	68f8      	ldr	r0, [r7, #12]
 8003366:	4403      	add	r3, r0
 8003368:	440a      	add	r2, r1
 800336a:	601a      	str	r2, [r3, #0]
 800336c:	697b      	ldr	r3, [r7, #20]
 800336e:	009b      	lsls	r3, r3, #2
 8003370:	68fa      	ldr	r2, [r7, #12]
 8003372:	4413      	add	r3, r2
 8003374:	681a      	ldr	r2, [r3, #0]
 8003376:	697b      	ldr	r3, [r7, #20]
 8003378:	009b      	lsls	r3, r3, #2
 800337a:	68f9      	ldr	r1, [r7, #12]
 800337c:	440b      	add	r3, r1
 800337e:	f022 427c 	bic.w	r2, r2, #4227858432	; 0xfc000000
 8003382:	601a      	str	r2, [r3, #0]
 8003384:	e05c      	b.n	8003440 <sp_256_mont_reduce_10+0x194>
 8003386:	2300      	movs	r3, #0
 8003388:	617b      	str	r3, [r7, #20]
 800338a:	e026      	b.n	80033da <sp_256_mont_reduce_10+0x12e>
 800338c:	697b      	ldr	r3, [r7, #20]
 800338e:	009b      	lsls	r3, r3, #2
 8003390:	68fa      	ldr	r2, [r7, #12]
 8003392:	4413      	add	r3, r2
 8003394:	681b      	ldr	r3, [r3, #0]
 8003396:	f023 437c 	bic.w	r3, r3, #4227858432	; 0xfc000000
 800339a:	613b      	str	r3, [r7, #16]
 800339c:	697b      	ldr	r3, [r7, #20]
 800339e:	009b      	lsls	r3, r3, #2
 80033a0:	68fa      	ldr	r2, [r7, #12]
 80033a2:	4413      	add	r3, r2
 80033a4:	693a      	ldr	r2, [r7, #16]
 80033a6:	4933      	ldr	r1, [pc, #204]	; (8003474 <sp_256_mont_reduce_10+0x1c8>)
 80033a8:	4618      	mov	r0, r3
 80033aa:	f7ff fe9f 	bl	80030ec <sp_256_mul_add_10>
 80033ae:	697b      	ldr	r3, [r7, #20]
 80033b0:	3301      	adds	r3, #1
 80033b2:	009b      	lsls	r3, r3, #2
 80033b4:	68fa      	ldr	r2, [r7, #12]
 80033b6:	4413      	add	r3, r2
 80033b8:	6819      	ldr	r1, [r3, #0]
 80033ba:	697b      	ldr	r3, [r7, #20]
 80033bc:	009b      	lsls	r3, r3, #2
 80033be:	68fa      	ldr	r2, [r7, #12]
 80033c0:	4413      	add	r3, r2
 80033c2:	681b      	ldr	r3, [r3, #0]
 80033c4:	169a      	asrs	r2, r3, #26
 80033c6:	697b      	ldr	r3, [r7, #20]
 80033c8:	3301      	adds	r3, #1
 80033ca:	009b      	lsls	r3, r3, #2
 80033cc:	68f8      	ldr	r0, [r7, #12]
 80033ce:	4403      	add	r3, r0
 80033d0:	440a      	add	r2, r1
 80033d2:	601a      	str	r2, [r3, #0]
 80033d4:	697b      	ldr	r3, [r7, #20]
 80033d6:	3301      	adds	r3, #1
 80033d8:	617b      	str	r3, [r7, #20]
 80033da:	697b      	ldr	r3, [r7, #20]
 80033dc:	2b08      	cmp	r3, #8
 80033de:	ddd5      	ble.n	800338c <sp_256_mont_reduce_10+0xe0>
 80033e0:	697b      	ldr	r3, [r7, #20]
 80033e2:	009b      	lsls	r3, r3, #2
 80033e4:	68fa      	ldr	r2, [r7, #12]
 80033e6:	4413      	add	r3, r2
 80033e8:	681b      	ldr	r3, [r3, #0]
 80033ea:	f3c3 0315 	ubfx	r3, r3, #0, #22
 80033ee:	613b      	str	r3, [r7, #16]
 80033f0:	697b      	ldr	r3, [r7, #20]
 80033f2:	009b      	lsls	r3, r3, #2
 80033f4:	68fa      	ldr	r2, [r7, #12]
 80033f6:	4413      	add	r3, r2
 80033f8:	693a      	ldr	r2, [r7, #16]
 80033fa:	491e      	ldr	r1, [pc, #120]	; (8003474 <sp_256_mont_reduce_10+0x1c8>)
 80033fc:	4618      	mov	r0, r3
 80033fe:	f7ff fe75 	bl	80030ec <sp_256_mul_add_10>
 8003402:	697b      	ldr	r3, [r7, #20]
 8003404:	3301      	adds	r3, #1
 8003406:	009b      	lsls	r3, r3, #2
 8003408:	68fa      	ldr	r2, [r7, #12]
 800340a:	4413      	add	r3, r2
 800340c:	6819      	ldr	r1, [r3, #0]
 800340e:	697b      	ldr	r3, [r7, #20]
 8003410:	009b      	lsls	r3, r3, #2
 8003412:	68fa      	ldr	r2, [r7, #12]
 8003414:	4413      	add	r3, r2
 8003416:	681b      	ldr	r3, [r3, #0]
 8003418:	169a      	asrs	r2, r3, #26
 800341a:	697b      	ldr	r3, [r7, #20]
 800341c:	3301      	adds	r3, #1
 800341e:	009b      	lsls	r3, r3, #2
 8003420:	68f8      	ldr	r0, [r7, #12]
 8003422:	4403      	add	r3, r0
 8003424:	440a      	add	r2, r1
 8003426:	601a      	str	r2, [r3, #0]
 8003428:	697b      	ldr	r3, [r7, #20]
 800342a:	009b      	lsls	r3, r3, #2
 800342c:	68fa      	ldr	r2, [r7, #12]
 800342e:	4413      	add	r3, r2
 8003430:	681a      	ldr	r2, [r3, #0]
 8003432:	697b      	ldr	r3, [r7, #20]
 8003434:	009b      	lsls	r3, r3, #2
 8003436:	68f9      	ldr	r1, [r7, #12]
 8003438:	440b      	add	r3, r1
 800343a:	f022 427c 	bic.w	r2, r2, #4227858432	; 0xfc000000
 800343e:	601a      	str	r2, [r3, #0]
 8003440:	68f9      	ldr	r1, [r7, #12]
 8003442:	68f8      	ldr	r0, [r7, #12]
 8003444:	f7ff fee9 	bl	800321a <sp_256_mont_shift_10>
 8003448:	68fb      	ldr	r3, [r7, #12]
 800344a:	3324      	adds	r3, #36	; 0x24
 800344c:	681b      	ldr	r3, [r3, #0]
 800344e:	159b      	asrs	r3, r3, #22
 8003450:	2b00      	cmp	r3, #0
 8003452:	bfcc      	ite	gt
 8003454:	2301      	movgt	r3, #1
 8003456:	2300      	movle	r3, #0
 8003458:	b2db      	uxtb	r3, r3
 800345a:	425b      	negs	r3, r3
 800345c:	68ba      	ldr	r2, [r7, #8]
 800345e:	68f9      	ldr	r1, [r7, #12]
 8003460:	68f8      	ldr	r0, [r7, #12]
 8003462:	f7ff fe1b 	bl	800309c <sp_256_cond_sub_10>
 8003466:	68f8      	ldr	r0, [r7, #12]
 8003468:	f7ff fea5 	bl	80031b6 <sp_256_norm_10>
 800346c:	bf00      	nop
 800346e:	3718      	adds	r7, #24
 8003470:	46bd      	mov	sp, r7
 8003472:	bd80      	pop	{r7, pc}
 8003474:	08006bb4 	.word	0x08006bb4

08003478 <sp_256_mont_mul_10>:
 8003478:	b580      	push	{r7, lr}
 800347a:	b084      	sub	sp, #16
 800347c:	af00      	add	r7, sp, #0
 800347e:	60f8      	str	r0, [r7, #12]
 8003480:	60b9      	str	r1, [r7, #8]
 8003482:	607a      	str	r2, [r7, #4]
 8003484:	603b      	str	r3, [r7, #0]
 8003486:	687a      	ldr	r2, [r7, #4]
 8003488:	68b9      	ldr	r1, [r7, #8]
 800348a:	68f8      	ldr	r0, [r7, #12]
 800348c:	f7ff fa76 	bl	800297c <sp_256_mul_10>
 8003490:	69ba      	ldr	r2, [r7, #24]
 8003492:	6839      	ldr	r1, [r7, #0]
 8003494:	68f8      	ldr	r0, [r7, #12]
 8003496:	f7ff ff09 	bl	80032ac <sp_256_mont_reduce_10>
 800349a:	bf00      	nop
 800349c:	3710      	adds	r7, #16
 800349e:	46bd      	mov	sp, r7
 80034a0:	bd80      	pop	{r7, pc}

080034a2 <sp_256_mont_sqr_10>:
 80034a2:	b580      	push	{r7, lr}
 80034a4:	b084      	sub	sp, #16
 80034a6:	af00      	add	r7, sp, #0
 80034a8:	60f8      	str	r0, [r7, #12]
 80034aa:	60b9      	str	r1, [r7, #8]
 80034ac:	607a      	str	r2, [r7, #4]
 80034ae:	603b      	str	r3, [r7, #0]
 80034b0:	68b9      	ldr	r1, [r7, #8]
 80034b2:	68f8      	ldr	r0, [r7, #12]
 80034b4:	f7ff fb34 	bl	8002b20 <sp_256_sqr_10>
 80034b8:	683a      	ldr	r2, [r7, #0]
 80034ba:	6879      	ldr	r1, [r7, #4]
 80034bc:	68f8      	ldr	r0, [r7, #12]
 80034be:	f7ff fef5 	bl	80032ac <sp_256_mont_reduce_10>
 80034c2:	bf00      	nop
 80034c4:	3710      	adds	r7, #16
 80034c6:	46bd      	mov	sp, r7
 80034c8:	bd80      	pop	{r7, pc}
	...

080034cc <sp_256_mont_inv_10>:
 80034cc:	b580      	push	{r7, lr}
 80034ce:	b088      	sub	sp, #32
 80034d0:	af02      	add	r7, sp, #8
 80034d2:	60f8      	str	r0, [r7, #12]
 80034d4:	60b9      	str	r1, [r7, #8]
 80034d6:	607a      	str	r2, [r7, #4]
 80034d8:	687b      	ldr	r3, [r7, #4]
 80034da:	613b      	str	r3, [r7, #16]
 80034dc:	2228      	movs	r2, #40	; 0x28
 80034de:	68b9      	ldr	r1, [r7, #8]
 80034e0:	6938      	ldr	r0, [r7, #16]
 80034e2:	f7fd fa1e 	bl	8000922 <memcpy>
 80034e6:	23fe      	movs	r3, #254	; 0xfe
 80034e8:	617b      	str	r3, [r7, #20]
 80034ea:	e027      	b.n	800353c <sp_256_mont_inv_10+0x70>
 80034ec:	2301      	movs	r3, #1
 80034ee:	4a19      	ldr	r2, [pc, #100]	; (8003554 <sp_256_mont_inv_10+0x88>)
 80034f0:	6939      	ldr	r1, [r7, #16]
 80034f2:	6938      	ldr	r0, [r7, #16]
 80034f4:	f7ff ffd5 	bl	80034a2 <sp_256_mont_sqr_10>
 80034f8:	697b      	ldr	r3, [r7, #20]
 80034fa:	2b00      	cmp	r3, #0
 80034fc:	da00      	bge.n	8003500 <sp_256_mont_inv_10+0x34>
 80034fe:	331f      	adds	r3, #31
 8003500:	115b      	asrs	r3, r3, #5
 8003502:	461a      	mov	r2, r3
 8003504:	4b14      	ldr	r3, [pc, #80]	; (8003558 <sp_256_mont_inv_10+0x8c>)
 8003506:	f853 2022 	ldr.w	r2, [r3, r2, lsl #2]
 800350a:	697b      	ldr	r3, [r7, #20]
 800350c:	4259      	negs	r1, r3
 800350e:	f003 031f 	and.w	r3, r3, #31
 8003512:	f001 011f 	and.w	r1, r1, #31
 8003516:	bf58      	it	pl
 8003518:	424b      	negpl	r3, r1
 800351a:	2101      	movs	r1, #1
 800351c:	fa01 f303 	lsl.w	r3, r1, r3
 8003520:	4013      	ands	r3, r2
 8003522:	2b00      	cmp	r3, #0
 8003524:	d007      	beq.n	8003536 <sp_256_mont_inv_10+0x6a>
 8003526:	2301      	movs	r3, #1
 8003528:	9300      	str	r3, [sp, #0]
 800352a:	4b0a      	ldr	r3, [pc, #40]	; (8003554 <sp_256_mont_inv_10+0x88>)
 800352c:	68ba      	ldr	r2, [r7, #8]
 800352e:	6939      	ldr	r1, [r7, #16]
 8003530:	6938      	ldr	r0, [r7, #16]
 8003532:	f7ff ffa1 	bl	8003478 <sp_256_mont_mul_10>
 8003536:	697b      	ldr	r3, [r7, #20]
 8003538:	3b01      	subs	r3, #1
 800353a:	617b      	str	r3, [r7, #20]
 800353c:	697b      	ldr	r3, [r7, #20]
 800353e:	2b00      	cmp	r3, #0
 8003540:	dad4      	bge.n	80034ec <sp_256_mont_inv_10+0x20>
 8003542:	2228      	movs	r2, #40	; 0x28
 8003544:	6939      	ldr	r1, [r7, #16]
 8003546:	68f8      	ldr	r0, [r7, #12]
 8003548:	f7fd f9eb 	bl	8000922 <memcpy>
 800354c:	bf00      	nop
 800354e:	3718      	adds	r7, #24
 8003550:	46bd      	mov	sp, r7
 8003552:	bd80      	pop	{r7, pc}
 8003554:	08006bb4 	.word	0x08006bb4
 8003558:	08006d48 	.word	0x08006d48

0800355c <sp_256_map_10>:
 800355c:	b580      	push	{r7, lr}
 800355e:	b08a      	sub	sp, #40	; 0x28
 8003560:	af02      	add	r7, sp, #8
 8003562:	60f8      	str	r0, [r7, #12]
 8003564:	60b9      	str	r1, [r7, #8]
 8003566:	607a      	str	r2, [r7, #4]
 8003568:	687b      	ldr	r3, [r7, #4]
 800356a:	61fb      	str	r3, [r7, #28]
 800356c:	687b      	ldr	r3, [r7, #4]
 800356e:	3350      	adds	r3, #80	; 0x50
 8003570:	61bb      	str	r3, [r7, #24]
 8003572:	68bb      	ldr	r3, [r7, #8]
 8003574:	f103 01a0 	add.w	r1, r3, #160	; 0xa0
 8003578:	687b      	ldr	r3, [r7, #4]
 800357a:	3350      	adds	r3, #80	; 0x50
 800357c:	461a      	mov	r2, r3
 800357e:	69f8      	ldr	r0, [r7, #28]
 8003580:	f7ff ffa4 	bl	80034cc <sp_256_mont_inv_10>
 8003584:	2301      	movs	r3, #1
 8003586:	4a3d      	ldr	r2, [pc, #244]	; (800367c <sp_256_map_10+0x120>)
 8003588:	69f9      	ldr	r1, [r7, #28]
 800358a:	69b8      	ldr	r0, [r7, #24]
 800358c:	f7ff ff89 	bl	80034a2 <sp_256_mont_sqr_10>
 8003590:	2301      	movs	r3, #1
 8003592:	9300      	str	r3, [sp, #0]
 8003594:	4b39      	ldr	r3, [pc, #228]	; (800367c <sp_256_map_10+0x120>)
 8003596:	69fa      	ldr	r2, [r7, #28]
 8003598:	69b9      	ldr	r1, [r7, #24]
 800359a:	69f8      	ldr	r0, [r7, #28]
 800359c:	f7ff ff6c 	bl	8003478 <sp_256_mont_mul_10>
 80035a0:	68f8      	ldr	r0, [r7, #12]
 80035a2:	68b9      	ldr	r1, [r7, #8]
 80035a4:	2301      	movs	r3, #1
 80035a6:	9300      	str	r3, [sp, #0]
 80035a8:	4b34      	ldr	r3, [pc, #208]	; (800367c <sp_256_map_10+0x120>)
 80035aa:	69ba      	ldr	r2, [r7, #24]
 80035ac:	f7ff ff64 	bl	8003478 <sp_256_mont_mul_10>
 80035b0:	68fb      	ldr	r3, [r7, #12]
 80035b2:	3328      	adds	r3, #40	; 0x28
 80035b4:	2228      	movs	r2, #40	; 0x28
 80035b6:	2100      	movs	r1, #0
 80035b8:	4618      	mov	r0, r3
 80035ba:	f7fd f982 	bl	80008c2 <memset>
 80035be:	68fb      	ldr	r3, [r7, #12]
 80035c0:	2201      	movs	r2, #1
 80035c2:	492e      	ldr	r1, [pc, #184]	; (800367c <sp_256_map_10+0x120>)
 80035c4:	4618      	mov	r0, r3
 80035c6:	f7ff fe71 	bl	80032ac <sp_256_mont_reduce_10>
 80035ca:	68fb      	ldr	r3, [r7, #12]
 80035cc:	492b      	ldr	r1, [pc, #172]	; (800367c <sp_256_map_10+0x120>)
 80035ce:	4618      	mov	r0, r3
 80035d0:	f7ff fd38 	bl	8003044 <sp_256_cmp_10>
 80035d4:	6178      	str	r0, [r7, #20]
 80035d6:	68f8      	ldr	r0, [r7, #12]
 80035d8:	68f9      	ldr	r1, [r7, #12]
 80035da:	697b      	ldr	r3, [r7, #20]
 80035dc:	43db      	mvns	r3, r3
 80035de:	0fdb      	lsrs	r3, r3, #31
 80035e0:	b2db      	uxtb	r3, r3
 80035e2:	425b      	negs	r3, r3
 80035e4:	4a25      	ldr	r2, [pc, #148]	; (800367c <sp_256_map_10+0x120>)
 80035e6:	f7ff fd59 	bl	800309c <sp_256_cond_sub_10>
 80035ea:	68fb      	ldr	r3, [r7, #12]
 80035ec:	4618      	mov	r0, r3
 80035ee:	f7ff fde2 	bl	80031b6 <sp_256_norm_10>
 80035f2:	68fb      	ldr	r3, [r7, #12]
 80035f4:	f103 0050 	add.w	r0, r3, #80	; 0x50
 80035f8:	68bb      	ldr	r3, [r7, #8]
 80035fa:	f103 0150 	add.w	r1, r3, #80	; 0x50
 80035fe:	2301      	movs	r3, #1
 8003600:	9300      	str	r3, [sp, #0]
 8003602:	4b1e      	ldr	r3, [pc, #120]	; (800367c <sp_256_map_10+0x120>)
 8003604:	69fa      	ldr	r2, [r7, #28]
 8003606:	f7ff ff37 	bl	8003478 <sp_256_mont_mul_10>
 800360a:	68fb      	ldr	r3, [r7, #12]
 800360c:	3350      	adds	r3, #80	; 0x50
 800360e:	3328      	adds	r3, #40	; 0x28
 8003610:	2228      	movs	r2, #40	; 0x28
 8003612:	2100      	movs	r1, #0
 8003614:	4618      	mov	r0, r3
 8003616:	f7fd f954 	bl	80008c2 <memset>
 800361a:	68fb      	ldr	r3, [r7, #12]
 800361c:	3350      	adds	r3, #80	; 0x50
 800361e:	2201      	movs	r2, #1
 8003620:	4916      	ldr	r1, [pc, #88]	; (800367c <sp_256_map_10+0x120>)
 8003622:	4618      	mov	r0, r3
 8003624:	f7ff fe42 	bl	80032ac <sp_256_mont_reduce_10>
 8003628:	68fb      	ldr	r3, [r7, #12]
 800362a:	3350      	adds	r3, #80	; 0x50
 800362c:	4913      	ldr	r1, [pc, #76]	; (800367c <sp_256_map_10+0x120>)
 800362e:	4618      	mov	r0, r3
 8003630:	f7ff fd08 	bl	8003044 <sp_256_cmp_10>
 8003634:	6178      	str	r0, [r7, #20]
 8003636:	68fb      	ldr	r3, [r7, #12]
 8003638:	f103 0050 	add.w	r0, r3, #80	; 0x50
 800363c:	68fb      	ldr	r3, [r7, #12]
 800363e:	f103 0150 	add.w	r1, r3, #80	; 0x50
 8003642:	697b      	ldr	r3, [r7, #20]
 8003644:	43db      	mvns	r3, r3
 8003646:	0fdb      	lsrs	r3, r3, #31
 8003648:	b2db      	uxtb	r3, r3
 800364a:	425b      	negs	r3, r3
 800364c:	4a0b      	ldr	r2, [pc, #44]	; (800367c <sp_256_map_10+0x120>)
 800364e:	f7ff fd25 	bl	800309c <sp_256_cond_sub_10>
 8003652:	68fb      	ldr	r3, [r7, #12]
 8003654:	3350      	adds	r3, #80	; 0x50
 8003656:	4618      	mov	r0, r3
 8003658:	f7ff fdad 	bl	80031b6 <sp_256_norm_10>
 800365c:	68fb      	ldr	r3, [r7, #12]
 800365e:	33a0      	adds	r3, #160	; 0xa0
 8003660:	2250      	movs	r2, #80	; 0x50
 8003662:	2100      	movs	r1, #0
 8003664:	4618      	mov	r0, r3
 8003666:	f7fd f92c 	bl	80008c2 <memset>
 800366a:	68fb      	ldr	r3, [r7, #12]
 800366c:	2201      	movs	r2, #1
 800366e:	f8c3 20a0 	str.w	r2, [r3, #160]	; 0xa0
 8003672:	bf00      	nop
 8003674:	3720      	adds	r7, #32
 8003676:	46bd      	mov	sp, r7
 8003678:	bd80      	pop	{r7, pc}
 800367a:	bf00      	nop
 800367c:	08006bb4 	.word	0x08006bb4

08003680 <sp_256_mont_add_10>:
 8003680:	b580      	push	{r7, lr}
 8003682:	b084      	sub	sp, #16
 8003684:	af00      	add	r7, sp, #0
 8003686:	60f8      	str	r0, [r7, #12]
 8003688:	60b9      	str	r1, [r7, #8]
 800368a:	607a      	str	r2, [r7, #4]
 800368c:	603b      	str	r3, [r7, #0]
 800368e:	687a      	ldr	r2, [r7, #4]
 8003690:	68b9      	ldr	r1, [r7, #8]
 8003692:	68f8      	ldr	r0, [r7, #12]
 8003694:	f7ff fb46 	bl	8002d24 <sp_256_add_10>
 8003698:	68f8      	ldr	r0, [r7, #12]
 800369a:	f7ff fd8c 	bl	80031b6 <sp_256_norm_10>
 800369e:	68fb      	ldr	r3, [r7, #12]
 80036a0:	3324      	adds	r3, #36	; 0x24
 80036a2:	681b      	ldr	r3, [r3, #0]
 80036a4:	159b      	asrs	r3, r3, #22
 80036a6:	2b00      	cmp	r3, #0
 80036a8:	bfcc      	ite	gt
 80036aa:	2301      	movgt	r3, #1
 80036ac:	2300      	movle	r3, #0
 80036ae:	b2db      	uxtb	r3, r3
 80036b0:	425b      	negs	r3, r3
 80036b2:	683a      	ldr	r2, [r7, #0]
 80036b4:	68f9      	ldr	r1, [r7, #12]
 80036b6:	68f8      	ldr	r0, [r7, #12]
 80036b8:	f7ff fcf0 	bl	800309c <sp_256_cond_sub_10>
 80036bc:	68f8      	ldr	r0, [r7, #12]
 80036be:	f7ff fd7a 	bl	80031b6 <sp_256_norm_10>
 80036c2:	bf00      	nop
 80036c4:	3710      	adds	r7, #16
 80036c6:	46bd      	mov	sp, r7
 80036c8:	bd80      	pop	{r7, pc}

080036ca <sp_256_mont_dbl_10>:
 80036ca:	b580      	push	{r7, lr}
 80036cc:	b084      	sub	sp, #16
 80036ce:	af00      	add	r7, sp, #0
 80036d0:	60f8      	str	r0, [r7, #12]
 80036d2:	60b9      	str	r1, [r7, #8]
 80036d4:	607a      	str	r2, [r7, #4]
 80036d6:	68ba      	ldr	r2, [r7, #8]
 80036d8:	68b9      	ldr	r1, [r7, #8]
 80036da:	68f8      	ldr	r0, [r7, #12]
 80036dc:	f7ff fb22 	bl	8002d24 <sp_256_add_10>
 80036e0:	68f8      	ldr	r0, [r7, #12]
 80036e2:	f7ff fd68 	bl	80031b6 <sp_256_norm_10>
 80036e6:	68fb      	ldr	r3, [r7, #12]
 80036e8:	3324      	adds	r3, #36	; 0x24
 80036ea:	681b      	ldr	r3, [r3, #0]
 80036ec:	159b      	asrs	r3, r3, #22
 80036ee:	2b00      	cmp	r3, #0
 80036f0:	bfcc      	ite	gt
 80036f2:	2301      	movgt	r3, #1
 80036f4:	2300      	movle	r3, #0
 80036f6:	b2db      	uxtb	r3, r3
 80036f8:	425b      	negs	r3, r3
 80036fa:	687a      	ldr	r2, [r7, #4]
 80036fc:	68f9      	ldr	r1, [r7, #12]
 80036fe:	68f8      	ldr	r0, [r7, #12]
 8003700:	f7ff fccc 	bl	800309c <sp_256_cond_sub_10>
 8003704:	68f8      	ldr	r0, [r7, #12]
 8003706:	f7ff fd56 	bl	80031b6 <sp_256_norm_10>
 800370a:	bf00      	nop
 800370c:	3710      	adds	r7, #16
 800370e:	46bd      	mov	sp, r7
 8003710:	bd80      	pop	{r7, pc}

08003712 <sp_256_mont_tpl_10>:
 8003712:	b580      	push	{r7, lr}
 8003714:	b084      	sub	sp, #16
 8003716:	af00      	add	r7, sp, #0
 8003718:	60f8      	str	r0, [r7, #12]
 800371a:	60b9      	str	r1, [r7, #8]
 800371c:	607a      	str	r2, [r7, #4]
 800371e:	68ba      	ldr	r2, [r7, #8]
 8003720:	68b9      	ldr	r1, [r7, #8]
 8003722:	68f8      	ldr	r0, [r7, #12]
 8003724:	f7ff fafe 	bl	8002d24 <sp_256_add_10>
 8003728:	68f8      	ldr	r0, [r7, #12]
 800372a:	f7ff fd44 	bl	80031b6 <sp_256_norm_10>
 800372e:	68fb      	ldr	r3, [r7, #12]
 8003730:	3324      	adds	r3, #36	; 0x24
 8003732:	681b      	ldr	r3, [r3, #0]
 8003734:	159b      	asrs	r3, r3, #22
 8003736:	2b00      	cmp	r3, #0
 8003738:	bfcc      	ite	gt
 800373a:	2301      	movgt	r3, #1
 800373c:	2300      	movle	r3, #0
 800373e:	b2db      	uxtb	r3, r3
 8003740:	425b      	negs	r3, r3
 8003742:	687a      	ldr	r2, [r7, #4]
 8003744:	68f9      	ldr	r1, [r7, #12]
 8003746:	68f8      	ldr	r0, [r7, #12]
 8003748:	f7ff fca8 	bl	800309c <sp_256_cond_sub_10>
 800374c:	68f8      	ldr	r0, [r7, #12]
 800374e:	f7ff fd32 	bl	80031b6 <sp_256_norm_10>
 8003752:	68ba      	ldr	r2, [r7, #8]
 8003754:	68f9      	ldr	r1, [r7, #12]
 8003756:	68f8      	ldr	r0, [r7, #12]
 8003758:	f7ff fae4 	bl	8002d24 <sp_256_add_10>
 800375c:	68f8      	ldr	r0, [r7, #12]
 800375e:	f7ff fd2a 	bl	80031b6 <sp_256_norm_10>
 8003762:	68fb      	ldr	r3, [r7, #12]
 8003764:	3324      	adds	r3, #36	; 0x24
 8003766:	681b      	ldr	r3, [r3, #0]
 8003768:	159b      	asrs	r3, r3, #22
 800376a:	2b00      	cmp	r3, #0
 800376c:	bfcc      	ite	gt
 800376e:	2301      	movgt	r3, #1
 8003770:	2300      	movle	r3, #0
 8003772:	b2db      	uxtb	r3, r3
 8003774:	425b      	negs	r3, r3
 8003776:	687a      	ldr	r2, [r7, #4]
 8003778:	68f9      	ldr	r1, [r7, #12]
 800377a:	68f8      	ldr	r0, [r7, #12]
 800377c:	f7ff fc8e 	bl	800309c <sp_256_cond_sub_10>
 8003780:	68f8      	ldr	r0, [r7, #12]
 8003782:	f7ff fd18 	bl	80031b6 <sp_256_norm_10>
 8003786:	bf00      	nop
 8003788:	3710      	adds	r7, #16
 800378a:	46bd      	mov	sp, r7
 800378c:	bd80      	pop	{r7, pc}

0800378e <sp_256_cond_add_10>:
 800378e:	b480      	push	{r7}
 8003790:	b087      	sub	sp, #28
 8003792:	af00      	add	r7, sp, #0
 8003794:	60f8      	str	r0, [r7, #12]
 8003796:	60b9      	str	r1, [r7, #8]
 8003798:	607a      	str	r2, [r7, #4]
 800379a:	603b      	str	r3, [r7, #0]
 800379c:	2300      	movs	r3, #0
 800379e:	617b      	str	r3, [r7, #20]
 80037a0:	e014      	b.n	80037cc <sp_256_cond_add_10+0x3e>
 80037a2:	697b      	ldr	r3, [r7, #20]
 80037a4:	009b      	lsls	r3, r3, #2
 80037a6:	68ba      	ldr	r2, [r7, #8]
 80037a8:	4413      	add	r3, r2
 80037aa:	6819      	ldr	r1, [r3, #0]
 80037ac:	697b      	ldr	r3, [r7, #20]
 80037ae:	009b      	lsls	r3, r3, #2
 80037b0:	687a      	ldr	r2, [r7, #4]
 80037b2:	4413      	add	r3, r2
 80037b4:	681a      	ldr	r2, [r3, #0]
 80037b6:	683b      	ldr	r3, [r7, #0]
 80037b8:	401a      	ands	r2, r3
 80037ba:	697b      	ldr	r3, [r7, #20]
 80037bc:	009b      	lsls	r3, r3, #2
 80037be:	68f8      	ldr	r0, [r7, #12]
 80037c0:	4403      	add	r3, r0
 80037c2:	440a      	add	r2, r1
 80037c4:	601a      	str	r2, [r3, #0]
 80037c6:	697b      	ldr	r3, [r7, #20]
 80037c8:	3301      	adds	r3, #1
 80037ca:	617b      	str	r3, [r7, #20]
 80037cc:	697b      	ldr	r3, [r7, #20]
 80037ce:	2b09      	cmp	r3, #9
 80037d0:	dde7      	ble.n	80037a2 <sp_256_cond_add_10+0x14>
 80037d2:	bf00      	nop
 80037d4:	bf00      	nop
 80037d6:	371c      	adds	r7, #28
 80037d8:	46bd      	mov	sp, r7
 80037da:	bc80      	pop	{r7}
 80037dc:	4770      	bx	lr

080037de <sp_256_mont_sub_10>:
 80037de:	b580      	push	{r7, lr}
 80037e0:	b084      	sub	sp, #16
 80037e2:	af00      	add	r7, sp, #0
 80037e4:	60f8      	str	r0, [r7, #12]
 80037e6:	60b9      	str	r1, [r7, #8]
 80037e8:	607a      	str	r2, [r7, #4]
 80037ea:	603b      	str	r3, [r7, #0]
 80037ec:	687a      	ldr	r2, [r7, #4]
 80037ee:	68b9      	ldr	r1, [r7, #8]
 80037f0:	68f8      	ldr	r0, [r7, #12]
 80037f2:	f7ff fabc 	bl	8002d6e <sp_256_sub_10>
 80037f6:	68fb      	ldr	r3, [r7, #12]
 80037f8:	3324      	adds	r3, #36	; 0x24
 80037fa:	681b      	ldr	r3, [r3, #0]
 80037fc:	159b      	asrs	r3, r3, #22
 80037fe:	683a      	ldr	r2, [r7, #0]
 8003800:	68f9      	ldr	r1, [r7, #12]
 8003802:	68f8      	ldr	r0, [r7, #12]
 8003804:	f7ff ffc3 	bl	800378e <sp_256_cond_add_10>
 8003808:	68f8      	ldr	r0, [r7, #12]
 800380a:	f7ff fcd4 	bl	80031b6 <sp_256_norm_10>
 800380e:	bf00      	nop
 8003810:	3710      	adds	r7, #16
 8003812:	46bd      	mov	sp, r7
 8003814:	bd80      	pop	{r7, pc}

08003816 <sp_256_rshift1_10>:
 8003816:	b480      	push	{r7}
 8003818:	b085      	sub	sp, #20
 800381a:	af00      	add	r7, sp, #0
 800381c:	6078      	str	r0, [r7, #4]
 800381e:	6039      	str	r1, [r7, #0]
 8003820:	2300      	movs	r3, #0
 8003822:	60fb      	str	r3, [r7, #12]
 8003824:	e017      	b.n	8003856 <sp_256_rshift1_10+0x40>
 8003826:	68fb      	ldr	r3, [r7, #12]
 8003828:	009b      	lsls	r3, r3, #2
 800382a:	683a      	ldr	r2, [r7, #0]
 800382c:	4413      	add	r3, r2
 800382e:	681b      	ldr	r3, [r3, #0]
 8003830:	1059      	asrs	r1, r3, #1
 8003832:	68fb      	ldr	r3, [r7, #12]
 8003834:	3301      	adds	r3, #1
 8003836:	009b      	lsls	r3, r3, #2
 8003838:	683a      	ldr	r2, [r7, #0]
 800383a:	4413      	add	r3, r2
 800383c:	681b      	ldr	r3, [r3, #0]
 800383e:	065b      	lsls	r3, r3, #25
 8003840:	f023 427c 	bic.w	r2, r3, #4227858432	; 0xfc000000
 8003844:	68fb      	ldr	r3, [r7, #12]
 8003846:	009b      	lsls	r3, r3, #2
 8003848:	6878      	ldr	r0, [r7, #4]
 800384a:	4403      	add	r3, r0
 800384c:	440a      	add	r2, r1
 800384e:	601a      	str	r2, [r3, #0]
 8003850:	68fb      	ldr	r3, [r7, #12]
 8003852:	3301      	adds	r3, #1
 8003854:	60fb      	str	r3, [r7, #12]
 8003856:	68fb      	ldr	r3, [r7, #12]
 8003858:	2b08      	cmp	r3, #8
 800385a:	dde4      	ble.n	8003826 <sp_256_rshift1_10+0x10>
 800385c:	683b      	ldr	r3, [r7, #0]
 800385e:	3324      	adds	r3, #36	; 0x24
 8003860:	681a      	ldr	r2, [r3, #0]
 8003862:	687b      	ldr	r3, [r7, #4]
 8003864:	3324      	adds	r3, #36	; 0x24
 8003866:	1052      	asrs	r2, r2, #1
 8003868:	601a      	str	r2, [r3, #0]
 800386a:	bf00      	nop
 800386c:	3714      	adds	r7, #20
 800386e:	46bd      	mov	sp, r7
 8003870:	bc80      	pop	{r7}
 8003872:	4770      	bx	lr

08003874 <sp_256_div2_10>:
 8003874:	b580      	push	{r7, lr}
 8003876:	b084      	sub	sp, #16
 8003878:	af00      	add	r7, sp, #0
 800387a:	60f8      	str	r0, [r7, #12]
 800387c:	60b9      	str	r1, [r7, #8]
 800387e:	607a      	str	r2, [r7, #4]
 8003880:	68bb      	ldr	r3, [r7, #8]
 8003882:	681b      	ldr	r3, [r3, #0]
 8003884:	f003 0301 	and.w	r3, r3, #1
 8003888:	425b      	negs	r3, r3
 800388a:	687a      	ldr	r2, [r7, #4]
 800388c:	68b9      	ldr	r1, [r7, #8]
 800388e:	68f8      	ldr	r0, [r7, #12]
 8003890:	f7ff ff7d 	bl	800378e <sp_256_cond_add_10>
 8003894:	68f8      	ldr	r0, [r7, #12]
 8003896:	f7ff fc8e 	bl	80031b6 <sp_256_norm_10>
 800389a:	68f9      	ldr	r1, [r7, #12]
 800389c:	68f8      	ldr	r0, [r7, #12]
 800389e:	f7ff ffba 	bl	8003816 <sp_256_rshift1_10>
 80038a2:	bf00      	nop
 80038a4:	3710      	adds	r7, #16
 80038a6:	46bd      	mov	sp, r7
 80038a8:	bd80      	pop	{r7, pc}
	...

080038ac <sp_256_proj_point_dbl_10>:
 80038ac:	b580      	push	{r7, lr}
 80038ae:	b08c      	sub	sp, #48	; 0x30
 80038b0:	af02      	add	r7, sp, #8
 80038b2:	60f8      	str	r0, [r7, #12]
 80038b4:	60b9      	str	r1, [r7, #8]
 80038b6:	607a      	str	r2, [r7, #4]
 80038b8:	687b      	ldr	r3, [r7, #4]
 80038ba:	627b      	str	r3, [r7, #36]	; 0x24
 80038bc:	687b      	ldr	r3, [r7, #4]
 80038be:	3350      	adds	r3, #80	; 0x50
 80038c0:	623b      	str	r3, [r7, #32]
 80038c2:	68fb      	ldr	r3, [r7, #12]
 80038c4:	61fb      	str	r3, [r7, #28]
 80038c6:	68fb      	ldr	r3, [r7, #12]
 80038c8:	3350      	adds	r3, #80	; 0x50
 80038ca:	61bb      	str	r3, [r7, #24]
 80038cc:	68fb      	ldr	r3, [r7, #12]
 80038ce:	33a0      	adds	r3, #160	; 0xa0
 80038d0:	617b      	str	r3, [r7, #20]
 80038d2:	68fa      	ldr	r2, [r7, #12]
 80038d4:	68bb      	ldr	r3, [r7, #8]
 80038d6:	429a      	cmp	r2, r3
 80038d8:	d005      	beq.n	80038e6 <sp_256_proj_point_dbl_10+0x3a>
 80038da:	68bb      	ldr	r3, [r7, #8]
 80038dc:	f8d3 20f0 	ldr.w	r2, [r3, #240]	; 0xf0
 80038e0:	68fb      	ldr	r3, [r7, #12]
 80038e2:	f8c3 20f0 	str.w	r2, [r3, #240]	; 0xf0
 80038e6:	68bb      	ldr	r3, [r7, #8]
 80038e8:	f103 01a0 	add.w	r1, r3, #160	; 0xa0
 80038ec:	2301      	movs	r3, #1
 80038ee:	4a3c      	ldr	r2, [pc, #240]	; (80039e0 <sp_256_proj_point_dbl_10+0x134>)
 80038f0:	6a78      	ldr	r0, [r7, #36]	; 0x24
 80038f2:	f7ff fdd6 	bl	80034a2 <sp_256_mont_sqr_10>
 80038f6:	68bb      	ldr	r3, [r7, #8]
 80038f8:	f103 0150 	add.w	r1, r3, #80	; 0x50
 80038fc:	68bb      	ldr	r3, [r7, #8]
 80038fe:	f103 02a0 	add.w	r2, r3, #160	; 0xa0
 8003902:	2301      	movs	r3, #1
 8003904:	9300      	str	r3, [sp, #0]
 8003906:	4b36      	ldr	r3, [pc, #216]	; (80039e0 <sp_256_proj_point_dbl_10+0x134>)
 8003908:	6978      	ldr	r0, [r7, #20]
 800390a:	f7ff fdb5 	bl	8003478 <sp_256_mont_mul_10>
 800390e:	4a34      	ldr	r2, [pc, #208]	; (80039e0 <sp_256_proj_point_dbl_10+0x134>)
 8003910:	6979      	ldr	r1, [r7, #20]
 8003912:	6978      	ldr	r0, [r7, #20]
 8003914:	f7ff fed9 	bl	80036ca <sp_256_mont_dbl_10>
 8003918:	68b9      	ldr	r1, [r7, #8]
 800391a:	4b31      	ldr	r3, [pc, #196]	; (80039e0 <sp_256_proj_point_dbl_10+0x134>)
 800391c:	6a7a      	ldr	r2, [r7, #36]	; 0x24
 800391e:	6a38      	ldr	r0, [r7, #32]
 8003920:	f7ff ff5d 	bl	80037de <sp_256_mont_sub_10>
 8003924:	68b9      	ldr	r1, [r7, #8]
 8003926:	4b2e      	ldr	r3, [pc, #184]	; (80039e0 <sp_256_proj_point_dbl_10+0x134>)
 8003928:	6a7a      	ldr	r2, [r7, #36]	; 0x24
 800392a:	6a78      	ldr	r0, [r7, #36]	; 0x24
 800392c:	f7ff fea8 	bl	8003680 <sp_256_mont_add_10>
 8003930:	2301      	movs	r3, #1
 8003932:	9300      	str	r3, [sp, #0]
 8003934:	4b2a      	ldr	r3, [pc, #168]	; (80039e0 <sp_256_proj_point_dbl_10+0x134>)
 8003936:	6a3a      	ldr	r2, [r7, #32]
 8003938:	6a79      	ldr	r1, [r7, #36]	; 0x24
 800393a:	6a38      	ldr	r0, [r7, #32]
 800393c:	f7ff fd9c 	bl	8003478 <sp_256_mont_mul_10>
 8003940:	4a27      	ldr	r2, [pc, #156]	; (80039e0 <sp_256_proj_point_dbl_10+0x134>)
 8003942:	6a39      	ldr	r1, [r7, #32]
 8003944:	6a78      	ldr	r0, [r7, #36]	; 0x24
 8003946:	f7ff fee4 	bl	8003712 <sp_256_mont_tpl_10>
 800394a:	68bb      	ldr	r3, [r7, #8]
 800394c:	3350      	adds	r3, #80	; 0x50
 800394e:	4a24      	ldr	r2, [pc, #144]	; (80039e0 <sp_256_proj_point_dbl_10+0x134>)
 8003950:	4619      	mov	r1, r3
 8003952:	69b8      	ldr	r0, [r7, #24]
 8003954:	f7ff feb9 	bl	80036ca <sp_256_mont_dbl_10>
 8003958:	2301      	movs	r3, #1
 800395a:	4a21      	ldr	r2, [pc, #132]	; (80039e0 <sp_256_proj_point_dbl_10+0x134>)
 800395c:	69b9      	ldr	r1, [r7, #24]
 800395e:	69b8      	ldr	r0, [r7, #24]
 8003960:	f7ff fd9f 	bl	80034a2 <sp_256_mont_sqr_10>
 8003964:	2301      	movs	r3, #1
 8003966:	4a1e      	ldr	r2, [pc, #120]	; (80039e0 <sp_256_proj_point_dbl_10+0x134>)
 8003968:	69b9      	ldr	r1, [r7, #24]
 800396a:	6a38      	ldr	r0, [r7, #32]
 800396c:	f7ff fd99 	bl	80034a2 <sp_256_mont_sqr_10>
 8003970:	4a1b      	ldr	r2, [pc, #108]	; (80039e0 <sp_256_proj_point_dbl_10+0x134>)
 8003972:	6a39      	ldr	r1, [r7, #32]
 8003974:	6a38      	ldr	r0, [r7, #32]
 8003976:	f7ff ff7d 	bl	8003874 <sp_256_div2_10>
 800397a:	68ba      	ldr	r2, [r7, #8]
 800397c:	2301      	movs	r3, #1
 800397e:	9300      	str	r3, [sp, #0]
 8003980:	4b17      	ldr	r3, [pc, #92]	; (80039e0 <sp_256_proj_point_dbl_10+0x134>)
 8003982:	69b9      	ldr	r1, [r7, #24]
 8003984:	69b8      	ldr	r0, [r7, #24]
 8003986:	f7ff fd77 	bl	8003478 <sp_256_mont_mul_10>
 800398a:	2301      	movs	r3, #1
 800398c:	4a14      	ldr	r2, [pc, #80]	; (80039e0 <sp_256_proj_point_dbl_10+0x134>)
 800398e:	6a79      	ldr	r1, [r7, #36]	; 0x24
 8003990:	69f8      	ldr	r0, [r7, #28]
 8003992:	f7ff fd86 	bl	80034a2 <sp_256_mont_sqr_10>
 8003996:	4b12      	ldr	r3, [pc, #72]	; (80039e0 <sp_256_proj_point_dbl_10+0x134>)
 8003998:	69ba      	ldr	r2, [r7, #24]
 800399a:	69f9      	ldr	r1, [r7, #28]
 800399c:	69f8      	ldr	r0, [r7, #28]
 800399e:	f7ff ff1e 	bl	80037de <sp_256_mont_sub_10>
 80039a2:	4b0f      	ldr	r3, [pc, #60]	; (80039e0 <sp_256_proj_point_dbl_10+0x134>)
 80039a4:	69ba      	ldr	r2, [r7, #24]
 80039a6:	69f9      	ldr	r1, [r7, #28]
 80039a8:	69f8      	ldr	r0, [r7, #28]
 80039aa:	f7ff ff18 	bl	80037de <sp_256_mont_sub_10>
 80039ae:	4b0c      	ldr	r3, [pc, #48]	; (80039e0 <sp_256_proj_point_dbl_10+0x134>)
 80039b0:	69fa      	ldr	r2, [r7, #28]
 80039b2:	69b9      	ldr	r1, [r7, #24]
 80039b4:	69b8      	ldr	r0, [r7, #24]
 80039b6:	f7ff ff12 	bl	80037de <sp_256_mont_sub_10>
 80039ba:	2301      	movs	r3, #1
 80039bc:	9300      	str	r3, [sp, #0]
 80039be:	4b08      	ldr	r3, [pc, #32]	; (80039e0 <sp_256_proj_point_dbl_10+0x134>)
 80039c0:	6a7a      	ldr	r2, [r7, #36]	; 0x24
 80039c2:	69b9      	ldr	r1, [r7, #24]
 80039c4:	69b8      	ldr	r0, [r7, #24]
 80039c6:	f7ff fd57 	bl	8003478 <sp_256_mont_mul_10>
 80039ca:	4b05      	ldr	r3, [pc, #20]	; (80039e0 <sp_256_proj_point_dbl_10+0x134>)
 80039cc:	6a3a      	ldr	r2, [r7, #32]
 80039ce:	69b9      	ldr	r1, [r7, #24]
 80039d0:	69b8      	ldr	r0, [r7, #24]
 80039d2:	f7ff ff04 	bl	80037de <sp_256_mont_sub_10>
 80039d6:	bf00      	nop
 80039d8:	3728      	adds	r7, #40	; 0x28
 80039da:	46bd      	mov	sp, r7
 80039dc:	bd80      	pop	{r7, pc}
 80039de:	bf00      	nop
 80039e0:	08006bb4 	.word	0x08006bb4

080039e4 <sp_256_cmp_equal_10>:
 80039e4:	b480      	push	{r7}
 80039e6:	b083      	sub	sp, #12
 80039e8:	af00      	add	r7, sp, #0
 80039ea:	6078      	str	r0, [r7, #4]
 80039ec:	6039      	str	r1, [r7, #0]
 80039ee:	687b      	ldr	r3, [r7, #4]
 80039f0:	681a      	ldr	r2, [r3, #0]
 80039f2:	683b      	ldr	r3, [r7, #0]
 80039f4:	681b      	ldr	r3, [r3, #0]
 80039f6:	405a      	eors	r2, r3
 80039f8:	687b      	ldr	r3, [r7, #4]
 80039fa:	3304      	adds	r3, #4
 80039fc:	6819      	ldr	r1, [r3, #0]
 80039fe:	683b      	ldr	r3, [r7, #0]
 8003a00:	3304      	adds	r3, #4
 8003a02:	681b      	ldr	r3, [r3, #0]
 8003a04:	404b      	eors	r3, r1
 8003a06:	431a      	orrs	r2, r3
 8003a08:	687b      	ldr	r3, [r7, #4]
 8003a0a:	3308      	adds	r3, #8
 8003a0c:	6819      	ldr	r1, [r3, #0]
 8003a0e:	683b      	ldr	r3, [r7, #0]
 8003a10:	3308      	adds	r3, #8
 8003a12:	681b      	ldr	r3, [r3, #0]
 8003a14:	404b      	eors	r3, r1
 8003a16:	431a      	orrs	r2, r3
 8003a18:	687b      	ldr	r3, [r7, #4]
 8003a1a:	330c      	adds	r3, #12
 8003a1c:	6819      	ldr	r1, [r3, #0]
 8003a1e:	683b      	ldr	r3, [r7, #0]
 8003a20:	330c      	adds	r3, #12
 8003a22:	681b      	ldr	r3, [r3, #0]
 8003a24:	404b      	eors	r3, r1
 8003a26:	431a      	orrs	r2, r3
 8003a28:	687b      	ldr	r3, [r7, #4]
 8003a2a:	3310      	adds	r3, #16
 8003a2c:	6819      	ldr	r1, [r3, #0]
 8003a2e:	683b      	ldr	r3, [r7, #0]
 8003a30:	3310      	adds	r3, #16
 8003a32:	681b      	ldr	r3, [r3, #0]
 8003a34:	404b      	eors	r3, r1
 8003a36:	431a      	orrs	r2, r3
 8003a38:	687b      	ldr	r3, [r7, #4]
 8003a3a:	3314      	adds	r3, #20
 8003a3c:	6819      	ldr	r1, [r3, #0]
 8003a3e:	683b      	ldr	r3, [r7, #0]
 8003a40:	3314      	adds	r3, #20
 8003a42:	681b      	ldr	r3, [r3, #0]
 8003a44:	404b      	eors	r3, r1
 8003a46:	431a      	orrs	r2, r3
 8003a48:	687b      	ldr	r3, [r7, #4]
 8003a4a:	3318      	adds	r3, #24
 8003a4c:	6819      	ldr	r1, [r3, #0]
 8003a4e:	683b      	ldr	r3, [r7, #0]
 8003a50:	3318      	adds	r3, #24
 8003a52:	681b      	ldr	r3, [r3, #0]
 8003a54:	404b      	eors	r3, r1
 8003a56:	431a      	orrs	r2, r3
 8003a58:	687b      	ldr	r3, [r7, #4]
 8003a5a:	331c      	adds	r3, #28
 8003a5c:	6819      	ldr	r1, [r3, #0]
 8003a5e:	683b      	ldr	r3, [r7, #0]
 8003a60:	331c      	adds	r3, #28
 8003a62:	681b      	ldr	r3, [r3, #0]
 8003a64:	404b      	eors	r3, r1
 8003a66:	431a      	orrs	r2, r3
 8003a68:	687b      	ldr	r3, [r7, #4]
 8003a6a:	3320      	adds	r3, #32
 8003a6c:	6819      	ldr	r1, [r3, #0]
 8003a6e:	683b      	ldr	r3, [r7, #0]
 8003a70:	3320      	adds	r3, #32
 8003a72:	681b      	ldr	r3, [r3, #0]
 8003a74:	404b      	eors	r3, r1
 8003a76:	431a      	orrs	r2, r3
 8003a78:	687b      	ldr	r3, [r7, #4]
 8003a7a:	3324      	adds	r3, #36	; 0x24
 8003a7c:	6819      	ldr	r1, [r3, #0]
 8003a7e:	683b      	ldr	r3, [r7, #0]
 8003a80:	3324      	adds	r3, #36	; 0x24
 8003a82:	681b      	ldr	r3, [r3, #0]
 8003a84:	404b      	eors	r3, r1
 8003a86:	4313      	orrs	r3, r2
 8003a88:	2b00      	cmp	r3, #0
 8003a8a:	bf0c      	ite	eq
 8003a8c:	2301      	moveq	r3, #1
 8003a8e:	2300      	movne	r3, #0
 8003a90:	b2db      	uxtb	r3, r3
 8003a92:	4618      	mov	r0, r3
 8003a94:	370c      	adds	r7, #12
 8003a96:	46bd      	mov	sp, r7
 8003a98:	bc80      	pop	{r7}
 8003a9a:	4770      	bx	lr

08003a9c <sp_256_proj_point_add_10>:
 8003a9c:	b5b0      	push	{r4, r5, r7, lr}
 8003a9e:	b094      	sub	sp, #80	; 0x50
 8003aa0:	af02      	add	r7, sp, #8
 8003aa2:	60f8      	str	r0, [r7, #12]
 8003aa4:	60b9      	str	r1, [r7, #8]
 8003aa6:	607a      	str	r2, [r7, #4]
 8003aa8:	603b      	str	r3, [r7, #0]
 8003aaa:	683b      	ldr	r3, [r7, #0]
 8003aac:	643b      	str	r3, [r7, #64]	; 0x40
 8003aae:	683b      	ldr	r3, [r7, #0]
 8003ab0:	3350      	adds	r3, #80	; 0x50
 8003ab2:	63fb      	str	r3, [r7, #60]	; 0x3c
 8003ab4:	683b      	ldr	r3, [r7, #0]
 8003ab6:	33a0      	adds	r3, #160	; 0xa0
 8003ab8:	63bb      	str	r3, [r7, #56]	; 0x38
 8003aba:	683b      	ldr	r3, [r7, #0]
 8003abc:	33f0      	adds	r3, #240	; 0xf0
 8003abe:	637b      	str	r3, [r7, #52]	; 0x34
 8003ac0:	683b      	ldr	r3, [r7, #0]
 8003ac2:	f503 73a0 	add.w	r3, r3, #320	; 0x140
 8003ac6:	633b      	str	r3, [r7, #48]	; 0x30
 8003ac8:	687a      	ldr	r2, [r7, #4]
 8003aca:	68fb      	ldr	r3, [r7, #12]
 8003acc:	429a      	cmp	r2, r3
 8003ace:	d105      	bne.n	8003adc <sp_256_proj_point_add_10+0x40>
 8003ad0:	68bb      	ldr	r3, [r7, #8]
 8003ad2:	62fb      	str	r3, [r7, #44]	; 0x2c
 8003ad4:	687b      	ldr	r3, [r7, #4]
 8003ad6:	60bb      	str	r3, [r7, #8]
 8003ad8:	6afb      	ldr	r3, [r7, #44]	; 0x2c
 8003ada:	607b      	str	r3, [r7, #4]
 8003adc:	687b      	ldr	r3, [r7, #4]
 8003ade:	3350      	adds	r3, #80	; 0x50
 8003ae0:	461a      	mov	r2, r3
 8003ae2:	4952      	ldr	r1, [pc, #328]	; (8003c2c <sp_256_proj_point_add_10+0x190>)
 8003ae4:	6c38      	ldr	r0, [r7, #64]	; 0x40
 8003ae6:	f7ff f942 	bl	8002d6e <sp_256_sub_10>
 8003aea:	6c38      	ldr	r0, [r7, #64]	; 0x40
 8003aec:	f7ff fb63 	bl	80031b6 <sp_256_norm_10>
 8003af0:	68bb      	ldr	r3, [r7, #8]
 8003af2:	687a      	ldr	r2, [r7, #4]
 8003af4:	4611      	mov	r1, r2
 8003af6:	4618      	mov	r0, r3
 8003af8:	f7ff ff74 	bl	80039e4 <sp_256_cmp_equal_10>
 8003afc:	4604      	mov	r4, r0
 8003afe:	68bb      	ldr	r3, [r7, #8]
 8003b00:	f103 02a0 	add.w	r2, r3, #160	; 0xa0
 8003b04:	687b      	ldr	r3, [r7, #4]
 8003b06:	33a0      	adds	r3, #160	; 0xa0
 8003b08:	4619      	mov	r1, r3
 8003b0a:	4610      	mov	r0, r2
 8003b0c:	f7ff ff6a 	bl	80039e4 <sp_256_cmp_equal_10>
 8003b10:	4603      	mov	r3, r0
 8003b12:	401c      	ands	r4, r3
 8003b14:	68bb      	ldr	r3, [r7, #8]
 8003b16:	f103 0250 	add.w	r2, r3, #80	; 0x50
 8003b1a:	687b      	ldr	r3, [r7, #4]
 8003b1c:	3350      	adds	r3, #80	; 0x50
 8003b1e:	4619      	mov	r1, r3
 8003b20:	4610      	mov	r0, r2
 8003b22:	f7ff ff5f 	bl	80039e4 <sp_256_cmp_equal_10>
 8003b26:	4605      	mov	r5, r0
 8003b28:	68bb      	ldr	r3, [r7, #8]
 8003b2a:	3350      	adds	r3, #80	; 0x50
 8003b2c:	6c39      	ldr	r1, [r7, #64]	; 0x40
 8003b2e:	4618      	mov	r0, r3
 8003b30:	f7ff ff58 	bl	80039e4 <sp_256_cmp_equal_10>
 8003b34:	4603      	mov	r3, r0
 8003b36:	432b      	orrs	r3, r5
 8003b38:	4023      	ands	r3, r4
 8003b3a:	2b00      	cmp	r3, #0
 8003b3c:	d005      	beq.n	8003b4a <sp_256_proj_point_add_10+0xae>
 8003b3e:	683a      	ldr	r2, [r7, #0]
 8003b40:	68b9      	ldr	r1, [r7, #8]
 8003b42:	68f8      	ldr	r0, [r7, #12]
 8003b44:	f7ff feb2 	bl	80038ac <sp_256_proj_point_dbl_10>
 8003b48:	e141      	b.n	8003dce <sp_256_proj_point_add_10+0x332>
 8003b4a:	68fb      	ldr	r3, [r7, #12]
 8003b4c:	613b      	str	r3, [r7, #16]
 8003b4e:	683b      	ldr	r3, [r7, #0]
 8003b50:	617b      	str	r3, [r7, #20]
 8003b52:	697b      	ldr	r3, [r7, #20]
 8003b54:	22f4      	movs	r2, #244	; 0xf4
 8003b56:	2100      	movs	r1, #0
 8003b58:	4618      	mov	r0, r3
 8003b5a:	f7fc feb2 	bl	80008c2 <memset>
 8003b5e:	68bb      	ldr	r3, [r7, #8]
 8003b60:	f8d3 20f0 	ldr.w	r2, [r3, #240]	; 0xf0
 8003b64:	687b      	ldr	r3, [r7, #4]
 8003b66:	f8d3 30f0 	ldr.w	r3, [r3, #240]	; 0xf0
 8003b6a:	4313      	orrs	r3, r2
 8003b6c:	009b      	lsls	r3, r3, #2
 8003b6e:	f107 0248 	add.w	r2, r7, #72	; 0x48
 8003b72:	4413      	add	r3, r2
 8003b74:	f853 3c38 	ldr.w	r3, [r3, #-56]
 8003b78:	62bb      	str	r3, [r7, #40]	; 0x28
 8003b7a:	68bb      	ldr	r3, [r7, #8]
 8003b7c:	f8d3 20f0 	ldr.w	r2, [r3, #240]	; 0xf0
 8003b80:	687b      	ldr	r3, [r7, #4]
 8003b82:	f8d3 30f0 	ldr.w	r3, [r3, #240]	; 0xf0
 8003b86:	4313      	orrs	r3, r2
 8003b88:	009b      	lsls	r3, r3, #2
 8003b8a:	f107 0248 	add.w	r2, r7, #72	; 0x48
 8003b8e:	4413      	add	r3, r2
 8003b90:	f853 3c38 	ldr.w	r3, [r3, #-56]
 8003b94:	3350      	adds	r3, #80	; 0x50
 8003b96:	627b      	str	r3, [r7, #36]	; 0x24
 8003b98:	68bb      	ldr	r3, [r7, #8]
 8003b9a:	f8d3 20f0 	ldr.w	r2, [r3, #240]	; 0xf0
 8003b9e:	687b      	ldr	r3, [r7, #4]
 8003ba0:	f8d3 30f0 	ldr.w	r3, [r3, #240]	; 0xf0
 8003ba4:	4313      	orrs	r3, r2
 8003ba6:	009b      	lsls	r3, r3, #2
 8003ba8:	f107 0248 	add.w	r2, r7, #72	; 0x48
 8003bac:	4413      	add	r3, r2
 8003bae:	f853 3c38 	ldr.w	r3, [r3, #-56]
 8003bb2:	33a0      	adds	r3, #160	; 0xa0
 8003bb4:	623b      	str	r3, [r7, #32]
 8003bb6:	68bb      	ldr	r3, [r7, #8]
 8003bb8:	61bb      	str	r3, [r7, #24]
 8003bba:	687b      	ldr	r3, [r7, #4]
 8003bbc:	61fb      	str	r3, [r7, #28]
 8003bbe:	2300      	movs	r3, #0
 8003bc0:	647b      	str	r3, [r7, #68]	; 0x44
 8003bc2:	e012      	b.n	8003bea <sp_256_proj_point_add_10+0x14e>
 8003bc4:	68bb      	ldr	r3, [r7, #8]
 8003bc6:	f8d3 30f0 	ldr.w	r3, [r3, #240]	; 0xf0
 8003bca:	009b      	lsls	r3, r3, #2
 8003bcc:	f107 0248 	add.w	r2, r7, #72	; 0x48
 8003bd0:	4413      	add	r3, r2
 8003bd2:	f853 3c30 	ldr.w	r3, [r3, #-48]
 8003bd6:	6c7a      	ldr	r2, [r7, #68]	; 0x44
 8003bd8:	f853 1022 	ldr.w	r1, [r3, r2, lsl #2]
 8003bdc:	68fb      	ldr	r3, [r7, #12]
 8003bde:	6c7a      	ldr	r2, [r7, #68]	; 0x44
 8003be0:	f843 1022 	str.w	r1, [r3, r2, lsl #2]
 8003be4:	6c7b      	ldr	r3, [r7, #68]	; 0x44
 8003be6:	3301      	adds	r3, #1
 8003be8:	647b      	str	r3, [r7, #68]	; 0x44
 8003bea:	6c7b      	ldr	r3, [r7, #68]	; 0x44
 8003bec:	2b09      	cmp	r3, #9
 8003bee:	dde9      	ble.n	8003bc4 <sp_256_proj_point_add_10+0x128>
 8003bf0:	2300      	movs	r3, #0
 8003bf2:	647b      	str	r3, [r7, #68]	; 0x44
 8003bf4:	e014      	b.n	8003c20 <sp_256_proj_point_add_10+0x184>
 8003bf6:	68bb      	ldr	r3, [r7, #8]
 8003bf8:	f8d3 30f0 	ldr.w	r3, [r3, #240]	; 0xf0
 8003bfc:	009b      	lsls	r3, r3, #2
 8003bfe:	f107 0248 	add.w	r2, r7, #72	; 0x48
 8003c02:	4413      	add	r3, r2
 8003c04:	f853 3c30 	ldr.w	r3, [r3, #-48]
 8003c08:	6c7a      	ldr	r2, [r7, #68]	; 0x44
 8003c0a:	3214      	adds	r2, #20
 8003c0c:	f853 1022 	ldr.w	r1, [r3, r2, lsl #2]
 8003c10:	68fb      	ldr	r3, [r7, #12]
 8003c12:	6c7a      	ldr	r2, [r7, #68]	; 0x44
 8003c14:	3214      	adds	r2, #20
 8003c16:	f843 1022 	str.w	r1, [r3, r2, lsl #2]
 8003c1a:	6c7b      	ldr	r3, [r7, #68]	; 0x44
 8003c1c:	3301      	adds	r3, #1
 8003c1e:	647b      	str	r3, [r7, #68]	; 0x44
 8003c20:	6c7b      	ldr	r3, [r7, #68]	; 0x44
 8003c22:	2b09      	cmp	r3, #9
 8003c24:	dde7      	ble.n	8003bf6 <sp_256_proj_point_add_10+0x15a>
 8003c26:	2300      	movs	r3, #0
 8003c28:	647b      	str	r3, [r7, #68]	; 0x44
 8003c2a:	e016      	b.n	8003c5a <sp_256_proj_point_add_10+0x1be>
 8003c2c:	08006bb4 	.word	0x08006bb4
 8003c30:	68bb      	ldr	r3, [r7, #8]
 8003c32:	f8d3 30f0 	ldr.w	r3, [r3, #240]	; 0xf0
 8003c36:	009b      	lsls	r3, r3, #2
 8003c38:	f107 0248 	add.w	r2, r7, #72	; 0x48
 8003c3c:	4413      	add	r3, r2
 8003c3e:	f853 3c30 	ldr.w	r3, [r3, #-48]
 8003c42:	6c7a      	ldr	r2, [r7, #68]	; 0x44
 8003c44:	3228      	adds	r2, #40	; 0x28
 8003c46:	f853 1022 	ldr.w	r1, [r3, r2, lsl #2]
 8003c4a:	68fb      	ldr	r3, [r7, #12]
 8003c4c:	6c7a      	ldr	r2, [r7, #68]	; 0x44
 8003c4e:	3228      	adds	r2, #40	; 0x28
 8003c50:	f843 1022 	str.w	r1, [r3, r2, lsl #2]
 8003c54:	6c7b      	ldr	r3, [r7, #68]	; 0x44
 8003c56:	3301      	adds	r3, #1
 8003c58:	647b      	str	r3, [r7, #68]	; 0x44
 8003c5a:	6c7b      	ldr	r3, [r7, #68]	; 0x44
 8003c5c:	2b09      	cmp	r3, #9
 8003c5e:	dde7      	ble.n	8003c30 <sp_256_proj_point_add_10+0x194>
 8003c60:	68bb      	ldr	r3, [r7, #8]
 8003c62:	f8d3 30f0 	ldr.w	r3, [r3, #240]	; 0xf0
 8003c66:	009b      	lsls	r3, r3, #2
 8003c68:	f107 0248 	add.w	r2, r7, #72	; 0x48
 8003c6c:	4413      	add	r3, r2
 8003c6e:	f853 3c30 	ldr.w	r3, [r3, #-48]
 8003c72:	f8d3 20f0 	ldr.w	r2, [r3, #240]	; 0xf0
 8003c76:	68fb      	ldr	r3, [r7, #12]
 8003c78:	f8c3 20f0 	str.w	r2, [r3, #240]	; 0xf0
 8003c7c:	687b      	ldr	r3, [r7, #4]
 8003c7e:	f103 01a0 	add.w	r1, r3, #160	; 0xa0
 8003c82:	2301      	movs	r3, #1
 8003c84:	4a54      	ldr	r2, [pc, #336]	; (8003dd8 <sp_256_proj_point_add_10+0x33c>)
 8003c86:	6c38      	ldr	r0, [r7, #64]	; 0x40
 8003c88:	f7ff fc0b 	bl	80034a2 <sp_256_mont_sqr_10>
 8003c8c:	687b      	ldr	r3, [r7, #4]
 8003c8e:	f103 02a0 	add.w	r2, r3, #160	; 0xa0
 8003c92:	2301      	movs	r3, #1
 8003c94:	9300      	str	r3, [sp, #0]
 8003c96:	4b50      	ldr	r3, [pc, #320]	; (8003dd8 <sp_256_proj_point_add_10+0x33c>)
 8003c98:	6c39      	ldr	r1, [r7, #64]	; 0x40
 8003c9a:	6bb8      	ldr	r0, [r7, #56]	; 0x38
 8003c9c:	f7ff fbec 	bl	8003478 <sp_256_mont_mul_10>
 8003ca0:	2301      	movs	r3, #1
 8003ca2:	9300      	str	r3, [sp, #0]
 8003ca4:	4b4c      	ldr	r3, [pc, #304]	; (8003dd8 <sp_256_proj_point_add_10+0x33c>)
 8003ca6:	6aba      	ldr	r2, [r7, #40]	; 0x28
 8003ca8:	6c39      	ldr	r1, [r7, #64]	; 0x40
 8003caa:	6c38      	ldr	r0, [r7, #64]	; 0x40
 8003cac:	f7ff fbe4 	bl	8003478 <sp_256_mont_mul_10>
 8003cb0:	2301      	movs	r3, #1
 8003cb2:	4a49      	ldr	r2, [pc, #292]	; (8003dd8 <sp_256_proj_point_add_10+0x33c>)
 8003cb4:	6a39      	ldr	r1, [r7, #32]
 8003cb6:	6bf8      	ldr	r0, [r7, #60]	; 0x3c
 8003cb8:	f7ff fbf3 	bl	80034a2 <sp_256_mont_sqr_10>
 8003cbc:	2301      	movs	r3, #1
 8003cbe:	9300      	str	r3, [sp, #0]
 8003cc0:	4b45      	ldr	r3, [pc, #276]	; (8003dd8 <sp_256_proj_point_add_10+0x33c>)
 8003cc2:	6a3a      	ldr	r2, [r7, #32]
 8003cc4:	6bf9      	ldr	r1, [r7, #60]	; 0x3c
 8003cc6:	6b78      	ldr	r0, [r7, #52]	; 0x34
 8003cc8:	f7ff fbd6 	bl	8003478 <sp_256_mont_mul_10>
 8003ccc:	687a      	ldr	r2, [r7, #4]
 8003cce:	2301      	movs	r3, #1
 8003cd0:	9300      	str	r3, [sp, #0]
 8003cd2:	4b41      	ldr	r3, [pc, #260]	; (8003dd8 <sp_256_proj_point_add_10+0x33c>)
 8003cd4:	6bf9      	ldr	r1, [r7, #60]	; 0x3c
 8003cd6:	6bf8      	ldr	r0, [r7, #60]	; 0x3c
 8003cd8:	f7ff fbce 	bl	8003478 <sp_256_mont_mul_10>
 8003cdc:	2301      	movs	r3, #1
 8003cde:	9300      	str	r3, [sp, #0]
 8003ce0:	4b3d      	ldr	r3, [pc, #244]	; (8003dd8 <sp_256_proj_point_add_10+0x33c>)
 8003ce2:	6a7a      	ldr	r2, [r7, #36]	; 0x24
 8003ce4:	6bb9      	ldr	r1, [r7, #56]	; 0x38
 8003ce6:	6bb8      	ldr	r0, [r7, #56]	; 0x38
 8003ce8:	f7ff fbc6 	bl	8003478 <sp_256_mont_mul_10>
 8003cec:	687b      	ldr	r3, [r7, #4]
 8003cee:	f103 0250 	add.w	r2, r3, #80	; 0x50
 8003cf2:	2301      	movs	r3, #1
 8003cf4:	9300      	str	r3, [sp, #0]
 8003cf6:	4b38      	ldr	r3, [pc, #224]	; (8003dd8 <sp_256_proj_point_add_10+0x33c>)
 8003cf8:	6b79      	ldr	r1, [r7, #52]	; 0x34
 8003cfa:	6b78      	ldr	r0, [r7, #52]	; 0x34
 8003cfc:	f7ff fbbc 	bl	8003478 <sp_256_mont_mul_10>
 8003d00:	4b35      	ldr	r3, [pc, #212]	; (8003dd8 <sp_256_proj_point_add_10+0x33c>)
 8003d02:	6c3a      	ldr	r2, [r7, #64]	; 0x40
 8003d04:	6bf9      	ldr	r1, [r7, #60]	; 0x3c
 8003d06:	6bf8      	ldr	r0, [r7, #60]	; 0x3c
 8003d08:	f7ff fd69 	bl	80037de <sp_256_mont_sub_10>
 8003d0c:	4b32      	ldr	r3, [pc, #200]	; (8003dd8 <sp_256_proj_point_add_10+0x33c>)
 8003d0e:	6bba      	ldr	r2, [r7, #56]	; 0x38
 8003d10:	6b79      	ldr	r1, [r7, #52]	; 0x34
 8003d12:	6b78      	ldr	r0, [r7, #52]	; 0x34
 8003d14:	f7ff fd63 	bl	80037de <sp_256_mont_sub_10>
 8003d18:	687b      	ldr	r3, [r7, #4]
 8003d1a:	f103 02a0 	add.w	r2, r3, #160	; 0xa0
 8003d1e:	2301      	movs	r3, #1
 8003d20:	9300      	str	r3, [sp, #0]
 8003d22:	4b2d      	ldr	r3, [pc, #180]	; (8003dd8 <sp_256_proj_point_add_10+0x33c>)
 8003d24:	6a39      	ldr	r1, [r7, #32]
 8003d26:	6a38      	ldr	r0, [r7, #32]
 8003d28:	f7ff fba6 	bl	8003478 <sp_256_mont_mul_10>
 8003d2c:	2301      	movs	r3, #1
 8003d2e:	9300      	str	r3, [sp, #0]
 8003d30:	4b29      	ldr	r3, [pc, #164]	; (8003dd8 <sp_256_proj_point_add_10+0x33c>)
 8003d32:	6bfa      	ldr	r2, [r7, #60]	; 0x3c
 8003d34:	6a39      	ldr	r1, [r7, #32]
 8003d36:	6a38      	ldr	r0, [r7, #32]
 8003d38:	f7ff fb9e 	bl	8003478 <sp_256_mont_mul_10>
 8003d3c:	2301      	movs	r3, #1
 8003d3e:	4a26      	ldr	r2, [pc, #152]	; (8003dd8 <sp_256_proj_point_add_10+0x33c>)
 8003d40:	6b79      	ldr	r1, [r7, #52]	; 0x34
 8003d42:	6ab8      	ldr	r0, [r7, #40]	; 0x28
 8003d44:	f7ff fbad 	bl	80034a2 <sp_256_mont_sqr_10>
 8003d48:	2301      	movs	r3, #1
 8003d4a:	4a23      	ldr	r2, [pc, #140]	; (8003dd8 <sp_256_proj_point_add_10+0x33c>)
 8003d4c:	6bf9      	ldr	r1, [r7, #60]	; 0x3c
 8003d4e:	6b38      	ldr	r0, [r7, #48]	; 0x30
 8003d50:	f7ff fba7 	bl	80034a2 <sp_256_mont_sqr_10>
 8003d54:	2301      	movs	r3, #1
 8003d56:	9300      	str	r3, [sp, #0]
 8003d58:	4b1f      	ldr	r3, [pc, #124]	; (8003dd8 <sp_256_proj_point_add_10+0x33c>)
 8003d5a:	6b3a      	ldr	r2, [r7, #48]	; 0x30
 8003d5c:	6c39      	ldr	r1, [r7, #64]	; 0x40
 8003d5e:	6a78      	ldr	r0, [r7, #36]	; 0x24
 8003d60:	f7ff fb8a 	bl	8003478 <sp_256_mont_mul_10>
 8003d64:	2301      	movs	r3, #1
 8003d66:	9300      	str	r3, [sp, #0]
 8003d68:	4b1b      	ldr	r3, [pc, #108]	; (8003dd8 <sp_256_proj_point_add_10+0x33c>)
 8003d6a:	6bfa      	ldr	r2, [r7, #60]	; 0x3c
 8003d6c:	6b39      	ldr	r1, [r7, #48]	; 0x30
 8003d6e:	6b38      	ldr	r0, [r7, #48]	; 0x30
 8003d70:	f7ff fb82 	bl	8003478 <sp_256_mont_mul_10>
 8003d74:	4b18      	ldr	r3, [pc, #96]	; (8003dd8 <sp_256_proj_point_add_10+0x33c>)
 8003d76:	6b3a      	ldr	r2, [r7, #48]	; 0x30
 8003d78:	6ab9      	ldr	r1, [r7, #40]	; 0x28
 8003d7a:	6ab8      	ldr	r0, [r7, #40]	; 0x28
 8003d7c:	f7ff fd2f 	bl	80037de <sp_256_mont_sub_10>
 8003d80:	4a15      	ldr	r2, [pc, #84]	; (8003dd8 <sp_256_proj_point_add_10+0x33c>)
 8003d82:	6a79      	ldr	r1, [r7, #36]	; 0x24
 8003d84:	6c38      	ldr	r0, [r7, #64]	; 0x40
 8003d86:	f7ff fca0 	bl	80036ca <sp_256_mont_dbl_10>
 8003d8a:	4b13      	ldr	r3, [pc, #76]	; (8003dd8 <sp_256_proj_point_add_10+0x33c>)
 8003d8c:	6c3a      	ldr	r2, [r7, #64]	; 0x40
 8003d8e:	6ab9      	ldr	r1, [r7, #40]	; 0x28
 8003d90:	6ab8      	ldr	r0, [r7, #40]	; 0x28
 8003d92:	f7ff fd24 	bl	80037de <sp_256_mont_sub_10>
 8003d96:	4b10      	ldr	r3, [pc, #64]	; (8003dd8 <sp_256_proj_point_add_10+0x33c>)
 8003d98:	6aba      	ldr	r2, [r7, #40]	; 0x28
 8003d9a:	6a79      	ldr	r1, [r7, #36]	; 0x24
 8003d9c:	6a78      	ldr	r0, [r7, #36]	; 0x24
 8003d9e:	f7ff fd1e 	bl	80037de <sp_256_mont_sub_10>
 8003da2:	2301      	movs	r3, #1
 8003da4:	9300      	str	r3, [sp, #0]
 8003da6:	4b0c      	ldr	r3, [pc, #48]	; (8003dd8 <sp_256_proj_point_add_10+0x33c>)
 8003da8:	6b7a      	ldr	r2, [r7, #52]	; 0x34
 8003daa:	6a79      	ldr	r1, [r7, #36]	; 0x24
 8003dac:	6a78      	ldr	r0, [r7, #36]	; 0x24
 8003dae:	f7ff fb63 	bl	8003478 <sp_256_mont_mul_10>
 8003db2:	2301      	movs	r3, #1
 8003db4:	9300      	str	r3, [sp, #0]
 8003db6:	4b08      	ldr	r3, [pc, #32]	; (8003dd8 <sp_256_proj_point_add_10+0x33c>)
 8003db8:	6bba      	ldr	r2, [r7, #56]	; 0x38
 8003dba:	6b39      	ldr	r1, [r7, #48]	; 0x30
 8003dbc:	6b38      	ldr	r0, [r7, #48]	; 0x30
 8003dbe:	f7ff fb5b 	bl	8003478 <sp_256_mont_mul_10>
 8003dc2:	4b05      	ldr	r3, [pc, #20]	; (8003dd8 <sp_256_proj_point_add_10+0x33c>)
 8003dc4:	6b3a      	ldr	r2, [r7, #48]	; 0x30
 8003dc6:	6a79      	ldr	r1, [r7, #36]	; 0x24
 8003dc8:	6a78      	ldr	r0, [r7, #36]	; 0x24
 8003dca:	f7ff fd08 	bl	80037de <sp_256_mont_sub_10>
 8003dce:	bf00      	nop
 8003dd0:	3748      	adds	r7, #72	; 0x48
 8003dd2:	46bd      	mov	sp, r7
 8003dd4:	bdb0      	pop	{r4, r5, r7, pc}
 8003dd6:	bf00      	nop
 8003dd8:	08006bb4 	.word	0x08006bb4

08003ddc <sp_256_mod_mul_norm_10>:
 8003ddc:	e92d 0fb0 	stmdb	sp!, {r4, r5, r7, r8, r9, sl, fp}
 8003de0:	f5ad 7d65 	sub.w	sp, sp, #916	; 0x394
 8003de4:	af00      	add	r7, sp, #0
 8003de6:	f8c7 02fc 	str.w	r0, [r7, #764]	; 0x2fc
 8003dea:	f8c7 12f8 	str.w	r1, [r7, #760]	; 0x2f8
 8003dee:	f8c7 22f4 	str.w	r2, [r7, #756]	; 0x2f4
 8003df2:	2300      	movs	r3, #0
 8003df4:	f8c7 338c 	str.w	r3, [r7, #908]	; 0x38c
 8003df8:	2300      	movs	r3, #0
 8003dfa:	f8c7 3388 	str.w	r3, [r7, #904]	; 0x388
 8003dfe:	f8d7 3388 	ldr.w	r3, [r7, #904]	; 0x388
 8003e02:	2b00      	cmp	r3, #0
 8003e04:	f041 8086 	bne.w	8004f14 <sp_256_mod_mul_norm_10+0x1138>
 8003e08:	f507 7340 	add.w	r3, r7, #768	; 0x300
 8003e0c:	3340      	adds	r3, #64	; 0x40
 8003e0e:	f8c7 338c 	str.w	r3, [r7, #908]	; 0x38c
 8003e12:	f8d7 32f8 	ldr.w	r3, [r7, #760]	; 0x2f8
 8003e16:	681b      	ldr	r3, [r3, #0]
 8003e18:	4618      	mov	r0, r3
 8003e1a:	ea4f 71e0 	mov.w	r1, r0, asr #31
 8003e1e:	f8d7 338c 	ldr.w	r3, [r7, #908]	; 0x38c
 8003e22:	e9c3 0100 	strd	r0, r1, [r3]
 8003e26:	f8d7 338c 	ldr.w	r3, [r7, #908]	; 0x38c
 8003e2a:	e9d3 0100 	ldrd	r0, r1, [r3]
 8003e2e:	f8d7 32f8 	ldr.w	r3, [r7, #760]	; 0x2f8
 8003e32:	3304      	adds	r3, #4
 8003e34:	681b      	ldr	r3, [r3, #0]
 8003e36:	069b      	lsls	r3, r3, #26
 8003e38:	461a      	mov	r2, r3
 8003e3a:	ea4f 73e2 	mov.w	r3, r2, asr #31
 8003e3e:	ea40 0402 	orr.w	r4, r0, r2
 8003e42:	ea41 0503 	orr.w	r5, r1, r3
 8003e46:	f8d7 338c 	ldr.w	r3, [r7, #908]	; 0x38c
 8003e4a:	e9c3 4500 	strd	r4, r5, [r3]
 8003e4e:	f8d7 338c 	ldr.w	r3, [r7, #908]	; 0x38c
 8003e52:	e9d3 0100 	ldrd	r0, r1, [r3]
 8003e56:	f04f 32ff 	mov.w	r2, #4294967295	; 0xffffffff
 8003e5a:	f04f 0300 	mov.w	r3, #0
 8003e5e:	ea00 0802 	and.w	r8, r0, r2
 8003e62:	ea01 0903 	and.w	r9, r1, r3
 8003e66:	f8d7 338c 	ldr.w	r3, [r7, #908]	; 0x38c
 8003e6a:	e9c3 8900 	strd	r8, r9, [r3]
 8003e6e:	f8d7 32f8 	ldr.w	r3, [r7, #760]	; 0x2f8
 8003e72:	3304      	adds	r3, #4
 8003e74:	681b      	ldr	r3, [r3, #0]
 8003e76:	119a      	asrs	r2, r3, #6
 8003e78:	f8d7 338c 	ldr.w	r3, [r7, #908]	; 0x38c
 8003e7c:	f103 0108 	add.w	r1, r3, #8
 8003e80:	ea4f 73e2 	mov.w	r3, r2, asr #31
 8003e84:	e9c1 2300 	strd	r2, r3, [r1]
 8003e88:	f8d7 338c 	ldr.w	r3, [r7, #908]	; 0x38c
 8003e8c:	3308      	adds	r3, #8
 8003e8e:	e9d3 4500 	ldrd	r4, r5, [r3]
 8003e92:	f8d7 32f8 	ldr.w	r3, [r7, #760]	; 0x2f8
 8003e96:	3308      	adds	r3, #8
 8003e98:	681b      	ldr	r3, [r3, #0]
 8003e9a:	051b      	lsls	r3, r3, #20
 8003e9c:	4618      	mov	r0, r3
 8003e9e:	ea4f 71e0 	mov.w	r1, r0, asr #31
 8003ea2:	f8d7 338c 	ldr.w	r3, [r7, #908]	; 0x38c
 8003ea6:	3308      	adds	r3, #8
 8003ea8:	ea44 0a00 	orr.w	sl, r4, r0
 8003eac:	ea45 0b01 	orr.w	fp, r5, r1
 8003eb0:	e9c3 ab00 	strd	sl, fp, [r3]
 8003eb4:	f8d7 338c 	ldr.w	r3, [r7, #908]	; 0x38c
 8003eb8:	3308      	adds	r3, #8
 8003eba:	e9d3 0100 	ldrd	r0, r1, [r3]
 8003ebe:	f8d7 338c 	ldr.w	r3, [r7, #908]	; 0x38c
 8003ec2:	f103 0408 	add.w	r4, r3, #8
 8003ec6:	f04f 32ff 	mov.w	r2, #4294967295	; 0xffffffff
 8003eca:	f04f 0300 	mov.w	r3, #0
 8003ece:	ea00 0502 	and.w	r5, r0, r2
 8003ed2:	f8c7 52e8 	str.w	r5, [r7, #744]	; 0x2e8
 8003ed6:	400b      	ands	r3, r1
 8003ed8:	f8c7 32ec 	str.w	r3, [r7, #748]	; 0x2ec
 8003edc:	e9d7 23ba 	ldrd	r2, r3, [r7, #744]	; 0x2e8
 8003ee0:	e9c4 2300 	strd	r2, r3, [r4]
 8003ee4:	f8d7 32f8 	ldr.w	r3, [r7, #760]	; 0x2f8
 8003ee8:	3308      	adds	r3, #8
 8003eea:	681b      	ldr	r3, [r3, #0]
 8003eec:	131a      	asrs	r2, r3, #12
 8003eee:	f8d7 338c 	ldr.w	r3, [r7, #908]	; 0x38c
 8003ef2:	f103 0110 	add.w	r1, r3, #16
 8003ef6:	ea4f 73e2 	mov.w	r3, r2, asr #31
 8003efa:	e9c1 2300 	strd	r2, r3, [r1]
 8003efe:	f8d7 338c 	ldr.w	r3, [r7, #908]	; 0x38c
 8003f02:	3310      	adds	r3, #16
 8003f04:	e9d3 4500 	ldrd	r4, r5, [r3]
 8003f08:	f8d7 32f8 	ldr.w	r3, [r7, #760]	; 0x2f8
 8003f0c:	330c      	adds	r3, #12
 8003f0e:	681b      	ldr	r3, [r3, #0]
 8003f10:	039b      	lsls	r3, r3, #14
 8003f12:	4618      	mov	r0, r3
 8003f14:	ea4f 71e0 	mov.w	r1, r0, asr #31
 8003f18:	f8d7 338c 	ldr.w	r3, [r7, #908]	; 0x38c
 8003f1c:	3310      	adds	r3, #16
 8003f1e:	ea44 0200 	orr.w	r2, r4, r0
 8003f22:	f8c7 22e0 	str.w	r2, [r7, #736]	; 0x2e0
 8003f26:	ea45 0201 	orr.w	r2, r5, r1
 8003f2a:	f8c7 22e4 	str.w	r2, [r7, #740]	; 0x2e4
 8003f2e:	e9d7 12b8 	ldrd	r1, r2, [r7, #736]	; 0x2e0
 8003f32:	e9c3 1200 	strd	r1, r2, [r3]
 8003f36:	f8d7 338c 	ldr.w	r3, [r7, #908]	; 0x38c
 8003f3a:	3310      	adds	r3, #16
 8003f3c:	e9d3 0100 	ldrd	r0, r1, [r3]
 8003f40:	f8d7 338c 	ldr.w	r3, [r7, #908]	; 0x38c
 8003f44:	f103 0410 	add.w	r4, r3, #16
 8003f48:	f04f 32ff 	mov.w	r2, #4294967295	; 0xffffffff
 8003f4c:	f04f 0300 	mov.w	r3, #0
 8003f50:	ea00 0502 	and.w	r5, r0, r2
 8003f54:	f8c7 52d8 	str.w	r5, [r7, #728]	; 0x2d8
 8003f58:	400b      	ands	r3, r1
 8003f5a:	f8c7 32dc 	str.w	r3, [r7, #732]	; 0x2dc
 8003f5e:	e9d7 23b6 	ldrd	r2, r3, [r7, #728]	; 0x2d8
 8003f62:	e9c4 2300 	strd	r2, r3, [r4]
 8003f66:	f8d7 32f8 	ldr.w	r3, [r7, #760]	; 0x2f8
 8003f6a:	330c      	adds	r3, #12
 8003f6c:	681b      	ldr	r3, [r3, #0]
 8003f6e:	149a      	asrs	r2, r3, #18
 8003f70:	f8d7 338c 	ldr.w	r3, [r7, #908]	; 0x38c
 8003f74:	f103 0118 	add.w	r1, r3, #24
 8003f78:	ea4f 73e2 	mov.w	r3, r2, asr #31
 8003f7c:	e9c1 2300 	strd	r2, r3, [r1]
 8003f80:	f8d7 338c 	ldr.w	r3, [r7, #908]	; 0x38c
 8003f84:	3318      	adds	r3, #24
 8003f86:	e9d3 4500 	ldrd	r4, r5, [r3]
 8003f8a:	f8d7 32f8 	ldr.w	r3, [r7, #760]	; 0x2f8
 8003f8e:	3310      	adds	r3, #16
 8003f90:	681b      	ldr	r3, [r3, #0]
 8003f92:	021b      	lsls	r3, r3, #8
 8003f94:	4618      	mov	r0, r3
 8003f96:	ea4f 71e0 	mov.w	r1, r0, asr #31
 8003f9a:	f8d7 338c 	ldr.w	r3, [r7, #908]	; 0x38c
 8003f9e:	3318      	adds	r3, #24
 8003fa0:	ea44 0200 	orr.w	r2, r4, r0
 8003fa4:	f8c7 22d0 	str.w	r2, [r7, #720]	; 0x2d0
 8003fa8:	ea45 0201 	orr.w	r2, r5, r1
 8003fac:	f8c7 22d4 	str.w	r2, [r7, #724]	; 0x2d4
 8003fb0:	e9d7 12b4 	ldrd	r1, r2, [r7, #720]	; 0x2d0
 8003fb4:	e9c3 1200 	strd	r1, r2, [r3]
 8003fb8:	f8d7 338c 	ldr.w	r3, [r7, #908]	; 0x38c
 8003fbc:	3318      	adds	r3, #24
 8003fbe:	e9d3 0100 	ldrd	r0, r1, [r3]
 8003fc2:	f8d7 338c 	ldr.w	r3, [r7, #908]	; 0x38c
 8003fc6:	f103 0418 	add.w	r4, r3, #24
 8003fca:	f04f 32ff 	mov.w	r2, #4294967295	; 0xffffffff
 8003fce:	f04f 0300 	mov.w	r3, #0
 8003fd2:	ea00 0502 	and.w	r5, r0, r2
 8003fd6:	f8c7 52c8 	str.w	r5, [r7, #712]	; 0x2c8
 8003fda:	400b      	ands	r3, r1
 8003fdc:	f8c7 32cc 	str.w	r3, [r7, #716]	; 0x2cc
 8003fe0:	e9d7 23b2 	ldrd	r2, r3, [r7, #712]	; 0x2c8
 8003fe4:	e9c4 2300 	strd	r2, r3, [r4]
 8003fe8:	f8d7 32f8 	ldr.w	r3, [r7, #760]	; 0x2f8
 8003fec:	3310      	adds	r3, #16
 8003fee:	681b      	ldr	r3, [r3, #0]
 8003ff0:	161a      	asrs	r2, r3, #24
 8003ff2:	f8d7 338c 	ldr.w	r3, [r7, #908]	; 0x38c
 8003ff6:	f103 0120 	add.w	r1, r3, #32
 8003ffa:	ea4f 73e2 	mov.w	r3, r2, asr #31
 8003ffe:	e9c1 2300 	strd	r2, r3, [r1]
 8004002:	f8d7 338c 	ldr.w	r3, [r7, #908]	; 0x38c
 8004006:	3320      	adds	r3, #32
 8004008:	e9d3 4500 	ldrd	r4, r5, [r3]
 800400c:	f8d7 32f8 	ldr.w	r3, [r7, #760]	; 0x2f8
 8004010:	3314      	adds	r3, #20
 8004012:	681b      	ldr	r3, [r3, #0]
 8004014:	009b      	lsls	r3, r3, #2
 8004016:	4618      	mov	r0, r3
 8004018:	ea4f 71e0 	mov.w	r1, r0, asr #31
 800401c:	f8d7 338c 	ldr.w	r3, [r7, #908]	; 0x38c
 8004020:	3320      	adds	r3, #32
 8004022:	ea44 0200 	orr.w	r2, r4, r0
 8004026:	f8c7 22c0 	str.w	r2, [r7, #704]	; 0x2c0
 800402a:	ea45 0201 	orr.w	r2, r5, r1
 800402e:	f8c7 22c4 	str.w	r2, [r7, #708]	; 0x2c4
 8004032:	e9d7 12b0 	ldrd	r1, r2, [r7, #704]	; 0x2c0
 8004036:	e9c3 1200 	strd	r1, r2, [r3]
 800403a:	f8d7 338c 	ldr.w	r3, [r7, #908]	; 0x38c
 800403e:	3320      	adds	r3, #32
 8004040:	e9d3 4500 	ldrd	r4, r5, [r3]
 8004044:	f8d7 32f8 	ldr.w	r3, [r7, #760]	; 0x2f8
 8004048:	3318      	adds	r3, #24
 800404a:	681b      	ldr	r3, [r3, #0]
 800404c:	071b      	lsls	r3, r3, #28
 800404e:	4618      	mov	r0, r3
 8004050:	ea4f 71e0 	mov.w	r1, r0, asr #31
 8004054:	f8d7 338c 	ldr.w	r3, [r7, #908]	; 0x38c
 8004058:	3320      	adds	r3, #32
 800405a:	ea44 0200 	orr.w	r2, r4, r0
 800405e:	f8c7 22b8 	str.w	r2, [r7, #696]	; 0x2b8
 8004062:	ea45 0201 	orr.w	r2, r5, r1
 8004066:	f8c7 22bc 	str.w	r2, [r7, #700]	; 0x2bc
 800406a:	e9d7 12ae 	ldrd	r1, r2, [r7, #696]	; 0x2b8
 800406e:	e9c3 1200 	strd	r1, r2, [r3]
 8004072:	f8d7 338c 	ldr.w	r3, [r7, #908]	; 0x38c
 8004076:	3320      	adds	r3, #32
 8004078:	e9d3 0100 	ldrd	r0, r1, [r3]
 800407c:	f8d7 338c 	ldr.w	r3, [r7, #908]	; 0x38c
 8004080:	f103 0420 	add.w	r4, r3, #32
 8004084:	f04f 32ff 	mov.w	r2, #4294967295	; 0xffffffff
 8004088:	f04f 0300 	mov.w	r3, #0
 800408c:	ea00 0502 	and.w	r5, r0, r2
 8004090:	f8c7 52b0 	str.w	r5, [r7, #688]	; 0x2b0
 8004094:	400b      	ands	r3, r1
 8004096:	f8c7 32b4 	str.w	r3, [r7, #692]	; 0x2b4
 800409a:	e9d7 23ac 	ldrd	r2, r3, [r7, #688]	; 0x2b0
 800409e:	e9c4 2300 	strd	r2, r3, [r4]
 80040a2:	f8d7 32f8 	ldr.w	r3, [r7, #760]	; 0x2f8
 80040a6:	3318      	adds	r3, #24
 80040a8:	681b      	ldr	r3, [r3, #0]
 80040aa:	111a      	asrs	r2, r3, #4
 80040ac:	f8d7 338c 	ldr.w	r3, [r7, #908]	; 0x38c
 80040b0:	f103 0128 	add.w	r1, r3, #40	; 0x28
 80040b4:	ea4f 73e2 	mov.w	r3, r2, asr #31
 80040b8:	e9c1 2300 	strd	r2, r3, [r1]
 80040bc:	f8d7 338c 	ldr.w	r3, [r7, #908]	; 0x38c
 80040c0:	3328      	adds	r3, #40	; 0x28
 80040c2:	e9d3 4500 	ldrd	r4, r5, [r3]
 80040c6:	f8d7 32f8 	ldr.w	r3, [r7, #760]	; 0x2f8
 80040ca:	331c      	adds	r3, #28
 80040cc:	681b      	ldr	r3, [r3, #0]
 80040ce:	059b      	lsls	r3, r3, #22
 80040d0:	4618      	mov	r0, r3
 80040d2:	ea4f 71e0 	mov.w	r1, r0, asr #31
 80040d6:	f8d7 338c 	ldr.w	r3, [r7, #908]	; 0x38c
 80040da:	3328      	adds	r3, #40	; 0x28
 80040dc:	ea44 0200 	orr.w	r2, r4, r0
 80040e0:	f8c7 22a8 	str.w	r2, [r7, #680]	; 0x2a8
 80040e4:	ea45 0201 	orr.w	r2, r5, r1
 80040e8:	f8c7 22ac 	str.w	r2, [r7, #684]	; 0x2ac
 80040ec:	e9d7 12aa 	ldrd	r1, r2, [r7, #680]	; 0x2a8
 80040f0:	e9c3 1200 	strd	r1, r2, [r3]
 80040f4:	f8d7 338c 	ldr.w	r3, [r7, #908]	; 0x38c
 80040f8:	3328      	adds	r3, #40	; 0x28
 80040fa:	e9d3 0100 	ldrd	r0, r1, [r3]
 80040fe:	f8d7 338c 	ldr.w	r3, [r7, #908]	; 0x38c
 8004102:	f103 0428 	add.w	r4, r3, #40	; 0x28
 8004106:	f04f 32ff 	mov.w	r2, #4294967295	; 0xffffffff
 800410a:	f04f 0300 	mov.w	r3, #0
 800410e:	ea00 0502 	and.w	r5, r0, r2
 8004112:	f8c7 52a0 	str.w	r5, [r7, #672]	; 0x2a0
 8004116:	400b      	ands	r3, r1
 8004118:	f8c7 32a4 	str.w	r3, [r7, #676]	; 0x2a4
 800411c:	e9d7 23a8 	ldrd	r2, r3, [r7, #672]	; 0x2a0
 8004120:	e9c4 2300 	strd	r2, r3, [r4]
 8004124:	f8d7 32f8 	ldr.w	r3, [r7, #760]	; 0x2f8
 8004128:	331c      	adds	r3, #28
 800412a:	681b      	ldr	r3, [r3, #0]
 800412c:	129a      	asrs	r2, r3, #10
 800412e:	f8d7 338c 	ldr.w	r3, [r7, #908]	; 0x38c
 8004132:	f103 0130 	add.w	r1, r3, #48	; 0x30
 8004136:	ea4f 73e2 	mov.w	r3, r2, asr #31
 800413a:	e9c1 2300 	strd	r2, r3, [r1]
 800413e:	f8d7 338c 	ldr.w	r3, [r7, #908]	; 0x38c
 8004142:	3330      	adds	r3, #48	; 0x30
 8004144:	e9d3 4500 	ldrd	r4, r5, [r3]
 8004148:	f8d7 32f8 	ldr.w	r3, [r7, #760]	; 0x2f8
 800414c:	3320      	adds	r3, #32
 800414e:	681b      	ldr	r3, [r3, #0]
 8004150:	041b      	lsls	r3, r3, #16
 8004152:	4618      	mov	r0, r3
 8004154:	ea4f 71e0 	mov.w	r1, r0, asr #31
 8004158:	f8d7 338c 	ldr.w	r3, [r7, #908]	; 0x38c
 800415c:	3330      	adds	r3, #48	; 0x30
 800415e:	ea44 0200 	orr.w	r2, r4, r0
 8004162:	f8c7 2298 	str.w	r2, [r7, #664]	; 0x298
 8004166:	ea45 0201 	orr.w	r2, r5, r1
 800416a:	f8c7 229c 	str.w	r2, [r7, #668]	; 0x29c
 800416e:	e9d7 12a6 	ldrd	r1, r2, [r7, #664]	; 0x298
 8004172:	e9c3 1200 	strd	r1, r2, [r3]
 8004176:	f8d7 338c 	ldr.w	r3, [r7, #908]	; 0x38c
 800417a:	3330      	adds	r3, #48	; 0x30
 800417c:	e9d3 0100 	ldrd	r0, r1, [r3]
 8004180:	f8d7 338c 	ldr.w	r3, [r7, #908]	; 0x38c
 8004184:	f103 0430 	add.w	r4, r3, #48	; 0x30
 8004188:	f04f 32ff 	mov.w	r2, #4294967295	; 0xffffffff
 800418c:	f04f 0300 	mov.w	r3, #0
 8004190:	ea00 0502 	and.w	r5, r0, r2
 8004194:	f8c7 5290 	str.w	r5, [r7, #656]	; 0x290
 8004198:	400b      	ands	r3, r1
 800419a:	f8c7 3294 	str.w	r3, [r7, #660]	; 0x294
 800419e:	e9d7 23a4 	ldrd	r2, r3, [r7, #656]	; 0x290
 80041a2:	e9c4 2300 	strd	r2, r3, [r4]
 80041a6:	f8d7 32f8 	ldr.w	r3, [r7, #760]	; 0x2f8
 80041aa:	3320      	adds	r3, #32
 80041ac:	681b      	ldr	r3, [r3, #0]
 80041ae:	141a      	asrs	r2, r3, #16
 80041b0:	f8d7 338c 	ldr.w	r3, [r7, #908]	; 0x38c
 80041b4:	f103 0138 	add.w	r1, r3, #56	; 0x38
 80041b8:	ea4f 73e2 	mov.w	r3, r2, asr #31
 80041bc:	e9c1 2300 	strd	r2, r3, [r1]
 80041c0:	f8d7 338c 	ldr.w	r3, [r7, #908]	; 0x38c
 80041c4:	3338      	adds	r3, #56	; 0x38
 80041c6:	e9d3 4500 	ldrd	r4, r5, [r3]
 80041ca:	f8d7 32f8 	ldr.w	r3, [r7, #760]	; 0x2f8
 80041ce:	3324      	adds	r3, #36	; 0x24
 80041d0:	681b      	ldr	r3, [r3, #0]
 80041d2:	029b      	lsls	r3, r3, #10
 80041d4:	4618      	mov	r0, r3
 80041d6:	ea4f 71e0 	mov.w	r1, r0, asr #31
 80041da:	f8d7 338c 	ldr.w	r3, [r7, #908]	; 0x38c
 80041de:	3338      	adds	r3, #56	; 0x38
 80041e0:	ea44 0200 	orr.w	r2, r4, r0
 80041e4:	f8c7 2288 	str.w	r2, [r7, #648]	; 0x288
 80041e8:	ea45 0201 	orr.w	r2, r5, r1
 80041ec:	f8c7 228c 	str.w	r2, [r7, #652]	; 0x28c
 80041f0:	e9d7 12a2 	ldrd	r1, r2, [r7, #648]	; 0x288
 80041f4:	e9c3 1200 	strd	r1, r2, [r3]
 80041f8:	f8d7 338c 	ldr.w	r3, [r7, #908]	; 0x38c
 80041fc:	3338      	adds	r3, #56	; 0x38
 80041fe:	e9d3 0100 	ldrd	r0, r1, [r3]
 8004202:	f8d7 338c 	ldr.w	r3, [r7, #908]	; 0x38c
 8004206:	f103 0438 	add.w	r4, r3, #56	; 0x38
 800420a:	f04f 32ff 	mov.w	r2, #4294967295	; 0xffffffff
 800420e:	f04f 0300 	mov.w	r3, #0
 8004212:	ea00 0502 	and.w	r5, r0, r2
 8004216:	f8c7 5280 	str.w	r5, [r7, #640]	; 0x280
 800421a:	400b      	ands	r3, r1
 800421c:	f8c7 3284 	str.w	r3, [r7, #644]	; 0x284
 8004220:	e9d7 23a0 	ldrd	r2, r3, [r7, #640]	; 0x280
 8004224:	e9c4 2300 	strd	r2, r3, [r4]
 8004228:	f8d7 338c 	ldr.w	r3, [r7, #908]	; 0x38c
 800422c:	e9d3 0100 	ldrd	r0, r1, [r3]
 8004230:	f8d7 338c 	ldr.w	r3, [r7, #908]	; 0x38c
 8004234:	3308      	adds	r3, #8
 8004236:	e9d3 2300 	ldrd	r2, r3, [r3]
 800423a:	1884      	adds	r4, r0, r2
 800423c:	f8c7 4278 	str.w	r4, [r7, #632]	; 0x278
 8004240:	eb41 0303 	adc.w	r3, r1, r3
 8004244:	f8c7 327c 	str.w	r3, [r7, #636]	; 0x27c
 8004248:	f8d7 338c 	ldr.w	r3, [r7, #908]	; 0x38c
 800424c:	3318      	adds	r3, #24
 800424e:	e9d3 2300 	ldrd	r2, r3, [r3]
 8004252:	e9d7 459e 	ldrd	r4, r5, [r7, #632]	; 0x278
 8004256:	4621      	mov	r1, r4
 8004258:	1a89      	subs	r1, r1, r2
 800425a:	f8c7 1270 	str.w	r1, [r7, #624]	; 0x270
 800425e:	4629      	mov	r1, r5
 8004260:	eb61 0303 	sbc.w	r3, r1, r3
 8004264:	f8c7 3274 	str.w	r3, [r7, #628]	; 0x274
 8004268:	f8d7 338c 	ldr.w	r3, [r7, #908]	; 0x38c
 800426c:	3320      	adds	r3, #32
 800426e:	e9d3 2300 	ldrd	r2, r3, [r3]
 8004272:	e9d7 459c 	ldrd	r4, r5, [r7, #624]	; 0x270
 8004276:	4621      	mov	r1, r4
 8004278:	1a89      	subs	r1, r1, r2
 800427a:	f8c7 1268 	str.w	r1, [r7, #616]	; 0x268
 800427e:	4629      	mov	r1, r5
 8004280:	eb61 0303 	sbc.w	r3, r1, r3
 8004284:	f8c7 326c 	str.w	r3, [r7, #620]	; 0x26c
 8004288:	f8d7 338c 	ldr.w	r3, [r7, #908]	; 0x38c
 800428c:	3328      	adds	r3, #40	; 0x28
 800428e:	e9d3 2300 	ldrd	r2, r3, [r3]
 8004292:	e9d7 459a 	ldrd	r4, r5, [r7, #616]	; 0x268
 8004296:	4621      	mov	r1, r4
 8004298:	1a89      	subs	r1, r1, r2
 800429a:	f8c7 1260 	str.w	r1, [r7, #608]	; 0x260
 800429e:	4629      	mov	r1, r5
 80042a0:	eb61 0303 	sbc.w	r3, r1, r3
 80042a4:	f8c7 3264 	str.w	r3, [r7, #612]	; 0x264
 80042a8:	f8d7 338c 	ldr.w	r3, [r7, #908]	; 0x38c
 80042ac:	3330      	adds	r3, #48	; 0x30
 80042ae:	e9d3 2300 	ldrd	r2, r3, [r3]
 80042b2:	e9d7 4598 	ldrd	r4, r5, [r7, #608]	; 0x260
 80042b6:	4621      	mov	r1, r4
 80042b8:	1a89      	subs	r1, r1, r2
 80042ba:	f8c7 1258 	str.w	r1, [r7, #600]	; 0x258
 80042be:	4629      	mov	r1, r5
 80042c0:	eb61 0303 	sbc.w	r3, r1, r3
 80042c4:	f8c7 325c 	str.w	r3, [r7, #604]	; 0x25c
 80042c8:	e9d7 3496 	ldrd	r3, r4, [r7, #600]	; 0x258
 80042cc:	e9c7 34c0 	strd	r3, r4, [r7, #768]	; 0x300
 80042d0:	f8d7 338c 	ldr.w	r3, [r7, #908]	; 0x38c
 80042d4:	3308      	adds	r3, #8
 80042d6:	e9d3 0100 	ldrd	r0, r1, [r3]
 80042da:	f8d7 338c 	ldr.w	r3, [r7, #908]	; 0x38c
 80042de:	3310      	adds	r3, #16
 80042e0:	e9d3 2300 	ldrd	r2, r3, [r3]
 80042e4:	1884      	adds	r4, r0, r2
 80042e6:	f8c7 4250 	str.w	r4, [r7, #592]	; 0x250
 80042ea:	eb41 0303 	adc.w	r3, r1, r3
 80042ee:	f8c7 3254 	str.w	r3, [r7, #596]	; 0x254
 80042f2:	f8d7 338c 	ldr.w	r3, [r7, #908]	; 0x38c
 80042f6:	3320      	adds	r3, #32
 80042f8:	e9d3 2300 	ldrd	r2, r3, [r3]
 80042fc:	e9d7 4594 	ldrd	r4, r5, [r7, #592]	; 0x250
 8004300:	4621      	mov	r1, r4
 8004302:	1a89      	subs	r1, r1, r2
 8004304:	f8c7 1248 	str.w	r1, [r7, #584]	; 0x248
 8004308:	4629      	mov	r1, r5
 800430a:	eb61 0303 	sbc.w	r3, r1, r3
 800430e:	f8c7 324c 	str.w	r3, [r7, #588]	; 0x24c
 8004312:	f8d7 338c 	ldr.w	r3, [r7, #908]	; 0x38c
 8004316:	3328      	adds	r3, #40	; 0x28
 8004318:	e9d3 2300 	ldrd	r2, r3, [r3]
 800431c:	e9d7 4592 	ldrd	r4, r5, [r7, #584]	; 0x248
 8004320:	4621      	mov	r1, r4
 8004322:	1a89      	subs	r1, r1, r2
 8004324:	f8c7 1240 	str.w	r1, [r7, #576]	; 0x240
 8004328:	4629      	mov	r1, r5
 800432a:	eb61 0303 	sbc.w	r3, r1, r3
 800432e:	f8c7 3244 	str.w	r3, [r7, #580]	; 0x244
 8004332:	f8d7 338c 	ldr.w	r3, [r7, #908]	; 0x38c
 8004336:	3330      	adds	r3, #48	; 0x30
 8004338:	e9d3 2300 	ldrd	r2, r3, [r3]
 800433c:	e9d7 4590 	ldrd	r4, r5, [r7, #576]	; 0x240
 8004340:	4621      	mov	r1, r4
 8004342:	1a89      	subs	r1, r1, r2
 8004344:	f8c7 1238 	str.w	r1, [r7, #568]	; 0x238
 8004348:	4629      	mov	r1, r5
 800434a:	eb61 0303 	sbc.w	r3, r1, r3
 800434e:	f8c7 323c 	str.w	r3, [r7, #572]	; 0x23c
 8004352:	f8d7 338c 	ldr.w	r3, [r7, #908]	; 0x38c
 8004356:	3338      	adds	r3, #56	; 0x38
 8004358:	e9d3 2300 	ldrd	r2, r3, [r3]
 800435c:	e9d7 458e 	ldrd	r4, r5, [r7, #568]	; 0x238
 8004360:	4621      	mov	r1, r4
 8004362:	1a89      	subs	r1, r1, r2
 8004364:	f8c7 1230 	str.w	r1, [r7, #560]	; 0x230
 8004368:	4629      	mov	r1, r5
 800436a:	eb61 0303 	sbc.w	r3, r1, r3
 800436e:	f8c7 3234 	str.w	r3, [r7, #564]	; 0x234
 8004372:	e9d7 348c 	ldrd	r3, r4, [r7, #560]	; 0x230
 8004376:	e9c7 34c2 	strd	r3, r4, [r7, #776]	; 0x308
 800437a:	f8d7 338c 	ldr.w	r3, [r7, #908]	; 0x38c
 800437e:	3310      	adds	r3, #16
 8004380:	e9d3 0100 	ldrd	r0, r1, [r3]
 8004384:	f8d7 338c 	ldr.w	r3, [r7, #908]	; 0x38c
 8004388:	3318      	adds	r3, #24
 800438a:	e9d3 2300 	ldrd	r2, r3, [r3]
 800438e:	1884      	adds	r4, r0, r2
 8004390:	f8c7 4228 	str.w	r4, [r7, #552]	; 0x228
 8004394:	eb41 0303 	adc.w	r3, r1, r3
 8004398:	f8c7 322c 	str.w	r3, [r7, #556]	; 0x22c
 800439c:	f8d7 338c 	ldr.w	r3, [r7, #908]	; 0x38c
 80043a0:	3328      	adds	r3, #40	; 0x28
 80043a2:	e9d3 2300 	ldrd	r2, r3, [r3]
 80043a6:	e9d7 458a 	ldrd	r4, r5, [r7, #552]	; 0x228
 80043aa:	4621      	mov	r1, r4
 80043ac:	1a89      	subs	r1, r1, r2
 80043ae:	f8c7 1220 	str.w	r1, [r7, #544]	; 0x220
 80043b2:	4629      	mov	r1, r5
 80043b4:	eb61 0303 	sbc.w	r3, r1, r3
 80043b8:	f8c7 3224 	str.w	r3, [r7, #548]	; 0x224
 80043bc:	f8d7 338c 	ldr.w	r3, [r7, #908]	; 0x38c
 80043c0:	3330      	adds	r3, #48	; 0x30
 80043c2:	e9d3 2300 	ldrd	r2, r3, [r3]
 80043c6:	e9d7 4588 	ldrd	r4, r5, [r7, #544]	; 0x220
 80043ca:	4621      	mov	r1, r4
 80043cc:	1a89      	subs	r1, r1, r2
 80043ce:	f8c7 1218 	str.w	r1, [r7, #536]	; 0x218
 80043d2:	4629      	mov	r1, r5
 80043d4:	eb61 0303 	sbc.w	r3, r1, r3
 80043d8:	f8c7 321c 	str.w	r3, [r7, #540]	; 0x21c
 80043dc:	f8d7 338c 	ldr.w	r3, [r7, #908]	; 0x38c
 80043e0:	3338      	adds	r3, #56	; 0x38
 80043e2:	e9d3 2300 	ldrd	r2, r3, [r3]
 80043e6:	e9d7 4586 	ldrd	r4, r5, [r7, #536]	; 0x218
 80043ea:	4621      	mov	r1, r4
 80043ec:	1a89      	subs	r1, r1, r2
 80043ee:	f8c7 1210 	str.w	r1, [r7, #528]	; 0x210
 80043f2:	4629      	mov	r1, r5
 80043f4:	eb61 0303 	sbc.w	r3, r1, r3
 80043f8:	f8c7 3214 	str.w	r3, [r7, #532]	; 0x214
 80043fc:	e9d7 3484 	ldrd	r3, r4, [r7, #528]	; 0x210
 8004400:	e9c7 34c4 	strd	r3, r4, [r7, #784]	; 0x310
 8004404:	f8d7 338c 	ldr.w	r3, [r7, #908]	; 0x38c
 8004408:	e9d3 2300 	ldrd	r2, r3, [r3]
 800440c:	4250      	negs	r0, r2
 800440e:	eb63 0143 	sbc.w	r1, r3, r3, lsl #1
 8004412:	f8d7 338c 	ldr.w	r3, [r7, #908]	; 0x38c
 8004416:	3308      	adds	r3, #8
 8004418:	e9d3 2300 	ldrd	r2, r3, [r3]
 800441c:	1a84      	subs	r4, r0, r2
 800441e:	f8c7 4208 	str.w	r4, [r7, #520]	; 0x208
 8004422:	eb61 0303 	sbc.w	r3, r1, r3
 8004426:	f8c7 320c 	str.w	r3, [r7, #524]	; 0x20c
 800442a:	f8d7 338c 	ldr.w	r3, [r7, #908]	; 0x38c
 800442e:	3318      	adds	r3, #24
 8004430:	e9d3 2300 	ldrd	r2, r3, [r3]
 8004434:	1891      	adds	r1, r2, r2
 8004436:	6439      	str	r1, [r7, #64]	; 0x40
 8004438:	415b      	adcs	r3, r3
 800443a:	647b      	str	r3, [r7, #68]	; 0x44
 800443c:	e9d7 2310 	ldrd	r2, r3, [r7, #64]	; 0x40
 8004440:	e9d7 4582 	ldrd	r4, r5, [r7, #520]	; 0x208
 8004444:	4621      	mov	r1, r4
 8004446:	1889      	adds	r1, r1, r2
 8004448:	f8c7 1200 	str.w	r1, [r7, #512]	; 0x200
 800444c:	4629      	mov	r1, r5
 800444e:	eb43 0101 	adc.w	r1, r3, r1
 8004452:	f8c7 1204 	str.w	r1, [r7, #516]	; 0x204
 8004456:	f8d7 338c 	ldr.w	r3, [r7, #908]	; 0x38c
 800445a:	3320      	adds	r3, #32
 800445c:	e9d3 2300 	ldrd	r2, r3, [r3]
 8004460:	1891      	adds	r1, r2, r2
 8004462:	63b9      	str	r1, [r7, #56]	; 0x38
 8004464:	415b      	adcs	r3, r3
 8004466:	63fb      	str	r3, [r7, #60]	; 0x3c
 8004468:	e9d7 230e 	ldrd	r2, r3, [r7, #56]	; 0x38
 800446c:	e9d7 4580 	ldrd	r4, r5, [r7, #512]	; 0x200
 8004470:	4621      	mov	r1, r4
 8004472:	1889      	adds	r1, r1, r2
 8004474:	f8c7 11f8 	str.w	r1, [r7, #504]	; 0x1f8
 8004478:	4629      	mov	r1, r5
 800447a:	eb43 0101 	adc.w	r1, r3, r1
 800447e:	f8c7 11fc 	str.w	r1, [r7, #508]	; 0x1fc
 8004482:	f8d7 338c 	ldr.w	r3, [r7, #908]	; 0x38c
 8004486:	3328      	adds	r3, #40	; 0x28
 8004488:	e9d3 2300 	ldrd	r2, r3, [r3]
 800448c:	e9d7 457e 	ldrd	r4, r5, [r7, #504]	; 0x1f8
 8004490:	4621      	mov	r1, r4
 8004492:	1889      	adds	r1, r1, r2
 8004494:	f8c7 11f0 	str.w	r1, [r7, #496]	; 0x1f0
 8004498:	4629      	mov	r1, r5
 800449a:	eb43 0101 	adc.w	r1, r3, r1
 800449e:	f8c7 11f4 	str.w	r1, [r7, #500]	; 0x1f4
 80044a2:	f8d7 338c 	ldr.w	r3, [r7, #908]	; 0x38c
 80044a6:	3338      	adds	r3, #56	; 0x38
 80044a8:	e9d3 2300 	ldrd	r2, r3, [r3]
 80044ac:	e9d7 457c 	ldrd	r4, r5, [r7, #496]	; 0x1f0
 80044b0:	4621      	mov	r1, r4
 80044b2:	1a89      	subs	r1, r1, r2
 80044b4:	f8c7 11e8 	str.w	r1, [r7, #488]	; 0x1e8
 80044b8:	4629      	mov	r1, r5
 80044ba:	eb61 0303 	sbc.w	r3, r1, r3
 80044be:	f8c7 31ec 	str.w	r3, [r7, #492]	; 0x1ec
 80044c2:	e9d7 347a 	ldrd	r3, r4, [r7, #488]	; 0x1e8
 80044c6:	e9c7 34c6 	strd	r3, r4, [r7, #792]	; 0x318
 80044ca:	f8d7 338c 	ldr.w	r3, [r7, #908]	; 0x38c
 80044ce:	3308      	adds	r3, #8
 80044d0:	e9d3 2300 	ldrd	r2, r3, [r3]
 80044d4:	4250      	negs	r0, r2
 80044d6:	eb63 0143 	sbc.w	r1, r3, r3, lsl #1
 80044da:	f8d7 338c 	ldr.w	r3, [r7, #908]	; 0x38c
 80044de:	3310      	adds	r3, #16
 80044e0:	e9d3 2300 	ldrd	r2, r3, [r3]
 80044e4:	1a84      	subs	r4, r0, r2
 80044e6:	f8c7 41e0 	str.w	r4, [r7, #480]	; 0x1e0
 80044ea:	eb61 0303 	sbc.w	r3, r1, r3
 80044ee:	f8c7 31e4 	str.w	r3, [r7, #484]	; 0x1e4
 80044f2:	f8d7 338c 	ldr.w	r3, [r7, #908]	; 0x38c
 80044f6:	3320      	adds	r3, #32
 80044f8:	e9d3 2300 	ldrd	r2, r3, [r3]
 80044fc:	1891      	adds	r1, r2, r2
 80044fe:	6339      	str	r1, [r7, #48]	; 0x30
 8004500:	415b      	adcs	r3, r3
 8004502:	637b      	str	r3, [r7, #52]	; 0x34
 8004504:	e9d7 230c 	ldrd	r2, r3, [r7, #48]	; 0x30
 8004508:	e9d7 4578 	ldrd	r4, r5, [r7, #480]	; 0x1e0
 800450c:	4621      	mov	r1, r4
 800450e:	1889      	adds	r1, r1, r2
 8004510:	f8c7 11d8 	str.w	r1, [r7, #472]	; 0x1d8
 8004514:	4629      	mov	r1, r5
 8004516:	eb43 0101 	adc.w	r1, r3, r1
 800451a:	f8c7 11dc 	str.w	r1, [r7, #476]	; 0x1dc
 800451e:	f8d7 338c 	ldr.w	r3, [r7, #908]	; 0x38c
 8004522:	3328      	adds	r3, #40	; 0x28
 8004524:	e9d3 2300 	ldrd	r2, r3, [r3]
 8004528:	1891      	adds	r1, r2, r2
 800452a:	62b9      	str	r1, [r7, #40]	; 0x28
 800452c:	415b      	adcs	r3, r3
 800452e:	62fb      	str	r3, [r7, #44]	; 0x2c
 8004530:	e9d7 230a 	ldrd	r2, r3, [r7, #40]	; 0x28
 8004534:	e9d7 4576 	ldrd	r4, r5, [r7, #472]	; 0x1d8
 8004538:	4621      	mov	r1, r4
 800453a:	1889      	adds	r1, r1, r2
 800453c:	f8c7 11d0 	str.w	r1, [r7, #464]	; 0x1d0
 8004540:	4629      	mov	r1, r5
 8004542:	eb43 0101 	adc.w	r1, r3, r1
 8004546:	f8c7 11d4 	str.w	r1, [r7, #468]	; 0x1d4
 800454a:	f8d7 338c 	ldr.w	r3, [r7, #908]	; 0x38c
 800454e:	3330      	adds	r3, #48	; 0x30
 8004550:	e9d3 2300 	ldrd	r2, r3, [r3]
 8004554:	e9d7 4574 	ldrd	r4, r5, [r7, #464]	; 0x1d0
 8004558:	4621      	mov	r1, r4
 800455a:	1889      	adds	r1, r1, r2
 800455c:	f8c7 11c8 	str.w	r1, [r7, #456]	; 0x1c8
 8004560:	4629      	mov	r1, r5
 8004562:	eb43 0101 	adc.w	r1, r3, r1
 8004566:	f8c7 11cc 	str.w	r1, [r7, #460]	; 0x1cc
 800456a:	e9d7 3472 	ldrd	r3, r4, [r7, #456]	; 0x1c8
 800456e:	e9c7 34c8 	strd	r3, r4, [r7, #800]	; 0x320
 8004572:	f8d7 338c 	ldr.w	r3, [r7, #908]	; 0x38c
 8004576:	3310      	adds	r3, #16
 8004578:	e9d3 2300 	ldrd	r2, r3, [r3]
 800457c:	4250      	negs	r0, r2
 800457e:	eb63 0143 	sbc.w	r1, r3, r3, lsl #1
 8004582:	f8d7 338c 	ldr.w	r3, [r7, #908]	; 0x38c
 8004586:	3318      	adds	r3, #24
 8004588:	e9d3 2300 	ldrd	r2, r3, [r3]
 800458c:	1a84      	subs	r4, r0, r2
 800458e:	f8c7 41c0 	str.w	r4, [r7, #448]	; 0x1c0
 8004592:	eb61 0303 	sbc.w	r3, r1, r3
 8004596:	f8c7 31c4 	str.w	r3, [r7, #452]	; 0x1c4
 800459a:	f8d7 338c 	ldr.w	r3, [r7, #908]	; 0x38c
 800459e:	3328      	adds	r3, #40	; 0x28
 80045a0:	e9d3 2300 	ldrd	r2, r3, [r3]
 80045a4:	1891      	adds	r1, r2, r2
 80045a6:	6239      	str	r1, [r7, #32]
 80045a8:	415b      	adcs	r3, r3
 80045aa:	627b      	str	r3, [r7, #36]	; 0x24
 80045ac:	e9d7 2308 	ldrd	r2, r3, [r7, #32]
 80045b0:	e9d7 4570 	ldrd	r4, r5, [r7, #448]	; 0x1c0
 80045b4:	4621      	mov	r1, r4
 80045b6:	1889      	adds	r1, r1, r2
 80045b8:	f8c7 11b8 	str.w	r1, [r7, #440]	; 0x1b8
 80045bc:	4629      	mov	r1, r5
 80045be:	eb43 0101 	adc.w	r1, r3, r1
 80045c2:	f8c7 11bc 	str.w	r1, [r7, #444]	; 0x1bc
 80045c6:	f8d7 338c 	ldr.w	r3, [r7, #908]	; 0x38c
 80045ca:	3330      	adds	r3, #48	; 0x30
 80045cc:	e9d3 2300 	ldrd	r2, r3, [r3]
 80045d0:	1891      	adds	r1, r2, r2
 80045d2:	61b9      	str	r1, [r7, #24]
 80045d4:	415b      	adcs	r3, r3
 80045d6:	61fb      	str	r3, [r7, #28]
 80045d8:	e9d7 2306 	ldrd	r2, r3, [r7, #24]
 80045dc:	e9d7 456e 	ldrd	r4, r5, [r7, #440]	; 0x1b8
 80045e0:	4621      	mov	r1, r4
 80045e2:	1889      	adds	r1, r1, r2
 80045e4:	f8c7 11b0 	str.w	r1, [r7, #432]	; 0x1b0
 80045e8:	4629      	mov	r1, r5
 80045ea:	eb43 0101 	adc.w	r1, r3, r1
 80045ee:	f8c7 11b4 	str.w	r1, [r7, #436]	; 0x1b4
 80045f2:	f8d7 338c 	ldr.w	r3, [r7, #908]	; 0x38c
 80045f6:	3338      	adds	r3, #56	; 0x38
 80045f8:	e9d3 2300 	ldrd	r2, r3, [r3]
 80045fc:	e9d7 456c 	ldrd	r4, r5, [r7, #432]	; 0x1b0
 8004600:	4621      	mov	r1, r4
 8004602:	1889      	adds	r1, r1, r2
 8004604:	f8c7 11a8 	str.w	r1, [r7, #424]	; 0x1a8
 8004608:	4629      	mov	r1, r5
 800460a:	eb43 0101 	adc.w	r1, r3, r1
 800460e:	f8c7 11ac 	str.w	r1, [r7, #428]	; 0x1ac
 8004612:	e9d7 346a 	ldrd	r3, r4, [r7, #424]	; 0x1a8
 8004616:	e9c7 34ca 	strd	r3, r4, [r7, #808]	; 0x328
 800461a:	f8d7 338c 	ldr.w	r3, [r7, #908]	; 0x38c
 800461e:	e9d3 2300 	ldrd	r2, r3, [r3]
 8004622:	4250      	negs	r0, r2
 8004624:	eb63 0143 	sbc.w	r1, r3, r3, lsl #1
 8004628:	f8d7 338c 	ldr.w	r3, [r7, #908]	; 0x38c
 800462c:	3308      	adds	r3, #8
 800462e:	e9d3 2300 	ldrd	r2, r3, [r3]
 8004632:	1a84      	subs	r4, r0, r2
 8004634:	f8c7 41a0 	str.w	r4, [r7, #416]	; 0x1a0
 8004638:	eb61 0303 	sbc.w	r3, r1, r3
 800463c:	f8c7 31a4 	str.w	r3, [r7, #420]	; 0x1a4
 8004640:	f8d7 338c 	ldr.w	r3, [r7, #908]	; 0x38c
 8004644:	3328      	adds	r3, #40	; 0x28
 8004646:	e9d3 2300 	ldrd	r2, r3, [r3]
 800464a:	e9d7 4568 	ldrd	r4, r5, [r7, #416]	; 0x1a0
 800464e:	4621      	mov	r1, r4
 8004650:	1889      	adds	r1, r1, r2
 8004652:	f8c7 1198 	str.w	r1, [r7, #408]	; 0x198
 8004656:	4629      	mov	r1, r5
 8004658:	eb43 0101 	adc.w	r1, r3, r1
 800465c:	f8c7 119c 	str.w	r1, [r7, #412]	; 0x19c
 8004660:	f8d7 338c 	ldr.w	r3, [r7, #908]	; 0x38c
 8004664:	3330      	adds	r3, #48	; 0x30
 8004666:	e9d3 0100 	ldrd	r0, r1, [r3]
 800466a:	4602      	mov	r2, r0
 800466c:	460b      	mov	r3, r1
 800466e:	1894      	adds	r4, r2, r2
 8004670:	613c      	str	r4, [r7, #16]
 8004672:	415b      	adcs	r3, r3
 8004674:	617b      	str	r3, [r7, #20]
 8004676:	e9d7 2304 	ldrd	r2, r3, [r7, #16]
 800467a:	1814      	adds	r4, r2, r0
 800467c:	f8c7 4190 	str.w	r4, [r7, #400]	; 0x190
 8004680:	414b      	adcs	r3, r1
 8004682:	f8c7 3194 	str.w	r3, [r7, #404]	; 0x194
 8004686:	e9d7 4566 	ldrd	r4, r5, [r7, #408]	; 0x198
 800468a:	4623      	mov	r3, r4
 800468c:	e9d7 0164 	ldrd	r0, r1, [r7, #400]	; 0x190
 8004690:	4602      	mov	r2, r0
 8004692:	189b      	adds	r3, r3, r2
 8004694:	f8c7 3188 	str.w	r3, [r7, #392]	; 0x188
 8004698:	460b      	mov	r3, r1
 800469a:	462a      	mov	r2, r5
 800469c:	eb42 0303 	adc.w	r3, r2, r3
 80046a0:	f8c7 318c 	str.w	r3, [r7, #396]	; 0x18c
 80046a4:	f8d7 338c 	ldr.w	r3, [r7, #908]	; 0x38c
 80046a8:	3338      	adds	r3, #56	; 0x38
 80046aa:	e9d3 2300 	ldrd	r2, r3, [r3]
 80046ae:	1891      	adds	r1, r2, r2
 80046b0:	60b9      	str	r1, [r7, #8]
 80046b2:	415b      	adcs	r3, r3
 80046b4:	60fb      	str	r3, [r7, #12]
 80046b6:	e9d7 2302 	ldrd	r2, r3, [r7, #8]
 80046ba:	e9d7 4562 	ldrd	r4, r5, [r7, #392]	; 0x188
 80046be:	4621      	mov	r1, r4
 80046c0:	1889      	adds	r1, r1, r2
 80046c2:	f8c7 1180 	str.w	r1, [r7, #384]	; 0x180
 80046c6:	4629      	mov	r1, r5
 80046c8:	eb43 0101 	adc.w	r1, r3, r1
 80046cc:	f8c7 1184 	str.w	r1, [r7, #388]	; 0x184
 80046d0:	e9d7 3460 	ldrd	r3, r4, [r7, #384]	; 0x180
 80046d4:	e9c7 34cc 	strd	r3, r4, [r7, #816]	; 0x330
 80046d8:	f8d7 338c 	ldr.w	r3, [r7, #908]	; 0x38c
 80046dc:	e9d3 0100 	ldrd	r0, r1, [r3]
 80046e0:	f8d7 338c 	ldr.w	r3, [r7, #908]	; 0x38c
 80046e4:	3310      	adds	r3, #16
 80046e6:	e9d3 2300 	ldrd	r2, r3, [r3]
 80046ea:	1a84      	subs	r4, r0, r2
 80046ec:	f8c7 4178 	str.w	r4, [r7, #376]	; 0x178
 80046f0:	eb61 0303 	sbc.w	r3, r1, r3
 80046f4:	f8c7 317c 	str.w	r3, [r7, #380]	; 0x17c
 80046f8:	f8d7 338c 	ldr.w	r3, [r7, #908]	; 0x38c
 80046fc:	3318      	adds	r3, #24
 80046fe:	e9d3 2300 	ldrd	r2, r3, [r3]
 8004702:	e9d7 455e 	ldrd	r4, r5, [r7, #376]	; 0x178
 8004706:	4621      	mov	r1, r4
 8004708:	1a89      	subs	r1, r1, r2
 800470a:	f8c7 1170 	str.w	r1, [r7, #368]	; 0x170
 800470e:	4629      	mov	r1, r5
 8004710:	eb61 0303 	sbc.w	r3, r1, r3
 8004714:	f8c7 3174 	str.w	r3, [r7, #372]	; 0x174
 8004718:	f8d7 338c 	ldr.w	r3, [r7, #908]	; 0x38c
 800471c:	3320      	adds	r3, #32
 800471e:	e9d3 2300 	ldrd	r2, r3, [r3]
 8004722:	e9d7 455c 	ldrd	r4, r5, [r7, #368]	; 0x170
 8004726:	4621      	mov	r1, r4
 8004728:	1a89      	subs	r1, r1, r2
 800472a:	f8c7 1168 	str.w	r1, [r7, #360]	; 0x168
 800472e:	4629      	mov	r1, r5
 8004730:	eb61 0303 	sbc.w	r3, r1, r3
 8004734:	f8c7 316c 	str.w	r3, [r7, #364]	; 0x16c
 8004738:	f8d7 338c 	ldr.w	r3, [r7, #908]	; 0x38c
 800473c:	3328      	adds	r3, #40	; 0x28
 800473e:	e9d3 2300 	ldrd	r2, r3, [r3]
 8004742:	e9d7 455a 	ldrd	r4, r5, [r7, #360]	; 0x168
 8004746:	4621      	mov	r1, r4
 8004748:	1a89      	subs	r1, r1, r2
 800474a:	f8c7 1160 	str.w	r1, [r7, #352]	; 0x160
 800474e:	4629      	mov	r1, r5
 8004750:	eb61 0303 	sbc.w	r3, r1, r3
 8004754:	f8c7 3164 	str.w	r3, [r7, #356]	; 0x164
 8004758:	f8d7 338c 	ldr.w	r3, [r7, #908]	; 0x38c
 800475c:	3338      	adds	r3, #56	; 0x38
 800475e:	e9d3 0100 	ldrd	r0, r1, [r3]
 8004762:	4602      	mov	r2, r0
 8004764:	460b      	mov	r3, r1
 8004766:	1894      	adds	r4, r2, r2
 8004768:	603c      	str	r4, [r7, #0]
 800476a:	415b      	adcs	r3, r3
 800476c:	607b      	str	r3, [r7, #4]
 800476e:	e9d7 2300 	ldrd	r2, r3, [r7]
 8004772:	1814      	adds	r4, r2, r0
 8004774:	f8c7 4158 	str.w	r4, [r7, #344]	; 0x158
 8004778:	414b      	adcs	r3, r1
 800477a:	f8c7 315c 	str.w	r3, [r7, #348]	; 0x15c
 800477e:	e9d7 4558 	ldrd	r4, r5, [r7, #352]	; 0x160
 8004782:	4623      	mov	r3, r4
 8004784:	e9d7 0156 	ldrd	r0, r1, [r7, #344]	; 0x158
 8004788:	4602      	mov	r2, r0
 800478a:	189b      	adds	r3, r3, r2
 800478c:	f8c7 3150 	str.w	r3, [r7, #336]	; 0x150
 8004790:	460b      	mov	r3, r1
 8004792:	462a      	mov	r2, r5
 8004794:	eb42 0303 	adc.w	r3, r2, r3
 8004798:	f8c7 3154 	str.w	r3, [r7, #340]	; 0x154
 800479c:	e9d7 3454 	ldrd	r3, r4, [r7, #336]	; 0x150
 80047a0:	e9c7 34ce 	strd	r3, r4, [r7, #824]	; 0x338
 80047a4:	e9d7 45c2 	ldrd	r4, r5, [r7, #776]	; 0x308
 80047a8:	e9d7 23c0 	ldrd	r2, r3, [r7, #768]	; 0x300
 80047ac:	f04f 0000 	mov.w	r0, #0
 80047b0:	f04f 0100 	mov.w	r1, #0
 80047b4:	0018      	movs	r0, r3
 80047b6:	17d9      	asrs	r1, r3, #31
 80047b8:	1823      	adds	r3, r4, r0
 80047ba:	f8c7 3148 	str.w	r3, [r7, #328]	; 0x148
 80047be:	eb45 0301 	adc.w	r3, r5, r1
 80047c2:	f8c7 314c 	str.w	r3, [r7, #332]	; 0x14c
 80047c6:	e9d7 3452 	ldrd	r3, r4, [r7, #328]	; 0x148
 80047ca:	e9c7 34c2 	strd	r3, r4, [r7, #776]	; 0x308
 80047ce:	e9d7 01c0 	ldrd	r0, r1, [r7, #768]	; 0x300
 80047d2:	f04f 32ff 	mov.w	r2, #4294967295	; 0xffffffff
 80047d6:	f04f 0300 	mov.w	r3, #0
 80047da:	ea00 0402 	and.w	r4, r0, r2
 80047de:	f8c7 4140 	str.w	r4, [r7, #320]	; 0x140
 80047e2:	400b      	ands	r3, r1
 80047e4:	f8c7 3144 	str.w	r3, [r7, #324]	; 0x144
 80047e8:	e9d7 3450 	ldrd	r3, r4, [r7, #320]	; 0x140
 80047ec:	e9c7 34c0 	strd	r3, r4, [r7, #768]	; 0x300
 80047f0:	e9d7 45c4 	ldrd	r4, r5, [r7, #784]	; 0x310
 80047f4:	e9d7 23c2 	ldrd	r2, r3, [r7, #776]	; 0x308
 80047f8:	f04f 0000 	mov.w	r0, #0
 80047fc:	f04f 0100 	mov.w	r1, #0
 8004800:	0018      	movs	r0, r3
 8004802:	17d9      	asrs	r1, r3, #31
 8004804:	1823      	adds	r3, r4, r0
 8004806:	f8c7 3138 	str.w	r3, [r7, #312]	; 0x138
 800480a:	eb45 0301 	adc.w	r3, r5, r1
 800480e:	f8c7 313c 	str.w	r3, [r7, #316]	; 0x13c
 8004812:	e9d7 344e 	ldrd	r3, r4, [r7, #312]	; 0x138
 8004816:	e9c7 34c4 	strd	r3, r4, [r7, #784]	; 0x310
 800481a:	e9d7 01c2 	ldrd	r0, r1, [r7, #776]	; 0x308
 800481e:	f04f 32ff 	mov.w	r2, #4294967295	; 0xffffffff
 8004822:	f04f 0300 	mov.w	r3, #0
 8004826:	ea00 0402 	and.w	r4, r0, r2
 800482a:	f8c7 4130 	str.w	r4, [r7, #304]	; 0x130
 800482e:	400b      	ands	r3, r1
 8004830:	f8c7 3134 	str.w	r3, [r7, #308]	; 0x134
 8004834:	e9d7 344c 	ldrd	r3, r4, [r7, #304]	; 0x130
 8004838:	e9c7 34c2 	strd	r3, r4, [r7, #776]	; 0x308
 800483c:	e9d7 45c6 	ldrd	r4, r5, [r7, #792]	; 0x318
 8004840:	e9d7 23c4 	ldrd	r2, r3, [r7, #784]	; 0x310
 8004844:	f04f 0000 	mov.w	r0, #0
 8004848:	f04f 0100 	mov.w	r1, #0
 800484c:	0018      	movs	r0, r3
 800484e:	17d9      	asrs	r1, r3, #31
 8004850:	1823      	adds	r3, r4, r0
 8004852:	f8c7 3128 	str.w	r3, [r7, #296]	; 0x128
 8004856:	eb45 0301 	adc.w	r3, r5, r1
 800485a:	f8c7 312c 	str.w	r3, [r7, #300]	; 0x12c
 800485e:	e9d7 344a 	ldrd	r3, r4, [r7, #296]	; 0x128
 8004862:	e9c7 34c6 	strd	r3, r4, [r7, #792]	; 0x318
 8004866:	e9d7 01c4 	ldrd	r0, r1, [r7, #784]	; 0x310
 800486a:	f04f 32ff 	mov.w	r2, #4294967295	; 0xffffffff
 800486e:	f04f 0300 	mov.w	r3, #0
 8004872:	ea00 0402 	and.w	r4, r0, r2
 8004876:	f8c7 4120 	str.w	r4, [r7, #288]	; 0x120
 800487a:	400b      	ands	r3, r1
 800487c:	f8c7 3124 	str.w	r3, [r7, #292]	; 0x124
 8004880:	e9d7 3448 	ldrd	r3, r4, [r7, #288]	; 0x120
 8004884:	e9c7 34c4 	strd	r3, r4, [r7, #784]	; 0x310
 8004888:	e9d7 45c8 	ldrd	r4, r5, [r7, #800]	; 0x320
 800488c:	e9d7 23c6 	ldrd	r2, r3, [r7, #792]	; 0x318
 8004890:	f04f 0000 	mov.w	r0, #0
 8004894:	f04f 0100 	mov.w	r1, #0
 8004898:	0018      	movs	r0, r3
 800489a:	17d9      	asrs	r1, r3, #31
 800489c:	1823      	adds	r3, r4, r0
 800489e:	f8c7 3118 	str.w	r3, [r7, #280]	; 0x118
 80048a2:	eb45 0301 	adc.w	r3, r5, r1
 80048a6:	f8c7 311c 	str.w	r3, [r7, #284]	; 0x11c
 80048aa:	e9d7 3446 	ldrd	r3, r4, [r7, #280]	; 0x118
 80048ae:	e9c7 34c8 	strd	r3, r4, [r7, #800]	; 0x320
 80048b2:	e9d7 01c6 	ldrd	r0, r1, [r7, #792]	; 0x318
 80048b6:	f04f 32ff 	mov.w	r2, #4294967295	; 0xffffffff
 80048ba:	f04f 0300 	mov.w	r3, #0
 80048be:	ea00 0402 	and.w	r4, r0, r2
 80048c2:	f8c7 4110 	str.w	r4, [r7, #272]	; 0x110
 80048c6:	400b      	ands	r3, r1
 80048c8:	f8c7 3114 	str.w	r3, [r7, #276]	; 0x114
 80048cc:	e9d7 3444 	ldrd	r3, r4, [r7, #272]	; 0x110
 80048d0:	e9c7 34c6 	strd	r3, r4, [r7, #792]	; 0x318
 80048d4:	e9d7 45ca 	ldrd	r4, r5, [r7, #808]	; 0x328
 80048d8:	e9d7 23c8 	ldrd	r2, r3, [r7, #800]	; 0x320
 80048dc:	f04f 0000 	mov.w	r0, #0
 80048e0:	f04f 0100 	mov.w	r1, #0
 80048e4:	0018      	movs	r0, r3
 80048e6:	17d9      	asrs	r1, r3, #31
 80048e8:	1823      	adds	r3, r4, r0
 80048ea:	f8c7 3108 	str.w	r3, [r7, #264]	; 0x108
 80048ee:	eb45 0301 	adc.w	r3, r5, r1
 80048f2:	f8c7 310c 	str.w	r3, [r7, #268]	; 0x10c
 80048f6:	e9d7 3442 	ldrd	r3, r4, [r7, #264]	; 0x108
 80048fa:	e9c7 34ca 	strd	r3, r4, [r7, #808]	; 0x328
 80048fe:	e9d7 01c8 	ldrd	r0, r1, [r7, #800]	; 0x320
 8004902:	f04f 32ff 	mov.w	r2, #4294967295	; 0xffffffff
 8004906:	f04f 0300 	mov.w	r3, #0
 800490a:	ea00 0402 	and.w	r4, r0, r2
 800490e:	f8c7 4100 	str.w	r4, [r7, #256]	; 0x100
 8004912:	400b      	ands	r3, r1
 8004914:	f8c7 3104 	str.w	r3, [r7, #260]	; 0x104
 8004918:	e9d7 3440 	ldrd	r3, r4, [r7, #256]	; 0x100
 800491c:	e9c7 34c8 	strd	r3, r4, [r7, #800]	; 0x320
 8004920:	e9d7 45cc 	ldrd	r4, r5, [r7, #816]	; 0x330
 8004924:	e9d7 23ca 	ldrd	r2, r3, [r7, #808]	; 0x328
 8004928:	f04f 0000 	mov.w	r0, #0
 800492c:	f04f 0100 	mov.w	r1, #0
 8004930:	0018      	movs	r0, r3
 8004932:	17d9      	asrs	r1, r3, #31
 8004934:	1823      	adds	r3, r4, r0
 8004936:	f8c7 30f8 	str.w	r3, [r7, #248]	; 0xf8
 800493a:	eb45 0301 	adc.w	r3, r5, r1
 800493e:	f8c7 30fc 	str.w	r3, [r7, #252]	; 0xfc
 8004942:	e9d7 343e 	ldrd	r3, r4, [r7, #248]	; 0xf8
 8004946:	e9c7 34cc 	strd	r3, r4, [r7, #816]	; 0x330
 800494a:	e9d7 01ca 	ldrd	r0, r1, [r7, #808]	; 0x328
 800494e:	f04f 32ff 	mov.w	r2, #4294967295	; 0xffffffff
 8004952:	f04f 0300 	mov.w	r3, #0
 8004956:	ea00 0402 	and.w	r4, r0, r2
 800495a:	f8c7 40f0 	str.w	r4, [r7, #240]	; 0xf0
 800495e:	400b      	ands	r3, r1
 8004960:	f8c7 30f4 	str.w	r3, [r7, #244]	; 0xf4
 8004964:	e9d7 343c 	ldrd	r3, r4, [r7, #240]	; 0xf0
 8004968:	e9c7 34ca 	strd	r3, r4, [r7, #808]	; 0x328
 800496c:	e9d7 45ce 	ldrd	r4, r5, [r7, #824]	; 0x338
 8004970:	e9d7 23cc 	ldrd	r2, r3, [r7, #816]	; 0x330
 8004974:	f04f 0000 	mov.w	r0, #0
 8004978:	f04f 0100 	mov.w	r1, #0
 800497c:	0018      	movs	r0, r3
 800497e:	17d9      	asrs	r1, r3, #31
 8004980:	1823      	adds	r3, r4, r0
 8004982:	f8c7 30e8 	str.w	r3, [r7, #232]	; 0xe8
 8004986:	eb45 0301 	adc.w	r3, r5, r1
 800498a:	f8c7 30ec 	str.w	r3, [r7, #236]	; 0xec
 800498e:	e9d7 343a 	ldrd	r3, r4, [r7, #232]	; 0xe8
 8004992:	e9c7 34ce 	strd	r3, r4, [r7, #824]	; 0x338
 8004996:	e9d7 01cc 	ldrd	r0, r1, [r7, #816]	; 0x330
 800499a:	f04f 32ff 	mov.w	r2, #4294967295	; 0xffffffff
 800499e:	f04f 0300 	mov.w	r3, #0
 80049a2:	ea00 0402 	and.w	r4, r0, r2
 80049a6:	f8c7 40e0 	str.w	r4, [r7, #224]	; 0xe0
 80049aa:	400b      	ands	r3, r1
 80049ac:	f8c7 30e4 	str.w	r3, [r7, #228]	; 0xe4
 80049b0:	e9d7 3438 	ldrd	r3, r4, [r7, #224]	; 0xe0
 80049b4:	e9c7 34cc 	strd	r3, r4, [r7, #816]	; 0x330
 80049b8:	e9d7 23ce 	ldrd	r2, r3, [r7, #824]	; 0x338
 80049bc:	f04f 0000 	mov.w	r0, #0
 80049c0:	f04f 0100 	mov.w	r1, #0
 80049c4:	0018      	movs	r0, r3
 80049c6:	17d9      	asrs	r1, r3, #31
 80049c8:	e9c7 01e0 	strd	r0, r1, [r7, #896]	; 0x380
 80049cc:	e9d7 01ce 	ldrd	r0, r1, [r7, #824]	; 0x338
 80049d0:	f04f 32ff 	mov.w	r2, #4294967295	; 0xffffffff
 80049d4:	f04f 0300 	mov.w	r3, #0
 80049d8:	ea00 0402 	and.w	r4, r0, r2
 80049dc:	f8c7 40d8 	str.w	r4, [r7, #216]	; 0xd8
 80049e0:	400b      	ands	r3, r1
 80049e2:	f8c7 30dc 	str.w	r3, [r7, #220]	; 0xdc
 80049e6:	e9d7 3436 	ldrd	r3, r4, [r7, #216]	; 0xd8
 80049ea:	e9c7 34ce 	strd	r3, r4, [r7, #824]	; 0x338
 80049ee:	e9d7 01c0 	ldrd	r0, r1, [r7, #768]	; 0x300
 80049f2:	e9d7 23e0 	ldrd	r2, r3, [r7, #896]	; 0x380
 80049f6:	1884      	adds	r4, r0, r2
 80049f8:	f8c7 40d0 	str.w	r4, [r7, #208]	; 0xd0
 80049fc:	eb41 0303 	adc.w	r3, r1, r3
 8004a00:	f8c7 30d4 	str.w	r3, [r7, #212]	; 0xd4
 8004a04:	e9d7 3434 	ldrd	r3, r4, [r7, #208]	; 0xd0
 8004a08:	e9c7 34c0 	strd	r3, r4, [r7, #768]	; 0x300
 8004a0c:	e9d7 01c6 	ldrd	r0, r1, [r7, #792]	; 0x318
 8004a10:	e9d7 23e0 	ldrd	r2, r3, [r7, #896]	; 0x380
 8004a14:	1a84      	subs	r4, r0, r2
 8004a16:	f8c7 40c8 	str.w	r4, [r7, #200]	; 0xc8
 8004a1a:	eb61 0303 	sbc.w	r3, r1, r3
 8004a1e:	f8c7 30cc 	str.w	r3, [r7, #204]	; 0xcc
 8004a22:	e9d7 3432 	ldrd	r3, r4, [r7, #200]	; 0xc8
 8004a26:	e9c7 34c6 	strd	r3, r4, [r7, #792]	; 0x318
 8004a2a:	e9d7 01cc 	ldrd	r0, r1, [r7, #816]	; 0x330
 8004a2e:	e9d7 23e0 	ldrd	r2, r3, [r7, #896]	; 0x380
 8004a32:	1a84      	subs	r4, r0, r2
 8004a34:	f8c7 40c0 	str.w	r4, [r7, #192]	; 0xc0
 8004a38:	eb61 0303 	sbc.w	r3, r1, r3
 8004a3c:	f8c7 30c4 	str.w	r3, [r7, #196]	; 0xc4
 8004a40:	e9d7 3430 	ldrd	r3, r4, [r7, #192]	; 0xc0
 8004a44:	e9c7 34cc 	strd	r3, r4, [r7, #816]	; 0x330
 8004a48:	e9d7 01ce 	ldrd	r0, r1, [r7, #824]	; 0x338
 8004a4c:	e9d7 23e0 	ldrd	r2, r3, [r7, #896]	; 0x380
 8004a50:	1884      	adds	r4, r0, r2
 8004a52:	f8c7 40b8 	str.w	r4, [r7, #184]	; 0xb8
 8004a56:	eb41 0303 	adc.w	r3, r1, r3
 8004a5a:	f8c7 30bc 	str.w	r3, [r7, #188]	; 0xbc
 8004a5e:	e9d7 342e 	ldrd	r3, r4, [r7, #184]	; 0xb8
 8004a62:	e9c7 34ce 	strd	r3, r4, [r7, #824]	; 0x338
 8004a66:	e9d7 45c2 	ldrd	r4, r5, [r7, #776]	; 0x308
 8004a6a:	e9d7 23c0 	ldrd	r2, r3, [r7, #768]	; 0x300
 8004a6e:	f04f 0000 	mov.w	r0, #0
 8004a72:	f04f 0100 	mov.w	r1, #0
 8004a76:	0018      	movs	r0, r3
 8004a78:	17d9      	asrs	r1, r3, #31
 8004a7a:	1823      	adds	r3, r4, r0
 8004a7c:	f8c7 30b0 	str.w	r3, [r7, #176]	; 0xb0
 8004a80:	eb45 0301 	adc.w	r3, r5, r1
 8004a84:	f8c7 30b4 	str.w	r3, [r7, #180]	; 0xb4
 8004a88:	e9d7 342c 	ldrd	r3, r4, [r7, #176]	; 0xb0
 8004a8c:	e9c7 34c2 	strd	r3, r4, [r7, #776]	; 0x308
 8004a90:	e9d7 01c0 	ldrd	r0, r1, [r7, #768]	; 0x300
 8004a94:	f04f 32ff 	mov.w	r2, #4294967295	; 0xffffffff
 8004a98:	f04f 0300 	mov.w	r3, #0
 8004a9c:	ea00 0402 	and.w	r4, r0, r2
 8004aa0:	f8c7 40a8 	str.w	r4, [r7, #168]	; 0xa8
 8004aa4:	400b      	ands	r3, r1
 8004aa6:	f8c7 30ac 	str.w	r3, [r7, #172]	; 0xac
 8004aaa:	e9d7 342a 	ldrd	r3, r4, [r7, #168]	; 0xa8
 8004aae:	e9c7 34c0 	strd	r3, r4, [r7, #768]	; 0x300
 8004ab2:	e9d7 45c4 	ldrd	r4, r5, [r7, #784]	; 0x310
 8004ab6:	e9d7 23c2 	ldrd	r2, r3, [r7, #776]	; 0x308
 8004aba:	f04f 0000 	mov.w	r0, #0
 8004abe:	f04f 0100 	mov.w	r1, #0
 8004ac2:	0018      	movs	r0, r3
 8004ac4:	17d9      	asrs	r1, r3, #31
 8004ac6:	1823      	adds	r3, r4, r0
 8004ac8:	f8c7 30a0 	str.w	r3, [r7, #160]	; 0xa0
 8004acc:	eb45 0301 	adc.w	r3, r5, r1
 8004ad0:	f8c7 30a4 	str.w	r3, [r7, #164]	; 0xa4
 8004ad4:	e9d7 3428 	ldrd	r3, r4, [r7, #160]	; 0xa0
 8004ad8:	e9c7 34c4 	strd	r3, r4, [r7, #784]	; 0x310
 8004adc:	e9d7 01c2 	ldrd	r0, r1, [r7, #776]	; 0x308
 8004ae0:	f04f 32ff 	mov.w	r2, #4294967295	; 0xffffffff
 8004ae4:	f04f 0300 	mov.w	r3, #0
 8004ae8:	ea00 0402 	and.w	r4, r0, r2
 8004aec:	f8c7 4098 	str.w	r4, [r7, #152]	; 0x98
 8004af0:	400b      	ands	r3, r1
 8004af2:	f8c7 309c 	str.w	r3, [r7, #156]	; 0x9c
 8004af6:	e9d7 3426 	ldrd	r3, r4, [r7, #152]	; 0x98
 8004afa:	e9c7 34c2 	strd	r3, r4, [r7, #776]	; 0x308
 8004afe:	e9d7 45c6 	ldrd	r4, r5, [r7, #792]	; 0x318
 8004b02:	e9d7 23c4 	ldrd	r2, r3, [r7, #784]	; 0x310
 8004b06:	f04f 0000 	mov.w	r0, #0
 8004b0a:	f04f 0100 	mov.w	r1, #0
 8004b0e:	0018      	movs	r0, r3
 8004b10:	17d9      	asrs	r1, r3, #31
 8004b12:	1823      	adds	r3, r4, r0
 8004b14:	f8c7 3090 	str.w	r3, [r7, #144]	; 0x90
 8004b18:	eb45 0301 	adc.w	r3, r5, r1
 8004b1c:	f8c7 3094 	str.w	r3, [r7, #148]	; 0x94
 8004b20:	e9d7 3424 	ldrd	r3, r4, [r7, #144]	; 0x90
 8004b24:	e9c7 34c6 	strd	r3, r4, [r7, #792]	; 0x318
 8004b28:	e9d7 01c4 	ldrd	r0, r1, [r7, #784]	; 0x310
 8004b2c:	f04f 32ff 	mov.w	r2, #4294967295	; 0xffffffff
 8004b30:	f04f 0300 	mov.w	r3, #0
 8004b34:	ea00 0402 	and.w	r4, r0, r2
 8004b38:	f8c7 4088 	str.w	r4, [r7, #136]	; 0x88
 8004b3c:	400b      	ands	r3, r1
 8004b3e:	f8c7 308c 	str.w	r3, [r7, #140]	; 0x8c
 8004b42:	e9d7 3422 	ldrd	r3, r4, [r7, #136]	; 0x88
 8004b46:	e9c7 34c4 	strd	r3, r4, [r7, #784]	; 0x310
 8004b4a:	e9d7 45c8 	ldrd	r4, r5, [r7, #800]	; 0x320
 8004b4e:	e9d7 23c6 	ldrd	r2, r3, [r7, #792]	; 0x318
 8004b52:	f04f 0000 	mov.w	r0, #0
 8004b56:	f04f 0100 	mov.w	r1, #0
 8004b5a:	0018      	movs	r0, r3
 8004b5c:	17d9      	asrs	r1, r3, #31
 8004b5e:	1823      	adds	r3, r4, r0
 8004b60:	f8c7 3080 	str.w	r3, [r7, #128]	; 0x80
 8004b64:	eb45 0301 	adc.w	r3, r5, r1
 8004b68:	f8c7 3084 	str.w	r3, [r7, #132]	; 0x84
 8004b6c:	e9d7 3420 	ldrd	r3, r4, [r7, #128]	; 0x80
 8004b70:	e9c7 34c8 	strd	r3, r4, [r7, #800]	; 0x320
 8004b74:	e9d7 01c6 	ldrd	r0, r1, [r7, #792]	; 0x318
 8004b78:	f04f 32ff 	mov.w	r2, #4294967295	; 0xffffffff
 8004b7c:	f04f 0300 	mov.w	r3, #0
 8004b80:	ea00 0402 	and.w	r4, r0, r2
 8004b84:	67bc      	str	r4, [r7, #120]	; 0x78
 8004b86:	400b      	ands	r3, r1
 8004b88:	67fb      	str	r3, [r7, #124]	; 0x7c
 8004b8a:	e9d7 341e 	ldrd	r3, r4, [r7, #120]	; 0x78
 8004b8e:	e9c7 34c6 	strd	r3, r4, [r7, #792]	; 0x318
 8004b92:	e9d7 45ca 	ldrd	r4, r5, [r7, #808]	; 0x328
 8004b96:	e9d7 23c8 	ldrd	r2, r3, [r7, #800]	; 0x320
 8004b9a:	f04f 0000 	mov.w	r0, #0
 8004b9e:	f04f 0100 	mov.w	r1, #0
 8004ba2:	0018      	movs	r0, r3
 8004ba4:	17d9      	asrs	r1, r3, #31
 8004ba6:	1823      	adds	r3, r4, r0
 8004ba8:	673b      	str	r3, [r7, #112]	; 0x70
 8004baa:	eb45 0301 	adc.w	r3, r5, r1
 8004bae:	677b      	str	r3, [r7, #116]	; 0x74
 8004bb0:	e9d7 341c 	ldrd	r3, r4, [r7, #112]	; 0x70
 8004bb4:	e9c7 34ca 	strd	r3, r4, [r7, #808]	; 0x328
 8004bb8:	e9d7 23c8 	ldrd	r2, r3, [r7, #800]	; 0x320
 8004bbc:	f04f 30ff 	mov.w	r0, #4294967295	; 0xffffffff
 8004bc0:	f04f 0100 	mov.w	r1, #0
 8004bc4:	ea02 0400 	and.w	r4, r2, r0
 8004bc8:	66bc      	str	r4, [r7, #104]	; 0x68
 8004bca:	400b      	ands	r3, r1
 8004bcc:	66fb      	str	r3, [r7, #108]	; 0x6c
 8004bce:	e9d7 341a 	ldrd	r3, r4, [r7, #104]	; 0x68
 8004bd2:	e9c7 34c8 	strd	r3, r4, [r7, #800]	; 0x320
 8004bd6:	e9d7 01cc 	ldrd	r0, r1, [r7, #816]	; 0x330
 8004bda:	e9d7 45ca 	ldrd	r4, r5, [r7, #808]	; 0x328
 8004bde:	f04f 0200 	mov.w	r2, #0
 8004be2:	f04f 0300 	mov.w	r3, #0
 8004be6:	002a      	movs	r2, r5
 8004be8:	17eb      	asrs	r3, r5, #31
 8004bea:	1884      	adds	r4, r0, r2
 8004bec:	663c      	str	r4, [r7, #96]	; 0x60
 8004bee:	eb41 0303 	adc.w	r3, r1, r3
 8004bf2:	667b      	str	r3, [r7, #100]	; 0x64
 8004bf4:	e9d7 3418 	ldrd	r3, r4, [r7, #96]	; 0x60
 8004bf8:	e9c7 34cc 	strd	r3, r4, [r7, #816]	; 0x330
 8004bfc:	e9d7 23ca 	ldrd	r2, r3, [r7, #808]	; 0x328
 8004c00:	f04f 30ff 	mov.w	r0, #4294967295	; 0xffffffff
 8004c04:	f04f 0100 	mov.w	r1, #0
 8004c08:	ea02 0400 	and.w	r4, r2, r0
 8004c0c:	65bc      	str	r4, [r7, #88]	; 0x58
 8004c0e:	400b      	ands	r3, r1
 8004c10:	65fb      	str	r3, [r7, #92]	; 0x5c
 8004c12:	e9d7 3416 	ldrd	r3, r4, [r7, #88]	; 0x58
 8004c16:	e9c7 34ca 	strd	r3, r4, [r7, #808]	; 0x328
 8004c1a:	e9d7 01ce 	ldrd	r0, r1, [r7, #824]	; 0x338
 8004c1e:	e9d7 45cc 	ldrd	r4, r5, [r7, #816]	; 0x330
 8004c22:	f04f 0200 	mov.w	r2, #0
 8004c26:	f04f 0300 	mov.w	r3, #0
 8004c2a:	002a      	movs	r2, r5
 8004c2c:	17eb      	asrs	r3, r5, #31
 8004c2e:	1884      	adds	r4, r0, r2
 8004c30:	653c      	str	r4, [r7, #80]	; 0x50
 8004c32:	eb41 0303 	adc.w	r3, r1, r3
 8004c36:	657b      	str	r3, [r7, #84]	; 0x54
 8004c38:	e9d7 3414 	ldrd	r3, r4, [r7, #80]	; 0x50
 8004c3c:	e9c7 34ce 	strd	r3, r4, [r7, #824]	; 0x338
 8004c40:	e9d7 23cc 	ldrd	r2, r3, [r7, #816]	; 0x330
 8004c44:	f04f 30ff 	mov.w	r0, #4294967295	; 0xffffffff
 8004c48:	f04f 0100 	mov.w	r1, #0
 8004c4c:	ea02 0400 	and.w	r4, r2, r0
 8004c50:	64bc      	str	r4, [r7, #72]	; 0x48
 8004c52:	400b      	ands	r3, r1
 8004c54:	64fb      	str	r3, [r7, #76]	; 0x4c
 8004c56:	e9d7 3412 	ldrd	r3, r4, [r7, #72]	; 0x48
 8004c5a:	e9c7 34cc 	strd	r3, r4, [r7, #816]	; 0x330
 8004c5e:	e9d7 23c0 	ldrd	r2, r3, [r7, #768]	; 0x300
 8004c62:	4613      	mov	r3, r2
 8004c64:	f023 427c 	bic.w	r2, r3, #4227858432	; 0xfc000000
 8004c68:	f8d7 32fc 	ldr.w	r3, [r7, #764]	; 0x2fc
 8004c6c:	601a      	str	r2, [r3, #0]
 8004c6e:	e9d7 01c0 	ldrd	r0, r1, [r7, #768]	; 0x300
 8004c72:	f04f 0200 	mov.w	r2, #0
 8004c76:	f04f 0300 	mov.w	r3, #0
 8004c7a:	0e82      	lsrs	r2, r0, #26
 8004c7c:	ea42 1281 	orr.w	r2, r2, r1, lsl #6
 8004c80:	168b      	asrs	r3, r1, #26
 8004c82:	f8d7 12fc 	ldr.w	r1, [r7, #764]	; 0x2fc
 8004c86:	3104      	adds	r1, #4
 8004c88:	4613      	mov	r3, r2
 8004c8a:	600b      	str	r3, [r1, #0]
 8004c8c:	f8d7 32fc 	ldr.w	r3, [r7, #764]	; 0x2fc
 8004c90:	3304      	adds	r3, #4
 8004c92:	681c      	ldr	r4, [r3, #0]
 8004c94:	e9d7 01c2 	ldrd	r0, r1, [r7, #776]	; 0x308
 8004c98:	f04f 0200 	mov.w	r2, #0
 8004c9c:	f04f 0300 	mov.w	r3, #0
 8004ca0:	018b      	lsls	r3, r1, #6
 8004ca2:	ea43 6390 	orr.w	r3, r3, r0, lsr #26
 8004ca6:	0182      	lsls	r2, r0, #6
 8004ca8:	f8d7 32fc 	ldr.w	r3, [r7, #764]	; 0x2fc
 8004cac:	3304      	adds	r3, #4
 8004cae:	4322      	orrs	r2, r4
 8004cb0:	601a      	str	r2, [r3, #0]
 8004cb2:	f8d7 32fc 	ldr.w	r3, [r7, #764]	; 0x2fc
 8004cb6:	3304      	adds	r3, #4
 8004cb8:	681a      	ldr	r2, [r3, #0]
 8004cba:	f8d7 32fc 	ldr.w	r3, [r7, #764]	; 0x2fc
 8004cbe:	3304      	adds	r3, #4
 8004cc0:	f022 427c 	bic.w	r2, r2, #4227858432	; 0xfc000000
 8004cc4:	601a      	str	r2, [r3, #0]
 8004cc6:	e9d7 01c2 	ldrd	r0, r1, [r7, #776]	; 0x308
 8004cca:	f04f 0200 	mov.w	r2, #0
 8004cce:	f04f 0300 	mov.w	r3, #0
 8004cd2:	0d02      	lsrs	r2, r0, #20
 8004cd4:	ea42 3201 	orr.w	r2, r2, r1, lsl #12
 8004cd8:	150b      	asrs	r3, r1, #20
 8004cda:	f8d7 12fc 	ldr.w	r1, [r7, #764]	; 0x2fc
 8004cde:	3108      	adds	r1, #8
 8004ce0:	4613      	mov	r3, r2
 8004ce2:	600b      	str	r3, [r1, #0]
 8004ce4:	f8d7 32fc 	ldr.w	r3, [r7, #764]	; 0x2fc
 8004ce8:	3308      	adds	r3, #8
 8004cea:	681c      	ldr	r4, [r3, #0]
 8004cec:	e9d7 01c4 	ldrd	r0, r1, [r7, #784]	; 0x310
 8004cf0:	f04f 0200 	mov.w	r2, #0
 8004cf4:	f04f 0300 	mov.w	r3, #0
 8004cf8:	030b      	lsls	r3, r1, #12
 8004cfa:	ea43 5310 	orr.w	r3, r3, r0, lsr #20
 8004cfe:	0302      	lsls	r2, r0, #12
 8004d00:	f8d7 32fc 	ldr.w	r3, [r7, #764]	; 0x2fc
 8004d04:	3308      	adds	r3, #8
 8004d06:	4322      	orrs	r2, r4
 8004d08:	601a      	str	r2, [r3, #0]
 8004d0a:	f8d7 32fc 	ldr.w	r3, [r7, #764]	; 0x2fc
 8004d0e:	3308      	adds	r3, #8
 8004d10:	681a      	ldr	r2, [r3, #0]
 8004d12:	f8d7 32fc 	ldr.w	r3, [r7, #764]	; 0x2fc
 8004d16:	3308      	adds	r3, #8
 8004d18:	f022 427c 	bic.w	r2, r2, #4227858432	; 0xfc000000
 8004d1c:	601a      	str	r2, [r3, #0]
 8004d1e:	e9d7 01c4 	ldrd	r0, r1, [r7, #784]	; 0x310
 8004d22:	f04f 0200 	mov.w	r2, #0
 8004d26:	f04f 0300 	mov.w	r3, #0
 8004d2a:	0b82      	lsrs	r2, r0, #14
 8004d2c:	ea42 4281 	orr.w	r2, r2, r1, lsl #18
 8004d30:	138b      	asrs	r3, r1, #14
 8004d32:	f8d7 12fc 	ldr.w	r1, [r7, #764]	; 0x2fc
 8004d36:	310c      	adds	r1, #12
 8004d38:	4613      	mov	r3, r2
 8004d3a:	600b      	str	r3, [r1, #0]
 8004d3c:	f8d7 32fc 	ldr.w	r3, [r7, #764]	; 0x2fc
 8004d40:	330c      	adds	r3, #12
 8004d42:	681c      	ldr	r4, [r3, #0]
 8004d44:	e9d7 01c6 	ldrd	r0, r1, [r7, #792]	; 0x318
 8004d48:	f04f 0200 	mov.w	r2, #0
 8004d4c:	f04f 0300 	mov.w	r3, #0
 8004d50:	048b      	lsls	r3, r1, #18
 8004d52:	ea43 3390 	orr.w	r3, r3, r0, lsr #14
 8004d56:	0482      	lsls	r2, r0, #18
 8004d58:	f8d7 32fc 	ldr.w	r3, [r7, #764]	; 0x2fc
 8004d5c:	330c      	adds	r3, #12
 8004d5e:	4322      	orrs	r2, r4
 8004d60:	601a      	str	r2, [r3, #0]
 8004d62:	f8d7 32fc 	ldr.w	r3, [r7, #764]	; 0x2fc
 8004d66:	330c      	adds	r3, #12
 8004d68:	681a      	ldr	r2, [r3, #0]
 8004d6a:	f8d7 32fc 	ldr.w	r3, [r7, #764]	; 0x2fc
 8004d6e:	330c      	adds	r3, #12
 8004d70:	f022 427c 	bic.w	r2, r2, #4227858432	; 0xfc000000
 8004d74:	601a      	str	r2, [r3, #0]
 8004d76:	e9d7 01c6 	ldrd	r0, r1, [r7, #792]	; 0x318
 8004d7a:	f04f 0200 	mov.w	r2, #0
 8004d7e:	f04f 0300 	mov.w	r3, #0
 8004d82:	0a02      	lsrs	r2, r0, #8
 8004d84:	ea42 6201 	orr.w	r2, r2, r1, lsl #24
 8004d88:	120b      	asrs	r3, r1, #8
 8004d8a:	f8d7 12fc 	ldr.w	r1, [r7, #764]	; 0x2fc
 8004d8e:	3110      	adds	r1, #16
 8004d90:	4613      	mov	r3, r2
 8004d92:	600b      	str	r3, [r1, #0]
 8004d94:	f8d7 32fc 	ldr.w	r3, [r7, #764]	; 0x2fc
 8004d98:	3310      	adds	r3, #16
 8004d9a:	681c      	ldr	r4, [r3, #0]
 8004d9c:	e9d7 01c8 	ldrd	r0, r1, [r7, #800]	; 0x320
 8004da0:	f04f 0200 	mov.w	r2, #0
 8004da4:	f04f 0300 	mov.w	r3, #0
 8004da8:	060b      	lsls	r3, r1, #24
 8004daa:	ea43 2310 	orr.w	r3, r3, r0, lsr #8
 8004dae:	0602      	lsls	r2, r0, #24
 8004db0:	f8d7 32fc 	ldr.w	r3, [r7, #764]	; 0x2fc
 8004db4:	3310      	adds	r3, #16
 8004db6:	4322      	orrs	r2, r4
 8004db8:	601a      	str	r2, [r3, #0]
 8004dba:	f8d7 32fc 	ldr.w	r3, [r7, #764]	; 0x2fc
 8004dbe:	3310      	adds	r3, #16
 8004dc0:	681a      	ldr	r2, [r3, #0]
 8004dc2:	f8d7 32fc 	ldr.w	r3, [r7, #764]	; 0x2fc
 8004dc6:	3310      	adds	r3, #16
 8004dc8:	f022 427c 	bic.w	r2, r2, #4227858432	; 0xfc000000
 8004dcc:	601a      	str	r2, [r3, #0]
 8004dce:	e9d7 01c8 	ldrd	r0, r1, [r7, #800]	; 0x320
 8004dd2:	f04f 0200 	mov.w	r2, #0
 8004dd6:	f04f 0300 	mov.w	r3, #0
 8004dda:	0882      	lsrs	r2, r0, #2
 8004ddc:	ea42 7281 	orr.w	r2, r2, r1, lsl #30
 8004de0:	108b      	asrs	r3, r1, #2
 8004de2:	f8d7 32fc 	ldr.w	r3, [r7, #764]	; 0x2fc
 8004de6:	3314      	adds	r3, #20
 8004de8:	f022 427c 	bic.w	r2, r2, #4227858432	; 0xfc000000
 8004dec:	601a      	str	r2, [r3, #0]
 8004dee:	e9d7 01c8 	ldrd	r0, r1, [r7, #800]	; 0x320
 8004df2:	f04f 0200 	mov.w	r2, #0
 8004df6:	f04f 0300 	mov.w	r3, #0
 8004dfa:	0f02      	lsrs	r2, r0, #28
 8004dfc:	ea42 1201 	orr.w	r2, r2, r1, lsl #4
 8004e00:	170b      	asrs	r3, r1, #28
 8004e02:	f8d7 12fc 	ldr.w	r1, [r7, #764]	; 0x2fc
 8004e06:	3118      	adds	r1, #24
 8004e08:	4613      	mov	r3, r2
 8004e0a:	600b      	str	r3, [r1, #0]
 8004e0c:	f8d7 32fc 	ldr.w	r3, [r7, #764]	; 0x2fc
 8004e10:	3318      	adds	r3, #24
 8004e12:	681c      	ldr	r4, [r3, #0]
 8004e14:	e9d7 01ca 	ldrd	r0, r1, [r7, #808]	; 0x328
 8004e18:	f04f 0200 	mov.w	r2, #0
 8004e1c:	f04f 0300 	mov.w	r3, #0
 8004e20:	010b      	lsls	r3, r1, #4
 8004e22:	ea43 7310 	orr.w	r3, r3, r0, lsr #28
 8004e26:	0102      	lsls	r2, r0, #4
 8004e28:	f8d7 32fc 	ldr.w	r3, [r7, #764]	; 0x2fc
 8004e2c:	3318      	adds	r3, #24
 8004e2e:	4322      	orrs	r2, r4
 8004e30:	601a      	str	r2, [r3, #0]
 8004e32:	f8d7 32fc 	ldr.w	r3, [r7, #764]	; 0x2fc
 8004e36:	3318      	adds	r3, #24
 8004e38:	681a      	ldr	r2, [r3, #0]
 8004e3a:	f8d7 32fc 	ldr.w	r3, [r7, #764]	; 0x2fc
 8004e3e:	3318      	adds	r3, #24
 8004e40:	f022 427c 	bic.w	r2, r2, #4227858432	; 0xfc000000
 8004e44:	601a      	str	r2, [r3, #0]
 8004e46:	e9d7 01ca 	ldrd	r0, r1, [r7, #808]	; 0x328
 8004e4a:	f04f 0200 	mov.w	r2, #0
 8004e4e:	f04f 0300 	mov.w	r3, #0
 8004e52:	0d82      	lsrs	r2, r0, #22
 8004e54:	ea42 2281 	orr.w	r2, r2, r1, lsl #10
 8004e58:	158b      	asrs	r3, r1, #22
 8004e5a:	f8d7 12fc 	ldr.w	r1, [r7, #764]	; 0x2fc
 8004e5e:	311c      	adds	r1, #28
 8004e60:	4613      	mov	r3, r2
 8004e62:	600b      	str	r3, [r1, #0]
 8004e64:	f8d7 32fc 	ldr.w	r3, [r7, #764]	; 0x2fc
 8004e68:	331c      	adds	r3, #28
 8004e6a:	681c      	ldr	r4, [r3, #0]
 8004e6c:	e9d7 01cc 	ldrd	r0, r1, [r7, #816]	; 0x330
 8004e70:	f04f 0200 	mov.w	r2, #0
 8004e74:	f04f 0300 	mov.w	r3, #0
 8004e78:	028b      	lsls	r3, r1, #10
 8004e7a:	ea43 5390 	orr.w	r3, r3, r0, lsr #22
 8004e7e:	0282      	lsls	r2, r0, #10
 8004e80:	f8d7 32fc 	ldr.w	r3, [r7, #764]	; 0x2fc
 8004e84:	331c      	adds	r3, #28
 8004e86:	4322      	orrs	r2, r4
 8004e88:	601a      	str	r2, [r3, #0]
 8004e8a:	f8d7 32fc 	ldr.w	r3, [r7, #764]	; 0x2fc
 8004e8e:	331c      	adds	r3, #28
 8004e90:	681a      	ldr	r2, [r3, #0]
 8004e92:	f8d7 32fc 	ldr.w	r3, [r7, #764]	; 0x2fc
 8004e96:	331c      	adds	r3, #28
 8004e98:	f022 427c 	bic.w	r2, r2, #4227858432	; 0xfc000000
 8004e9c:	601a      	str	r2, [r3, #0]
 8004e9e:	e9d7 01cc 	ldrd	r0, r1, [r7, #816]	; 0x330
 8004ea2:	f04f 0200 	mov.w	r2, #0
 8004ea6:	f04f 0300 	mov.w	r3, #0
 8004eaa:	0c02      	lsrs	r2, r0, #16
 8004eac:	ea42 4201 	orr.w	r2, r2, r1, lsl #16
 8004eb0:	140b      	asrs	r3, r1, #16
 8004eb2:	f8d7 12fc 	ldr.w	r1, [r7, #764]	; 0x2fc
 8004eb6:	3120      	adds	r1, #32
 8004eb8:	4613      	mov	r3, r2
 8004eba:	600b      	str	r3, [r1, #0]
 8004ebc:	f8d7 32fc 	ldr.w	r3, [r7, #764]	; 0x2fc
 8004ec0:	3320      	adds	r3, #32
 8004ec2:	681c      	ldr	r4, [r3, #0]
 8004ec4:	e9d7 01ce 	ldrd	r0, r1, [r7, #824]	; 0x338
 8004ec8:	f04f 0200 	mov.w	r2, #0
 8004ecc:	f04f 0300 	mov.w	r3, #0
 8004ed0:	040b      	lsls	r3, r1, #16
 8004ed2:	ea43 4310 	orr.w	r3, r3, r0, lsr #16
 8004ed6:	0402      	lsls	r2, r0, #16
 8004ed8:	f8d7 32fc 	ldr.w	r3, [r7, #764]	; 0x2fc
 8004edc:	3320      	adds	r3, #32
 8004ede:	4322      	orrs	r2, r4
 8004ee0:	601a      	str	r2, [r3, #0]
 8004ee2:	f8d7 32fc 	ldr.w	r3, [r7, #764]	; 0x2fc
 8004ee6:	3320      	adds	r3, #32
 8004ee8:	681a      	ldr	r2, [r3, #0]
 8004eea:	f8d7 32fc 	ldr.w	r3, [r7, #764]	; 0x2fc
 8004eee:	3320      	adds	r3, #32
 8004ef0:	f022 427c 	bic.w	r2, r2, #4227858432	; 0xfc000000
 8004ef4:	601a      	str	r2, [r3, #0]
 8004ef6:	e9d7 01ce 	ldrd	r0, r1, [r7, #824]	; 0x338
 8004efa:	f04f 0200 	mov.w	r2, #0
 8004efe:	f04f 0300 	mov.w	r3, #0
 8004f02:	0a82      	lsrs	r2, r0, #10
 8004f04:	ea42 5281 	orr.w	r2, r2, r1, lsl #22
 8004f08:	128b      	asrs	r3, r1, #10
 8004f0a:	f8d7 12fc 	ldr.w	r1, [r7, #764]	; 0x2fc
 8004f0e:	3124      	adds	r1, #36	; 0x24
 8004f10:	4613      	mov	r3, r2
 8004f12:	600b      	str	r3, [r1, #0]
 8004f14:	f8d7 3388 	ldr.w	r3, [r7, #904]	; 0x388
 8004f18:	4618      	mov	r0, r3
 8004f1a:	f507 7765 	add.w	r7, r7, #916	; 0x394
 8004f1e:	46bd      	mov	sp, r7
 8004f20:	e8bd 0fb0 	ldmia.w	sp!, {r4, r5, r7, r8, r9, sl, fp}
 8004f24:	4770      	bx	lr
	...

08004f28 <sp_256_ecc_mulmod_10>:
 8004f28:	b590      	push	{r4, r7, lr}
 8004f2a:	f2ad 4d94 	subw	sp, sp, #1172	; 0x494
 8004f2e:	af00      	add	r7, sp, #0
 8004f30:	f107 040c 	add.w	r4, r7, #12
 8004f34:	6020      	str	r0, [r4, #0]
 8004f36:	f107 0008 	add.w	r0, r7, #8
 8004f3a:	6001      	str	r1, [r0, #0]
 8004f3c:	1d39      	adds	r1, r7, #4
 8004f3e:	600a      	str	r2, [r1, #0]
 8004f40:	463a      	mov	r2, r7
 8004f42:	6013      	str	r3, [r2, #0]
 8004f44:	2300      	movs	r3, #0
 8004f46:	f8c7 3480 	str.w	r3, [r7, #1152]	; 0x480
 8004f4a:	f8d7 3480 	ldr.w	r3, [r7, #1152]	; 0x480
 8004f4e:	2b00      	cmp	r3, #0
 8004f50:	d118      	bne.n	8004f84 <sp_256_ecc_mulmod_10+0x5c>
 8004f52:	f507 73d0 	add.w	r3, r7, #416	; 0x1a0
 8004f56:	f44f 7237 	mov.w	r2, #732	; 0x2dc
 8004f5a:	2100      	movs	r1, #0
 8004f5c:	4618      	mov	r0, r3
 8004f5e:	f7fb fcb0 	bl	80008c2 <memset>
 8004f62:	f507 73d0 	add.w	r3, r7, #416	; 0x1a0
 8004f66:	2201      	movs	r2, #1
 8004f68:	f8c3 20f0 	str.w	r2, [r3, #240]	; 0xf0
 8004f6c:	f107 0308 	add.w	r3, r7, #8
 8004f70:	6819      	ldr	r1, [r3, #0]
 8004f72:	f507 73d0 	add.w	r3, r7, #416	; 0x1a0
 8004f76:	33f4      	adds	r3, #244	; 0xf4
 8004f78:	4a7e      	ldr	r2, [pc, #504]	; (8005174 <sp_256_ecc_mulmod_10+0x24c>)
 8004f7a:	4618      	mov	r0, r3
 8004f7c:	f7fe ff2e 	bl	8003ddc <sp_256_mod_mul_norm_10>
 8004f80:	f8c7 0480 	str.w	r0, [r7, #1152]	; 0x480
 8004f84:	f8d7 3480 	ldr.w	r3, [r7, #1152]	; 0x480
 8004f88:	2b00      	cmp	r3, #0
 8004f8a:	d10e      	bne.n	8004faa <sp_256_ecc_mulmod_10+0x82>
 8004f8c:	f107 0308 	add.w	r3, r7, #8
 8004f90:	681b      	ldr	r3, [r3, #0]
 8004f92:	f103 0150 	add.w	r1, r3, #80	; 0x50
 8004f96:	f507 73d0 	add.w	r3, r7, #416	; 0x1a0
 8004f9a:	f503 73a2 	add.w	r3, r3, #324	; 0x144
 8004f9e:	4a75      	ldr	r2, [pc, #468]	; (8005174 <sp_256_ecc_mulmod_10+0x24c>)
 8004fa0:	4618      	mov	r0, r3
 8004fa2:	f7fe ff1b 	bl	8003ddc <sp_256_mod_mul_norm_10>
 8004fa6:	f8c7 0480 	str.w	r0, [r7, #1152]	; 0x480
 8004faa:	f8d7 3480 	ldr.w	r3, [r7, #1152]	; 0x480
 8004fae:	2b00      	cmp	r3, #0
 8004fb0:	d10e      	bne.n	8004fd0 <sp_256_ecc_mulmod_10+0xa8>
 8004fb2:	f107 0308 	add.w	r3, r7, #8
 8004fb6:	681b      	ldr	r3, [r3, #0]
 8004fb8:	f103 01a0 	add.w	r1, r3, #160	; 0xa0
 8004fbc:	f507 73d0 	add.w	r3, r7, #416	; 0x1a0
 8004fc0:	f503 73ca 	add.w	r3, r3, #404	; 0x194
 8004fc4:	4a6b      	ldr	r2, [pc, #428]	; (8005174 <sp_256_ecc_mulmod_10+0x24c>)
 8004fc6:	4618      	mov	r0, r3
 8004fc8:	f7fe ff08 	bl	8003ddc <sp_256_mod_mul_norm_10>
 8004fcc:	f8c7 0480 	str.w	r0, [r7, #1152]	; 0x480
 8004fd0:	f8d7 3480 	ldr.w	r3, [r7, #1152]	; 0x480
 8004fd4:	2b00      	cmp	r3, #0
 8004fd6:	f040 80b7 	bne.w	8005148 <sp_256_ecc_mulmod_10+0x220>
 8004fda:	2309      	movs	r3, #9
 8004fdc:	f8c7 3488 	str.w	r3, [r7, #1160]	; 0x488
 8004fe0:	2316      	movs	r3, #22
 8004fe2:	f8c7 3484 	str.w	r3, [r7, #1156]	; 0x484
 8004fe6:	f8d7 3488 	ldr.w	r3, [r7, #1160]	; 0x488
 8004fea:	1e5a      	subs	r2, r3, #1
 8004fec:	f8c7 2488 	str.w	r2, [r7, #1160]	; 0x488
 8004ff0:	009b      	lsls	r3, r3, #2
 8004ff2:	1d3a      	adds	r2, r7, #4
 8004ff4:	6812      	ldr	r2, [r2, #0]
 8004ff6:	4413      	add	r3, r2
 8004ff8:	681a      	ldr	r2, [r3, #0]
 8004ffa:	f8d7 3484 	ldr.w	r3, [r7, #1156]	; 0x484
 8004ffe:	f1c3 031a 	rsb	r3, r3, #26
 8005002:	fa02 f303 	lsl.w	r3, r2, r3
 8005006:	f8c7 348c 	str.w	r3, [r7, #1164]	; 0x48c
 800500a:	f8d7 3484 	ldr.w	r3, [r7, #1156]	; 0x484
 800500e:	2b00      	cmp	r3, #0
 8005010:	d113      	bne.n	800503a <sp_256_ecc_mulmod_10+0x112>
 8005012:	f8d7 3488 	ldr.w	r3, [r7, #1160]	; 0x488
 8005016:	f1b3 3fff 	cmp.w	r3, #4294967295	; 0xffffffff
 800501a:	d07e      	beq.n	800511a <sp_256_ecc_mulmod_10+0x1f2>
 800501c:	f8d7 3488 	ldr.w	r3, [r7, #1160]	; 0x488
 8005020:	1e5a      	subs	r2, r3, #1
 8005022:	f8c7 2488 	str.w	r2, [r7, #1160]	; 0x488
 8005026:	009b      	lsls	r3, r3, #2
 8005028:	1d3a      	adds	r2, r7, #4
 800502a:	6812      	ldr	r2, [r2, #0]
 800502c:	4413      	add	r3, r2
 800502e:	681b      	ldr	r3, [r3, #0]
 8005030:	f8c7 348c 	str.w	r3, [r7, #1164]	; 0x48c
 8005034:	231a      	movs	r3, #26
 8005036:	f8c7 3484 	str.w	r3, [r7, #1156]	; 0x484
 800503a:	f8d7 348c 	ldr.w	r3, [r7, #1164]	; 0x48c
 800503e:	165b      	asrs	r3, r3, #25
 8005040:	f003 0301 	and.w	r3, r3, #1
 8005044:	f8c7 347c 	str.w	r3, [r7, #1148]	; 0x47c
 8005048:	f8d7 348c 	ldr.w	r3, [r7, #1164]	; 0x48c
 800504c:	005b      	lsls	r3, r3, #1
 800504e:	f8c7 348c 	str.w	r3, [r7, #1164]	; 0x48c
 8005052:	f8d7 347c 	ldr.w	r3, [r7, #1148]	; 0x47c
 8005056:	f083 0301 	eor.w	r3, r3, #1
 800505a:	f507 72d0 	add.w	r2, r7, #416	; 0x1a0
 800505e:	21f4      	movs	r1, #244	; 0xf4
 8005060:	fb01 f303 	mul.w	r3, r1, r3
 8005064:	18d0      	adds	r0, r2, r3
 8005066:	f107 0410 	add.w	r4, r7, #16
 800506a:	f507 73d0 	add.w	r3, r7, #416	; 0x1a0
 800506e:	f103 02f4 	add.w	r2, r3, #244	; 0xf4
 8005072:	f507 71d0 	add.w	r1, r7, #416	; 0x1a0
 8005076:	4623      	mov	r3, r4
 8005078:	f7fe fd10 	bl	8003a9c <sp_256_proj_point_add_10>
 800507c:	f507 72d0 	add.w	r2, r7, #416	; 0x1a0
 8005080:	f8d7 347c 	ldr.w	r3, [r7, #1148]	; 0x47c
 8005084:	f083 0301 	eor.w	r3, r3, #1
 8005088:	493b      	ldr	r1, [pc, #236]	; (8005178 <sp_256_ecc_mulmod_10+0x250>)
 800508a:	f851 3023 	ldr.w	r3, [r1, r3, lsl #2]
 800508e:	401a      	ands	r2, r3
 8005090:	f507 73d0 	add.w	r3, r7, #416	; 0x1a0
 8005094:	f103 01f4 	add.w	r1, r3, #244	; 0xf4
 8005098:	4837      	ldr	r0, [pc, #220]	; (8005178 <sp_256_ecc_mulmod_10+0x250>)
 800509a:	f8d7 347c 	ldr.w	r3, [r7, #1148]	; 0x47c
 800509e:	f850 3023 	ldr.w	r3, [r0, r3, lsl #2]
 80050a2:	400b      	ands	r3, r1
 80050a4:	4413      	add	r3, r2
 80050a6:	4619      	mov	r1, r3
 80050a8:	f507 73d0 	add.w	r3, r7, #416	; 0x1a0
 80050ac:	f503 73f4 	add.w	r3, r3, #488	; 0x1e8
 80050b0:	22f4      	movs	r2, #244	; 0xf4
 80050b2:	4618      	mov	r0, r3
 80050b4:	f7fb fc35 	bl	8000922 <memcpy>
 80050b8:	f107 0210 	add.w	r2, r7, #16
 80050bc:	f507 73d0 	add.w	r3, r7, #416	; 0x1a0
 80050c0:	f503 71f4 	add.w	r1, r3, #488	; 0x1e8
 80050c4:	f507 73d0 	add.w	r3, r7, #416	; 0x1a0
 80050c8:	f503 73f4 	add.w	r3, r3, #488	; 0x1e8
 80050cc:	4618      	mov	r0, r3
 80050ce:	f7fe fbed 	bl	80038ac <sp_256_proj_point_dbl_10>
 80050d2:	f507 72d0 	add.w	r2, r7, #416	; 0x1a0
 80050d6:	f8d7 347c 	ldr.w	r3, [r7, #1148]	; 0x47c
 80050da:	f083 0301 	eor.w	r3, r3, #1
 80050de:	4926      	ldr	r1, [pc, #152]	; (8005178 <sp_256_ecc_mulmod_10+0x250>)
 80050e0:	f851 3023 	ldr.w	r3, [r1, r3, lsl #2]
 80050e4:	401a      	ands	r2, r3
 80050e6:	f507 73d0 	add.w	r3, r7, #416	; 0x1a0
 80050ea:	f103 01f4 	add.w	r1, r3, #244	; 0xf4
 80050ee:	4822      	ldr	r0, [pc, #136]	; (8005178 <sp_256_ecc_mulmod_10+0x250>)
 80050f0:	f8d7 347c 	ldr.w	r3, [r7, #1148]	; 0x47c
 80050f4:	f850 3023 	ldr.w	r3, [r0, r3, lsl #2]
 80050f8:	400b      	ands	r3, r1
 80050fa:	4413      	add	r3, r2
 80050fc:	4618      	mov	r0, r3
 80050fe:	f507 73d0 	add.w	r3, r7, #416	; 0x1a0
 8005102:	f503 73f4 	add.w	r3, r3, #488	; 0x1e8
 8005106:	22f4      	movs	r2, #244	; 0xf4
 8005108:	4619      	mov	r1, r3
 800510a:	f7fb fc0a 	bl	8000922 <memcpy>
 800510e:	f8d7 3484 	ldr.w	r3, [r7, #1156]	; 0x484
 8005112:	3b01      	subs	r3, #1
 8005114:	f8c7 3484 	str.w	r3, [r7, #1156]	; 0x484
 8005118:	e777      	b.n	800500a <sp_256_ecc_mulmod_10+0xe2>
 800511a:	bf00      	nop
 800511c:	463b      	mov	r3, r7
 800511e:	681b      	ldr	r3, [r3, #0]
 8005120:	2b00      	cmp	r3, #0
 8005122:	d009      	beq.n	8005138 <sp_256_ecc_mulmod_10+0x210>
 8005124:	f107 0210 	add.w	r2, r7, #16
 8005128:	f507 71d0 	add.w	r1, r7, #416	; 0x1a0
 800512c:	f107 030c 	add.w	r3, r7, #12
 8005130:	6818      	ldr	r0, [r3, #0]
 8005132:	f7fe fa13 	bl	800355c <sp_256_map_10>
 8005136:	e007      	b.n	8005148 <sp_256_ecc_mulmod_10+0x220>
 8005138:	f507 71d0 	add.w	r1, r7, #416	; 0x1a0
 800513c:	f107 030c 	add.w	r3, r7, #12
 8005140:	22f4      	movs	r2, #244	; 0xf4
 8005142:	6818      	ldr	r0, [r3, #0]
 8005144:	f7fb fbed 	bl	8000922 <memcpy>
 8005148:	f107 0310 	add.w	r3, r7, #16
 800514c:	f44f 71c8 	mov.w	r1, #400	; 0x190
 8005150:	4618      	mov	r0, r3
 8005152:	f7fd fbfa 	bl	800294a <ForceZero>
 8005156:	f507 73d0 	add.w	r3, r7, #416	; 0x1a0
 800515a:	f44f 7137 	mov.w	r1, #732	; 0x2dc
 800515e:	4618      	mov	r0, r3
 8005160:	f7fd fbf3 	bl	800294a <ForceZero>
 8005164:	f8d7 3480 	ldr.w	r3, [r7, #1152]	; 0x480
 8005168:	4618      	mov	r0, r3
 800516a:	f207 4794 	addw	r7, r7, #1172	; 0x494
 800516e:	46bd      	mov	sp, r7
 8005170:	bd90      	pop	{r4, r7, pc}
 8005172:	bf00      	nop
 8005174:	08006bb4 	.word	0x08006bb4
 8005178:	08006bac 	.word	0x08006bac

0800517c <sp_256_ecc_mulmod_base_10>:
 800517c:	b580      	push	{r7, lr}
 800517e:	b086      	sub	sp, #24
 8005180:	af02      	add	r7, sp, #8
 8005182:	60f8      	str	r0, [r7, #12]
 8005184:	60b9      	str	r1, [r7, #8]
 8005186:	607a      	str	r2, [r7, #4]
 8005188:	603b      	str	r3, [r7, #0]
 800518a:	69bb      	ldr	r3, [r7, #24]
 800518c:	9301      	str	r3, [sp, #4]
 800518e:	683b      	ldr	r3, [r7, #0]
 8005190:	9300      	str	r3, [sp, #0]
 8005192:	687b      	ldr	r3, [r7, #4]
 8005194:	68ba      	ldr	r2, [r7, #8]
 8005196:	4904      	ldr	r1, [pc, #16]	; (80051a8 <sp_256_ecc_mulmod_base_10+0x2c>)
 8005198:	68f8      	ldr	r0, [r7, #12]
 800519a:	f7ff fec5 	bl	8004f28 <sp_256_ecc_mulmod_10>
 800519e:	4603      	mov	r3, r0
 80051a0:	4618      	mov	r0, r3
 80051a2:	3710      	adds	r7, #16
 80051a4:	46bd      	mov	sp, r7
 80051a6:	bd80      	pop	{r7, pc}
 80051a8:	08006c54 	.word	0x08006c54

080051ac <sp_ecc_mulmod_base_256>:
 80051ac:	b590      	push	{r4, r7, lr}
 80051ae:	b0cf      	sub	sp, #316	; 0x13c
 80051b0:	af02      	add	r7, sp, #8
 80051b2:	f107 040c 	add.w	r4, r7, #12
 80051b6:	6020      	str	r0, [r4, #0]
 80051b8:	f107 0008 	add.w	r0, r7, #8
 80051bc:	6001      	str	r1, [r0, #0]
 80051be:	1d39      	adds	r1, r7, #4
 80051c0:	600a      	str	r2, [r1, #0]
 80051c2:	463a      	mov	r2, r7
 80051c4:	6013      	str	r3, [r2, #0]
 80051c6:	2300      	movs	r3, #0
 80051c8:	f8c7 312c 	str.w	r3, [r7, #300]	; 0x12c
 80051cc:	f8d7 312c 	ldr.w	r3, [r7, #300]	; 0x12c
 80051d0:	2b00      	cmp	r3, #0
 80051d2:	d115      	bne.n	8005200 <sp_ecc_mulmod_base_256+0x54>
 80051d4:	f107 030c 	add.w	r3, r7, #12
 80051d8:	f107 0010 	add.w	r0, r7, #16
 80051dc:	681a      	ldr	r2, [r3, #0]
 80051de:	210a      	movs	r1, #10
 80051e0:	f7fd fdea 	bl	8002db8 <sp_256_from_mp>
 80051e4:	1d3a      	adds	r2, r7, #4
 80051e6:	f107 0110 	add.w	r1, r7, #16
 80051ea:	f107 0038 	add.w	r0, r7, #56	; 0x38
 80051ee:	463b      	mov	r3, r7
 80051f0:	681b      	ldr	r3, [r3, #0]
 80051f2:	9300      	str	r3, [sp, #0]
 80051f4:	2301      	movs	r3, #1
 80051f6:	6812      	ldr	r2, [r2, #0]
 80051f8:	f7ff ffc0 	bl	800517c <sp_256_ecc_mulmod_base_10>
 80051fc:	f8c7 012c 	str.w	r0, [r7, #300]	; 0x12c
 8005200:	f8d7 312c 	ldr.w	r3, [r7, #300]	; 0x12c
 8005204:	2b00      	cmp	r3, #0
 8005206:	d109      	bne.n	800521c <sp_ecc_mulmod_base_256+0x70>
 8005208:	f107 0308 	add.w	r3, r7, #8
 800520c:	f107 0238 	add.w	r2, r7, #56	; 0x38
 8005210:	6819      	ldr	r1, [r3, #0]
 8005212:	4610      	mov	r0, r2
 8005214:	f7fd feeb 	bl	8002fee <sp_256_point_to_ecc_point_10>
 8005218:	f8c7 012c 	str.w	r0, [r7, #300]	; 0x12c
 800521c:	f8d7 312c 	ldr.w	r3, [r7, #300]	; 0x12c
 8005220:	4618      	mov	r0, r3
 8005222:	f507 779a 	add.w	r7, r7, #308	; 0x134
 8005226:	46bd      	mov	sp, r7
 8005228:	bd90      	pop	{r4, r7, pc}

0800522a <sp_256_iszero_10>:
 800522a:	b480      	push	{r7}
 800522c:	b083      	sub	sp, #12
 800522e:	af00      	add	r7, sp, #0
 8005230:	6078      	str	r0, [r7, #4]
 8005232:	687b      	ldr	r3, [r7, #4]
 8005234:	681a      	ldr	r2, [r3, #0]
 8005236:	687b      	ldr	r3, [r7, #4]
 8005238:	3304      	adds	r3, #4
 800523a:	681b      	ldr	r3, [r3, #0]
 800523c:	431a      	orrs	r2, r3
 800523e:	687b      	ldr	r3, [r7, #4]
 8005240:	3308      	adds	r3, #8
 8005242:	681b      	ldr	r3, [r3, #0]
 8005244:	431a      	orrs	r2, r3
 8005246:	687b      	ldr	r3, [r7, #4]
 8005248:	330c      	adds	r3, #12
 800524a:	681b      	ldr	r3, [r3, #0]
 800524c:	431a      	orrs	r2, r3
 800524e:	687b      	ldr	r3, [r7, #4]
 8005250:	3310      	adds	r3, #16
 8005252:	681b      	ldr	r3, [r3, #0]
 8005254:	431a      	orrs	r2, r3
 8005256:	687b      	ldr	r3, [r7, #4]
 8005258:	3314      	adds	r3, #20
 800525a:	681b      	ldr	r3, [r3, #0]
 800525c:	431a      	orrs	r2, r3
 800525e:	687b      	ldr	r3, [r7, #4]
 8005260:	3318      	adds	r3, #24
 8005262:	681b      	ldr	r3, [r3, #0]
 8005264:	431a      	orrs	r2, r3
 8005266:	687b      	ldr	r3, [r7, #4]
 8005268:	331c      	adds	r3, #28
 800526a:	681b      	ldr	r3, [r3, #0]
 800526c:	431a      	orrs	r2, r3
 800526e:	687b      	ldr	r3, [r7, #4]
 8005270:	3320      	adds	r3, #32
 8005272:	681b      	ldr	r3, [r3, #0]
 8005274:	431a      	orrs	r2, r3
 8005276:	687b      	ldr	r3, [r7, #4]
 8005278:	3324      	adds	r3, #36	; 0x24
 800527a:	681b      	ldr	r3, [r3, #0]
 800527c:	4313      	orrs	r3, r2
 800527e:	2b00      	cmp	r3, #0
 8005280:	bf0c      	ite	eq
 8005282:	2301      	moveq	r3, #1
 8005284:	2300      	movne	r3, #0
 8005286:	b2db      	uxtb	r3, r3
 8005288:	4618      	mov	r0, r3
 800528a:	370c      	adds	r7, #12
 800528c:	46bd      	mov	sp, r7
 800528e:	bc80      	pop	{r7}
 8005290:	4770      	bx	lr

08005292 <sp_256_from_bin>:
 8005292:	b480      	push	{r7}
 8005294:	b089      	sub	sp, #36	; 0x24
 8005296:	af00      	add	r7, sp, #0
 8005298:	60f8      	str	r0, [r7, #12]
 800529a:	60b9      	str	r1, [r7, #8]
 800529c:	607a      	str	r2, [r7, #4]
 800529e:	603b      	str	r3, [r7, #0]
 80052a0:	2300      	movs	r3, #0
 80052a2:	61bb      	str	r3, [r7, #24]
 80052a4:	2300      	movs	r3, #0
 80052a6:	617b      	str	r3, [r7, #20]
 80052a8:	68fb      	ldr	r3, [r7, #12]
 80052aa:	2200      	movs	r2, #0
 80052ac:	601a      	str	r2, [r3, #0]
 80052ae:	683b      	ldr	r3, [r7, #0]
 80052b0:	3b01      	subs	r3, #1
 80052b2:	61fb      	str	r3, [r7, #28]
 80052b4:	e044      	b.n	8005340 <sp_256_from_bin+0xae>
 80052b6:	69bb      	ldr	r3, [r7, #24]
 80052b8:	009b      	lsls	r3, r3, #2
 80052ba:	68fa      	ldr	r2, [r7, #12]
 80052bc:	4413      	add	r3, r2
 80052be:	6819      	ldr	r1, [r3, #0]
 80052c0:	69fb      	ldr	r3, [r7, #28]
 80052c2:	687a      	ldr	r2, [r7, #4]
 80052c4:	4413      	add	r3, r2
 80052c6:	781b      	ldrb	r3, [r3, #0]
 80052c8:	461a      	mov	r2, r3
 80052ca:	697b      	ldr	r3, [r7, #20]
 80052cc:	409a      	lsls	r2, r3
 80052ce:	69bb      	ldr	r3, [r7, #24]
 80052d0:	009b      	lsls	r3, r3, #2
 80052d2:	68f8      	ldr	r0, [r7, #12]
 80052d4:	4403      	add	r3, r0
 80052d6:	430a      	orrs	r2, r1
 80052d8:	601a      	str	r2, [r3, #0]
 80052da:	697b      	ldr	r3, [r7, #20]
 80052dc:	2b11      	cmp	r3, #17
 80052de:	d929      	bls.n	8005334 <sp_256_from_bin+0xa2>
 80052e0:	69bb      	ldr	r3, [r7, #24]
 80052e2:	009b      	lsls	r3, r3, #2
 80052e4:	68fa      	ldr	r2, [r7, #12]
 80052e6:	4413      	add	r3, r2
 80052e8:	681a      	ldr	r2, [r3, #0]
 80052ea:	69bb      	ldr	r3, [r7, #24]
 80052ec:	009b      	lsls	r3, r3, #2
 80052ee:	68f9      	ldr	r1, [r7, #12]
 80052f0:	440b      	add	r3, r1
 80052f2:	f022 427c 	bic.w	r2, r2, #4227858432	; 0xfc000000
 80052f6:	601a      	str	r2, [r3, #0]
 80052f8:	697b      	ldr	r3, [r7, #20]
 80052fa:	f1c3 031a 	rsb	r3, r3, #26
 80052fe:	617b      	str	r3, [r7, #20]
 8005300:	69bb      	ldr	r3, [r7, #24]
 8005302:	3301      	adds	r3, #1
 8005304:	68ba      	ldr	r2, [r7, #8]
 8005306:	429a      	cmp	r2, r3
 8005308:	dd1e      	ble.n	8005348 <sp_256_from_bin+0xb6>
 800530a:	69fb      	ldr	r3, [r7, #28]
 800530c:	687a      	ldr	r2, [r7, #4]
 800530e:	4413      	add	r3, r2
 8005310:	781b      	ldrb	r3, [r3, #0]
 8005312:	4619      	mov	r1, r3
 8005314:	69bb      	ldr	r3, [r7, #24]
 8005316:	3301      	adds	r3, #1
 8005318:	61bb      	str	r3, [r7, #24]
 800531a:	69bb      	ldr	r3, [r7, #24]
 800531c:	009b      	lsls	r3, r3, #2
 800531e:	68fa      	ldr	r2, [r7, #12]
 8005320:	4413      	add	r3, r2
 8005322:	697a      	ldr	r2, [r7, #20]
 8005324:	fa41 f202 	asr.w	r2, r1, r2
 8005328:	601a      	str	r2, [r3, #0]
 800532a:	697b      	ldr	r3, [r7, #20]
 800532c:	f1c3 0308 	rsb	r3, r3, #8
 8005330:	617b      	str	r3, [r7, #20]
 8005332:	e002      	b.n	800533a <sp_256_from_bin+0xa8>
 8005334:	697b      	ldr	r3, [r7, #20]
 8005336:	3308      	adds	r3, #8
 8005338:	617b      	str	r3, [r7, #20]
 800533a:	69fb      	ldr	r3, [r7, #28]
 800533c:	3b01      	subs	r3, #1
 800533e:	61fb      	str	r3, [r7, #28]
 8005340:	69fb      	ldr	r3, [r7, #28]
 8005342:	2b00      	cmp	r3, #0
 8005344:	dab7      	bge.n	80052b6 <sp_256_from_bin+0x24>
 8005346:	e000      	b.n	800534a <sp_256_from_bin+0xb8>
 8005348:	bf00      	nop
 800534a:	69bb      	ldr	r3, [r7, #24]
 800534c:	3301      	adds	r3, #1
 800534e:	61bb      	str	r3, [r7, #24]
 8005350:	e008      	b.n	8005364 <sp_256_from_bin+0xd2>
 8005352:	69bb      	ldr	r3, [r7, #24]
 8005354:	009b      	lsls	r3, r3, #2
 8005356:	68fa      	ldr	r2, [r7, #12]
 8005358:	4413      	add	r3, r2
 800535a:	2200      	movs	r2, #0
 800535c:	601a      	str	r2, [r3, #0]
 800535e:	69bb      	ldr	r3, [r7, #24]
 8005360:	3301      	adds	r3, #1
 8005362:	61bb      	str	r3, [r7, #24]
 8005364:	69ba      	ldr	r2, [r7, #24]
 8005366:	68bb      	ldr	r3, [r7, #8]
 8005368:	429a      	cmp	r2, r3
 800536a:	dbf2      	blt.n	8005352 <sp_256_from_bin+0xc0>
 800536c:	bf00      	nop
 800536e:	bf00      	nop
 8005370:	3724      	adds	r7, #36	; 0x24
 8005372:	46bd      	mov	sp, r7
 8005374:	bc80      	pop	{r7}
 8005376:	4770      	bx	lr

08005378 <sp_256_mul_d_10>:
 8005378:	b4b0      	push	{r4, r5, r7}
 800537a:	b08b      	sub	sp, #44	; 0x2c
 800537c:	af00      	add	r7, sp, #0
 800537e:	60f8      	str	r0, [r7, #12]
 8005380:	60b9      	str	r1, [r7, #8]
 8005382:	607a      	str	r2, [r7, #4]
 8005384:	687b      	ldr	r3, [r7, #4]
 8005386:	461a      	mov	r2, r3
 8005388:	ea4f 73e2 	mov.w	r3, r2, asr #31
 800538c:	e9c7 2304 	strd	r2, r3, [r7, #16]
 8005390:	f04f 0200 	mov.w	r2, #0
 8005394:	f04f 0300 	mov.w	r3, #0
 8005398:	e9c7 2308 	strd	r2, r3, [r7, #32]
 800539c:	2300      	movs	r3, #0
 800539e:	61fb      	str	r3, [r7, #28]
 80053a0:	e031      	b.n	8005406 <sp_256_mul_d_10+0x8e>
 80053a2:	69fb      	ldr	r3, [r7, #28]
 80053a4:	009b      	lsls	r3, r3, #2
 80053a6:	68ba      	ldr	r2, [r7, #8]
 80053a8:	4413      	add	r3, r2
 80053aa:	681b      	ldr	r3, [r3, #0]
 80053ac:	461a      	mov	r2, r3
 80053ae:	ea4f 73e2 	mov.w	r3, r2, asr #31
 80053b2:	6939      	ldr	r1, [r7, #16]
 80053b4:	fb03 f001 	mul.w	r0, r3, r1
 80053b8:	6979      	ldr	r1, [r7, #20]
 80053ba:	fb02 f101 	mul.w	r1, r2, r1
 80053be:	4401      	add	r1, r0
 80053c0:	6938      	ldr	r0, [r7, #16]
 80053c2:	fba0 2302 	umull	r2, r3, r0, r2
 80053c6:	4419      	add	r1, r3
 80053c8:	460b      	mov	r3, r1
 80053ca:	e9d7 0108 	ldrd	r0, r1, [r7, #32]
 80053ce:	1884      	adds	r4, r0, r2
 80053d0:	eb41 0503 	adc.w	r5, r1, r3
 80053d4:	e9c7 4508 	strd	r4, r5, [r7, #32]
 80053d8:	6a3a      	ldr	r2, [r7, #32]
 80053da:	69fb      	ldr	r3, [r7, #28]
 80053dc:	009b      	lsls	r3, r3, #2
 80053de:	68f9      	ldr	r1, [r7, #12]
 80053e0:	440b      	add	r3, r1
 80053e2:	f022 427c 	bic.w	r2, r2, #4227858432	; 0xfc000000
 80053e6:	601a      	str	r2, [r3, #0]
 80053e8:	e9d7 0108 	ldrd	r0, r1, [r7, #32]
 80053ec:	f04f 0200 	mov.w	r2, #0
 80053f0:	f04f 0300 	mov.w	r3, #0
 80053f4:	0e82      	lsrs	r2, r0, #26
 80053f6:	ea42 1281 	orr.w	r2, r2, r1, lsl #6
 80053fa:	168b      	asrs	r3, r1, #26
 80053fc:	e9c7 2308 	strd	r2, r3, [r7, #32]
 8005400:	69fb      	ldr	r3, [r7, #28]
 8005402:	3301      	adds	r3, #1
 8005404:	61fb      	str	r3, [r7, #28]
 8005406:	69fb      	ldr	r3, [r7, #28]
 8005408:	2b09      	cmp	r3, #9
 800540a:	ddca      	ble.n	80053a2 <sp_256_mul_d_10+0x2a>
 800540c:	68fb      	ldr	r3, [r7, #12]
 800540e:	3328      	adds	r3, #40	; 0x28
 8005410:	6a3a      	ldr	r2, [r7, #32]
 8005412:	601a      	str	r2, [r3, #0]
 8005414:	bf00      	nop
 8005416:	372c      	adds	r7, #44	; 0x2c
 8005418:	46bd      	mov	sp, r7
 800541a:	bcb0      	pop	{r4, r5, r7}
 800541c:	4770      	bx	lr

0800541e <sp_256_div_10>:
 800541e:	b5b0      	push	{r4, r5, r7, lr}
 8005420:	b0ac      	sub	sp, #176	; 0xb0
 8005422:	af00      	add	r7, sp, #0
 8005424:	60f8      	str	r0, [r7, #12]
 8005426:	60b9      	str	r1, [r7, #8]
 8005428:	607a      	str	r2, [r7, #4]
 800542a:	603b      	str	r3, [r7, #0]
 800542c:	2300      	movs	r3, #0
 800542e:	f8c7 30a8 	str.w	r3, [r7, #168]	; 0xa8
 8005432:	2300      	movs	r3, #0
 8005434:	f8c7 30a4 	str.w	r3, [r7, #164]	; 0xa4
 8005438:	f8d7 30a4 	ldr.w	r3, [r7, #164]	; 0xa4
 800543c:	2b00      	cmp	r3, #0
 800543e:	f040 81be 	bne.w	80057be <sp_256_div_10+0x3a0>
 8005442:	f107 0314 	add.w	r3, r7, #20
 8005446:	3350      	adds	r3, #80	; 0x50
 8005448:	f8c7 30a8 	str.w	r3, [r7, #168]	; 0xa8
 800544c:	68bb      	ldr	r3, [r7, #8]
 800544e:	6a5b      	ldr	r3, [r3, #36]	; 0x24
 8005450:	f8c7 30a0 	str.w	r3, [r7, #160]	; 0xa0
 8005454:	f107 0314 	add.w	r3, r7, #20
 8005458:	2250      	movs	r2, #80	; 0x50
 800545a:	68f9      	ldr	r1, [r7, #12]
 800545c:	4618      	mov	r0, r3
 800545e:	f7fb fa60 	bl	8000922 <memcpy>
 8005462:	2309      	movs	r3, #9
 8005464:	f8c7 30ac 	str.w	r3, [r7, #172]	; 0xac
 8005468:	e142      	b.n	80056f0 <sp_256_div_10+0x2d2>
 800546a:	f8d7 30ac 	ldr.w	r3, [r7, #172]	; 0xac
 800546e:	330a      	adds	r3, #10
 8005470:	009b      	lsls	r3, r3, #2
 8005472:	f107 02b0 	add.w	r2, r7, #176	; 0xb0
 8005476:	4413      	add	r3, r2
 8005478:	f853 1c9c 	ldr.w	r1, [r3, #-156]
 800547c:	f8d7 30ac 	ldr.w	r3, [r7, #172]	; 0xac
 8005480:	3309      	adds	r3, #9
 8005482:	009b      	lsls	r3, r3, #2
 8005484:	f107 02b0 	add.w	r2, r7, #176	; 0xb0
 8005488:	4413      	add	r3, r2
 800548a:	f853 3c9c 	ldr.w	r3, [r3, #-156]
 800548e:	169a      	asrs	r2, r3, #26
 8005490:	f8d7 30ac 	ldr.w	r3, [r7, #172]	; 0xac
 8005494:	330a      	adds	r3, #10
 8005496:	440a      	add	r2, r1
 8005498:	009b      	lsls	r3, r3, #2
 800549a:	f107 01b0 	add.w	r1, r7, #176	; 0xb0
 800549e:	440b      	add	r3, r1
 80054a0:	f843 2c9c 	str.w	r2, [r3, #-156]
 80054a4:	f8d7 30ac 	ldr.w	r3, [r7, #172]	; 0xac
 80054a8:	3309      	adds	r3, #9
 80054aa:	009b      	lsls	r3, r3, #2
 80054ac:	f107 02b0 	add.w	r2, r7, #176	; 0xb0
 80054b0:	4413      	add	r3, r2
 80054b2:	f853 2c9c 	ldr.w	r2, [r3, #-156]
 80054b6:	f8d7 30ac 	ldr.w	r3, [r7, #172]	; 0xac
 80054ba:	3309      	adds	r3, #9
 80054bc:	f022 427c 	bic.w	r2, r2, #4227858432	; 0xfc000000
 80054c0:	009b      	lsls	r3, r3, #2
 80054c2:	f107 01b0 	add.w	r1, r7, #176	; 0xb0
 80054c6:	440b      	add	r3, r1
 80054c8:	f843 2c9c 	str.w	r2, [r3, #-156]
 80054cc:	f8d7 30ac 	ldr.w	r3, [r7, #172]	; 0xac
 80054d0:	330a      	adds	r3, #10
 80054d2:	009b      	lsls	r3, r3, #2
 80054d4:	f107 02b0 	add.w	r2, r7, #176	; 0xb0
 80054d8:	4413      	add	r3, r2
 80054da:	f853 3c9c 	ldr.w	r3, [r3, #-156]
 80054de:	461a      	mov	r2, r3
 80054e0:	ea4f 73e2 	mov.w	r3, r2, asr #31
 80054e4:	e9c7 2324 	strd	r2, r3, [r7, #144]	; 0x90
 80054e8:	e9d7 0124 	ldrd	r0, r1, [r7, #144]	; 0x90
 80054ec:	f04f 0200 	mov.w	r2, #0
 80054f0:	f04f 0300 	mov.w	r3, #0
 80054f4:	068b      	lsls	r3, r1, #26
 80054f6:	ea43 1390 	orr.w	r3, r3, r0, lsr #6
 80054fa:	0682      	lsls	r2, r0, #26
 80054fc:	e9c7 2324 	strd	r2, r3, [r7, #144]	; 0x90
 8005500:	f8d7 30ac 	ldr.w	r3, [r7, #172]	; 0xac
 8005504:	3309      	adds	r3, #9
 8005506:	009b      	lsls	r3, r3, #2
 8005508:	f107 02b0 	add.w	r2, r7, #176	; 0xb0
 800550c:	4413      	add	r3, r2
 800550e:	f853 3c9c 	ldr.w	r3, [r3, #-156]
 8005512:	461a      	mov	r2, r3
 8005514:	ea4f 73e2 	mov.w	r3, r2, asr #31
 8005518:	e9d7 0124 	ldrd	r0, r1, [r7, #144]	; 0x90
 800551c:	1884      	adds	r4, r0, r2
 800551e:	eb41 0503 	adc.w	r5, r1, r3
 8005522:	e9c7 4524 	strd	r4, r5, [r7, #144]	; 0x90
 8005526:	f8d7 30a0 	ldr.w	r3, [r7, #160]	; 0xa0
 800552a:	461a      	mov	r2, r3
 800552c:	ea4f 73e2 	mov.w	r3, r2, asr #31
 8005530:	e9d7 0124 	ldrd	r0, r1, [r7, #144]	; 0x90
 8005534:	f001 f8e0 	bl	80066f8 <__aeabi_ldivmod>
 8005538:	4602      	mov	r2, r0
 800553a:	460b      	mov	r3, r1
 800553c:	4613      	mov	r3, r2
 800553e:	f8c7 309c 	str.w	r3, [r7, #156]	; 0x9c
 8005542:	f8d7 209c 	ldr.w	r2, [r7, #156]	; 0x9c
 8005546:	68b9      	ldr	r1, [r7, #8]
 8005548:	f8d7 00a8 	ldr.w	r0, [r7, #168]	; 0xa8
 800554c:	f7ff ff14 	bl	8005378 <sp_256_mul_d_10>
 8005550:	f107 0214 	add.w	r2, r7, #20
 8005554:	f8d7 30ac 	ldr.w	r3, [r7, #172]	; 0xac
 8005558:	009b      	lsls	r3, r3, #2
 800555a:	18d0      	adds	r0, r2, r3
 800555c:	f107 0214 	add.w	r2, r7, #20
 8005560:	f8d7 30ac 	ldr.w	r3, [r7, #172]	; 0xac
 8005564:	009b      	lsls	r3, r3, #2
 8005566:	4413      	add	r3, r2
 8005568:	f8d7 20a8 	ldr.w	r2, [r7, #168]	; 0xa8
 800556c:	4619      	mov	r1, r3
 800556e:	f7fd fbfe 	bl	8002d6e <sp_256_sub_10>
 8005572:	f107 0214 	add.w	r2, r7, #20
 8005576:	f8d7 30ac 	ldr.w	r3, [r7, #172]	; 0xac
 800557a:	009b      	lsls	r3, r3, #2
 800557c:	4413      	add	r3, r2
 800557e:	4618      	mov	r0, r3
 8005580:	f7fd fe19 	bl	80031b6 <sp_256_norm_10>
 8005584:	f8d7 30ac 	ldr.w	r3, [r7, #172]	; 0xac
 8005588:	330a      	adds	r3, #10
 800558a:	009b      	lsls	r3, r3, #2
 800558c:	f107 02b0 	add.w	r2, r7, #176	; 0xb0
 8005590:	4413      	add	r3, r2
 8005592:	f853 1c9c 	ldr.w	r1, [r3, #-156]
 8005596:	f8d7 30a8 	ldr.w	r3, [r7, #168]	; 0xa8
 800559a:	3328      	adds	r3, #40	; 0x28
 800559c:	681a      	ldr	r2, [r3, #0]
 800559e:	f8d7 30ac 	ldr.w	r3, [r7, #172]	; 0xac
 80055a2:	330a      	adds	r3, #10
 80055a4:	1a8a      	subs	r2, r1, r2
 80055a6:	009b      	lsls	r3, r3, #2
 80055a8:	f107 01b0 	add.w	r1, r7, #176	; 0xb0
 80055ac:	440b      	add	r3, r1
 80055ae:	f843 2c9c 	str.w	r2, [r3, #-156]
 80055b2:	f8d7 30ac 	ldr.w	r3, [r7, #172]	; 0xac
 80055b6:	330a      	adds	r3, #10
 80055b8:	009b      	lsls	r3, r3, #2
 80055ba:	f107 02b0 	add.w	r2, r7, #176	; 0xb0
 80055be:	4413      	add	r3, r2
 80055c0:	f853 1c9c 	ldr.w	r1, [r3, #-156]
 80055c4:	f8d7 30ac 	ldr.w	r3, [r7, #172]	; 0xac
 80055c8:	3309      	adds	r3, #9
 80055ca:	009b      	lsls	r3, r3, #2
 80055cc:	f107 02b0 	add.w	r2, r7, #176	; 0xb0
 80055d0:	4413      	add	r3, r2
 80055d2:	f853 3c9c 	ldr.w	r3, [r3, #-156]
 80055d6:	169a      	asrs	r2, r3, #26
 80055d8:	f8d7 30ac 	ldr.w	r3, [r7, #172]	; 0xac
 80055dc:	330a      	adds	r3, #10
 80055de:	440a      	add	r2, r1
 80055e0:	009b      	lsls	r3, r3, #2
 80055e2:	f107 01b0 	add.w	r1, r7, #176	; 0xb0
 80055e6:	440b      	add	r3, r1
 80055e8:	f843 2c9c 	str.w	r2, [r3, #-156]
 80055ec:	f8d7 30ac 	ldr.w	r3, [r7, #172]	; 0xac
 80055f0:	3309      	adds	r3, #9
 80055f2:	009b      	lsls	r3, r3, #2
 80055f4:	f107 02b0 	add.w	r2, r7, #176	; 0xb0
 80055f8:	4413      	add	r3, r2
 80055fa:	f853 2c9c 	ldr.w	r2, [r3, #-156]
 80055fe:	f8d7 30ac 	ldr.w	r3, [r7, #172]	; 0xac
 8005602:	3309      	adds	r3, #9
 8005604:	f022 427c 	bic.w	r2, r2, #4227858432	; 0xfc000000
 8005608:	009b      	lsls	r3, r3, #2
 800560a:	f107 01b0 	add.w	r1, r7, #176	; 0xb0
 800560e:	440b      	add	r3, r1
 8005610:	f843 2c9c 	str.w	r2, [r3, #-156]
 8005614:	f8d7 30ac 	ldr.w	r3, [r7, #172]	; 0xac
 8005618:	330a      	adds	r3, #10
 800561a:	009b      	lsls	r3, r3, #2
 800561c:	f107 02b0 	add.w	r2, r7, #176	; 0xb0
 8005620:	4413      	add	r3, r2
 8005622:	f853 3c9c 	ldr.w	r3, [r3, #-156]
 8005626:	425b      	negs	r3, r3
 8005628:	069a      	lsls	r2, r3, #26
 800562a:	f8d7 30ac 	ldr.w	r3, [r7, #172]	; 0xac
 800562e:	3309      	adds	r3, #9
 8005630:	009b      	lsls	r3, r3, #2
 8005632:	f107 01b0 	add.w	r1, r7, #176	; 0xb0
 8005636:	440b      	add	r3, r1
 8005638:	f853 3c9c 	ldr.w	r3, [r3, #-156]
 800563c:	1ad2      	subs	r2, r2, r3
 800563e:	f8d7 30a0 	ldr.w	r3, [r7, #160]	; 0xa0
 8005642:	fb92 f3f3 	sdiv	r3, r2, r3
 8005646:	f8c7 309c 	str.w	r3, [r7, #156]	; 0x9c
 800564a:	f8d7 309c 	ldr.w	r3, [r7, #156]	; 0x9c
 800564e:	3301      	adds	r3, #1
 8005650:	f8c7 309c 	str.w	r3, [r7, #156]	; 0x9c
 8005654:	f8d7 209c 	ldr.w	r2, [r7, #156]	; 0x9c
 8005658:	68b9      	ldr	r1, [r7, #8]
 800565a:	f8d7 00a8 	ldr.w	r0, [r7, #168]	; 0xa8
 800565e:	f7ff fe8b 	bl	8005378 <sp_256_mul_d_10>
 8005662:	f107 0214 	add.w	r2, r7, #20
 8005666:	f8d7 30ac 	ldr.w	r3, [r7, #172]	; 0xac
 800566a:	009b      	lsls	r3, r3, #2
 800566c:	18d0      	adds	r0, r2, r3
 800566e:	f107 0214 	add.w	r2, r7, #20
 8005672:	f8d7 30ac 	ldr.w	r3, [r7, #172]	; 0xac
 8005676:	009b      	lsls	r3, r3, #2
 8005678:	4413      	add	r3, r2
 800567a:	f8d7 20a8 	ldr.w	r2, [r7, #168]	; 0xa8
 800567e:	4619      	mov	r1, r3
 8005680:	f7fd fb50 	bl	8002d24 <sp_256_add_10>
 8005684:	f8d7 30ac 	ldr.w	r3, [r7, #172]	; 0xac
 8005688:	330a      	adds	r3, #10
 800568a:	009b      	lsls	r3, r3, #2
 800568c:	f107 02b0 	add.w	r2, r7, #176	; 0xb0
 8005690:	4413      	add	r3, r2
 8005692:	f853 1c9c 	ldr.w	r1, [r3, #-156]
 8005696:	f8d7 30ac 	ldr.w	r3, [r7, #172]	; 0xac
 800569a:	3309      	adds	r3, #9
 800569c:	009b      	lsls	r3, r3, #2
 800569e:	f107 02b0 	add.w	r2, r7, #176	; 0xb0
 80056a2:	4413      	add	r3, r2
 80056a4:	f853 3c9c 	ldr.w	r3, [r3, #-156]
 80056a8:	169a      	asrs	r2, r3, #26
 80056aa:	f8d7 30ac 	ldr.w	r3, [r7, #172]	; 0xac
 80056ae:	330a      	adds	r3, #10
 80056b0:	440a      	add	r2, r1
 80056b2:	009b      	lsls	r3, r3, #2
 80056b4:	f107 01b0 	add.w	r1, r7, #176	; 0xb0
 80056b8:	440b      	add	r3, r1
 80056ba:	f843 2c9c 	str.w	r2, [r3, #-156]
 80056be:	f8d7 30ac 	ldr.w	r3, [r7, #172]	; 0xac
 80056c2:	3309      	adds	r3, #9
 80056c4:	009b      	lsls	r3, r3, #2
 80056c6:	f107 02b0 	add.w	r2, r7, #176	; 0xb0
 80056ca:	4413      	add	r3, r2
 80056cc:	f853 2c9c 	ldr.w	r2, [r3, #-156]
 80056d0:	f8d7 30ac 	ldr.w	r3, [r7, #172]	; 0xac
 80056d4:	3309      	adds	r3, #9
 80056d6:	f022 427c 	bic.w	r2, r2, #4227858432	; 0xfc000000
 80056da:	009b      	lsls	r3, r3, #2
 80056dc:	f107 01b0 	add.w	r1, r7, #176	; 0xb0
 80056e0:	440b      	add	r3, r1
 80056e2:	f843 2c9c 	str.w	r2, [r3, #-156]
 80056e6:	f8d7 30ac 	ldr.w	r3, [r7, #172]	; 0xac
 80056ea:	3b01      	subs	r3, #1
 80056ec:	f8c7 30ac 	str.w	r3, [r7, #172]	; 0xac
 80056f0:	f8d7 30ac 	ldr.w	r3, [r7, #172]	; 0xac
 80056f4:	2b00      	cmp	r3, #0
 80056f6:	f6bf aeb8 	bge.w	800546a <sp_256_div_10+0x4c>
 80056fa:	6bba      	ldr	r2, [r7, #56]	; 0x38
 80056fc:	6b7b      	ldr	r3, [r7, #52]	; 0x34
 80056fe:	169b      	asrs	r3, r3, #26
 8005700:	4413      	add	r3, r2
 8005702:	63bb      	str	r3, [r7, #56]	; 0x38
 8005704:	6b7b      	ldr	r3, [r7, #52]	; 0x34
 8005706:	f023 437c 	bic.w	r3, r3, #4227858432	; 0xfc000000
 800570a:	637b      	str	r3, [r7, #52]	; 0x34
 800570c:	6bba      	ldr	r2, [r7, #56]	; 0x38
 800570e:	f8d7 30a0 	ldr.w	r3, [r7, #160]	; 0xa0
 8005712:	fb92 f3f3 	sdiv	r3, r2, r3
 8005716:	f8c7 309c 	str.w	r3, [r7, #156]	; 0x9c
 800571a:	f8d7 209c 	ldr.w	r2, [r7, #156]	; 0x9c
 800571e:	68b9      	ldr	r1, [r7, #8]
 8005720:	f8d7 00a8 	ldr.w	r0, [r7, #168]	; 0xa8
 8005724:	f7ff fe28 	bl	8005378 <sp_256_mul_d_10>
 8005728:	f107 0114 	add.w	r1, r7, #20
 800572c:	f107 0314 	add.w	r3, r7, #20
 8005730:	f8d7 20a8 	ldr.w	r2, [r7, #168]	; 0xa8
 8005734:	4618      	mov	r0, r3
 8005736:	f7fd fb1a 	bl	8002d6e <sp_256_sub_10>
 800573a:	f107 0314 	add.w	r3, r7, #20
 800573e:	2250      	movs	r2, #80	; 0x50
 8005740:	4619      	mov	r1, r3
 8005742:	6838      	ldr	r0, [r7, #0]
 8005744:	f7fb f8ed 	bl	8000922 <memcpy>
 8005748:	2300      	movs	r3, #0
 800574a:	f8c7 30ac 	str.w	r3, [r7, #172]	; 0xac
 800574e:	e028      	b.n	80057a2 <sp_256_div_10+0x384>
 8005750:	f8d7 30ac 	ldr.w	r3, [r7, #172]	; 0xac
 8005754:	3301      	adds	r3, #1
 8005756:	009b      	lsls	r3, r3, #2
 8005758:	683a      	ldr	r2, [r7, #0]
 800575a:	4413      	add	r3, r2
 800575c:	6819      	ldr	r1, [r3, #0]
 800575e:	f8d7 30ac 	ldr.w	r3, [r7, #172]	; 0xac
 8005762:	009b      	lsls	r3, r3, #2
 8005764:	683a      	ldr	r2, [r7, #0]
 8005766:	4413      	add	r3, r2
 8005768:	681b      	ldr	r3, [r3, #0]
 800576a:	169a      	asrs	r2, r3, #26
 800576c:	f8d7 30ac 	ldr.w	r3, [r7, #172]	; 0xac
 8005770:	3301      	adds	r3, #1
 8005772:	009b      	lsls	r3, r3, #2
 8005774:	6838      	ldr	r0, [r7, #0]
 8005776:	4403      	add	r3, r0
 8005778:	440a      	add	r2, r1
 800577a:	601a      	str	r2, [r3, #0]
 800577c:	f8d7 30ac 	ldr.w	r3, [r7, #172]	; 0xac
 8005780:	009b      	lsls	r3, r3, #2
 8005782:	683a      	ldr	r2, [r7, #0]
 8005784:	4413      	add	r3, r2
 8005786:	681a      	ldr	r2, [r3, #0]
 8005788:	f8d7 30ac 	ldr.w	r3, [r7, #172]	; 0xac
 800578c:	009b      	lsls	r3, r3, #2
 800578e:	6839      	ldr	r1, [r7, #0]
 8005790:	440b      	add	r3, r1
 8005792:	f022 427c 	bic.w	r2, r2, #4227858432	; 0xfc000000
 8005796:	601a      	str	r2, [r3, #0]
 8005798:	f8d7 30ac 	ldr.w	r3, [r7, #172]	; 0xac
 800579c:	3301      	adds	r3, #1
 800579e:	f8c7 30ac 	str.w	r3, [r7, #172]	; 0xac
 80057a2:	f8d7 30ac 	ldr.w	r3, [r7, #172]	; 0xac
 80057a6:	2b08      	cmp	r3, #8
 80057a8:	ddd2      	ble.n	8005750 <sp_256_div_10+0x332>
 80057aa:	683b      	ldr	r3, [r7, #0]
 80057ac:	3324      	adds	r3, #36	; 0x24
 80057ae:	681b      	ldr	r3, [r3, #0]
 80057b0:	0fdb      	lsrs	r3, r3, #31
 80057b2:	425b      	negs	r3, r3
 80057b4:	68ba      	ldr	r2, [r7, #8]
 80057b6:	6839      	ldr	r1, [r7, #0]
 80057b8:	6838      	ldr	r0, [r7, #0]
 80057ba:	f7fd ffe8 	bl	800378e <sp_256_cond_add_10>
 80057be:	f8d7 30a4 	ldr.w	r3, [r7, #164]	; 0xa4
 80057c2:	4618      	mov	r0, r3
 80057c4:	37b0      	adds	r7, #176	; 0xb0
 80057c6:	46bd      	mov	sp, r7
 80057c8:	bdb0      	pop	{r4, r5, r7, pc}

080057ca <sp_256_mod_10>:
 80057ca:	b580      	push	{r7, lr}
 80057cc:	b084      	sub	sp, #16
 80057ce:	af00      	add	r7, sp, #0
 80057d0:	60f8      	str	r0, [r7, #12]
 80057d2:	60b9      	str	r1, [r7, #8]
 80057d4:	607a      	str	r2, [r7, #4]
 80057d6:	68fb      	ldr	r3, [r7, #12]
 80057d8:	2200      	movs	r2, #0
 80057da:	6879      	ldr	r1, [r7, #4]
 80057dc:	68b8      	ldr	r0, [r7, #8]
 80057de:	f7ff fe1e 	bl	800541e <sp_256_div_10>
 80057e2:	4603      	mov	r3, r0
 80057e4:	4618      	mov	r0, r3
 80057e6:	3710      	adds	r7, #16
 80057e8:	46bd      	mov	sp, r7
 80057ea:	bd80      	pop	{r7, pc}

080057ec <sp_256_mont_mul_order_10>:
 80057ec:	b580      	push	{r7, lr}
 80057ee:	b084      	sub	sp, #16
 80057f0:	af00      	add	r7, sp, #0
 80057f2:	60f8      	str	r0, [r7, #12]
 80057f4:	60b9      	str	r1, [r7, #8]
 80057f6:	607a      	str	r2, [r7, #4]
 80057f8:	687a      	ldr	r2, [r7, #4]
 80057fa:	68b9      	ldr	r1, [r7, #8]
 80057fc:	68f8      	ldr	r0, [r7, #12]
 80057fe:	f7fd f8bd 	bl	800297c <sp_256_mul_10>
 8005802:	4b05      	ldr	r3, [pc, #20]	; (8005818 <sp_256_mont_mul_order_10+0x2c>)
 8005804:	461a      	mov	r2, r3
 8005806:	4905      	ldr	r1, [pc, #20]	; (800581c <sp_256_mont_mul_order_10+0x30>)
 8005808:	68f8      	ldr	r0, [r7, #12]
 800580a:	f7fd fd4f 	bl	80032ac <sp_256_mont_reduce_10>
 800580e:	bf00      	nop
 8005810:	3710      	adds	r7, #16
 8005812:	46bd      	mov	sp, r7
 8005814:	bd80      	pop	{r7, pc}
 8005816:	bf00      	nop
 8005818:	0200bc4f 	.word	0x0200bc4f
 800581c:	08006c04 	.word	0x08006c04

08005820 <sp_256_mont_sqr_order_10>:
 8005820:	b580      	push	{r7, lr}
 8005822:	b082      	sub	sp, #8
 8005824:	af00      	add	r7, sp, #0
 8005826:	6078      	str	r0, [r7, #4]
 8005828:	6039      	str	r1, [r7, #0]
 800582a:	6839      	ldr	r1, [r7, #0]
 800582c:	6878      	ldr	r0, [r7, #4]
 800582e:	f7fd f977 	bl	8002b20 <sp_256_sqr_10>
 8005832:	4b05      	ldr	r3, [pc, #20]	; (8005848 <sp_256_mont_sqr_order_10+0x28>)
 8005834:	461a      	mov	r2, r3
 8005836:	4905      	ldr	r1, [pc, #20]	; (800584c <sp_256_mont_sqr_order_10+0x2c>)
 8005838:	6878      	ldr	r0, [r7, #4]
 800583a:	f7fd fd37 	bl	80032ac <sp_256_mont_reduce_10>
 800583e:	bf00      	nop
 8005840:	3708      	adds	r7, #8
 8005842:	46bd      	mov	sp, r7
 8005844:	bd80      	pop	{r7, pc}
 8005846:	bf00      	nop
 8005848:	0200bc4f 	.word	0x0200bc4f
 800584c:	08006c04 	.word	0x08006c04

08005850 <sp_256_mont_inv_order_10>:
 8005850:	b580      	push	{r7, lr}
 8005852:	b086      	sub	sp, #24
 8005854:	af00      	add	r7, sp, #0
 8005856:	60f8      	str	r0, [r7, #12]
 8005858:	60b9      	str	r1, [r7, #8]
 800585a:	607a      	str	r2, [r7, #4]
 800585c:	687b      	ldr	r3, [r7, #4]
 800585e:	613b      	str	r3, [r7, #16]
 8005860:	2228      	movs	r2, #40	; 0x28
 8005862:	68b9      	ldr	r1, [r7, #8]
 8005864:	6938      	ldr	r0, [r7, #16]
 8005866:	f7fb f85c 	bl	8000922 <memcpy>
 800586a:	23fe      	movs	r3, #254	; 0xfe
 800586c:	617b      	str	r3, [r7, #20]
 800586e:	e022      	b.n	80058b6 <sp_256_mont_inv_order_10+0x66>
 8005870:	6939      	ldr	r1, [r7, #16]
 8005872:	6938      	ldr	r0, [r7, #16]
 8005874:	f7ff ffd4 	bl	8005820 <sp_256_mont_sqr_order_10>
 8005878:	697b      	ldr	r3, [r7, #20]
 800587a:	2b00      	cmp	r3, #0
 800587c:	da00      	bge.n	8005880 <sp_256_mont_inv_order_10+0x30>
 800587e:	331f      	adds	r3, #31
 8005880:	115b      	asrs	r3, r3, #5
 8005882:	461a      	mov	r2, r3
 8005884:	4b12      	ldr	r3, [pc, #72]	; (80058d0 <sp_256_mont_inv_order_10+0x80>)
 8005886:	f853 2022 	ldr.w	r2, [r3, r2, lsl #2]
 800588a:	697b      	ldr	r3, [r7, #20]
 800588c:	4259      	negs	r1, r3
 800588e:	f003 031f 	and.w	r3, r3, #31
 8005892:	f001 011f 	and.w	r1, r1, #31
 8005896:	bf58      	it	pl
 8005898:	424b      	negpl	r3, r1
 800589a:	2101      	movs	r1, #1
 800589c:	fa01 f303 	lsl.w	r3, r1, r3
 80058a0:	4013      	ands	r3, r2
 80058a2:	2b00      	cmp	r3, #0
 80058a4:	d004      	beq.n	80058b0 <sp_256_mont_inv_order_10+0x60>
 80058a6:	68ba      	ldr	r2, [r7, #8]
 80058a8:	6939      	ldr	r1, [r7, #16]
 80058aa:	6938      	ldr	r0, [r7, #16]
 80058ac:	f7ff ff9e 	bl	80057ec <sp_256_mont_mul_order_10>
 80058b0:	697b      	ldr	r3, [r7, #20]
 80058b2:	3b01      	subs	r3, #1
 80058b4:	617b      	str	r3, [r7, #20]
 80058b6:	697b      	ldr	r3, [r7, #20]
 80058b8:	2b00      	cmp	r3, #0
 80058ba:	dad9      	bge.n	8005870 <sp_256_mont_inv_order_10+0x20>
 80058bc:	2228      	movs	r2, #40	; 0x28
 80058be:	6939      	ldr	r1, [r7, #16]
 80058c0:	68f8      	ldr	r0, [r7, #12]
 80058c2:	f7fb f82e 	bl	8000922 <memcpy>
 80058c6:	bf00      	nop
 80058c8:	3718      	adds	r7, #24
 80058ca:	46bd      	mov	sp, r7
 80058cc:	bd80      	pop	{r7, pc}
 80058ce:	bf00      	nop
 80058d0:	08006d68 	.word	0x08006d68

080058d4 <sp_256_add_points_10>:
 80058d4:	b580      	push	{r7, lr}
 80058d6:	b084      	sub	sp, #16
 80058d8:	af00      	add	r7, sp, #0
 80058da:	60f8      	str	r0, [r7, #12]
 80058dc:	60b9      	str	r1, [r7, #8]
 80058de:	607a      	str	r2, [r7, #4]
 80058e0:	687b      	ldr	r3, [r7, #4]
 80058e2:	68ba      	ldr	r2, [r7, #8]
 80058e4:	68f9      	ldr	r1, [r7, #12]
 80058e6:	68f8      	ldr	r0, [r7, #12]
 80058e8:	f7fe f8d8 	bl	8003a9c <sp_256_proj_point_add_10>
 80058ec:	68fb      	ldr	r3, [r7, #12]
 80058ee:	33a0      	adds	r3, #160	; 0xa0
 80058f0:	4618      	mov	r0, r3
 80058f2:	f7ff fc9a 	bl	800522a <sp_256_iszero_10>
 80058f6:	4603      	mov	r3, r0
 80058f8:	2b00      	cmp	r3, #0
 80058fa:	d039      	beq.n	8005970 <sp_256_add_points_10+0x9c>
 80058fc:	68fb      	ldr	r3, [r7, #12]
 80058fe:	4618      	mov	r0, r3
 8005900:	f7ff fc93 	bl	800522a <sp_256_iszero_10>
 8005904:	4603      	mov	r3, r0
 8005906:	2b00      	cmp	r3, #0
 8005908:	d00d      	beq.n	8005926 <sp_256_add_points_10+0x52>
 800590a:	68fb      	ldr	r3, [r7, #12]
 800590c:	3350      	adds	r3, #80	; 0x50
 800590e:	4618      	mov	r0, r3
 8005910:	f7ff fc8b 	bl	800522a <sp_256_iszero_10>
 8005914:	4603      	mov	r3, r0
 8005916:	2b00      	cmp	r3, #0
 8005918:	d005      	beq.n	8005926 <sp_256_add_points_10+0x52>
 800591a:	687a      	ldr	r2, [r7, #4]
 800591c:	68b9      	ldr	r1, [r7, #8]
 800591e:	68f8      	ldr	r0, [r7, #12]
 8005920:	f7fd ffc4 	bl	80038ac <sp_256_proj_point_dbl_10>
 8005924:	e024      	b.n	8005970 <sp_256_add_points_10+0x9c>
 8005926:	68fb      	ldr	r3, [r7, #12]
 8005928:	2200      	movs	r2, #0
 800592a:	601a      	str	r2, [r3, #0]
 800592c:	68fb      	ldr	r3, [r7, #12]
 800592e:	2200      	movs	r2, #0
 8005930:	605a      	str	r2, [r3, #4]
 8005932:	68fb      	ldr	r3, [r7, #12]
 8005934:	2200      	movs	r2, #0
 8005936:	609a      	str	r2, [r3, #8]
 8005938:	68fb      	ldr	r3, [r7, #12]
 800593a:	2200      	movs	r2, #0
 800593c:	60da      	str	r2, [r3, #12]
 800593e:	68fb      	ldr	r3, [r7, #12]
 8005940:	2200      	movs	r2, #0
 8005942:	611a      	str	r2, [r3, #16]
 8005944:	68fb      	ldr	r3, [r7, #12]
 8005946:	2200      	movs	r2, #0
 8005948:	615a      	str	r2, [r3, #20]
 800594a:	68fb      	ldr	r3, [r7, #12]
 800594c:	2200      	movs	r2, #0
 800594e:	619a      	str	r2, [r3, #24]
 8005950:	68fb      	ldr	r3, [r7, #12]
 8005952:	2200      	movs	r2, #0
 8005954:	61da      	str	r2, [r3, #28]
 8005956:	68fb      	ldr	r3, [r7, #12]
 8005958:	2200      	movs	r2, #0
 800595a:	621a      	str	r2, [r3, #32]
 800595c:	68fb      	ldr	r3, [r7, #12]
 800595e:	2200      	movs	r2, #0
 8005960:	625a      	str	r2, [r3, #36]	; 0x24
 8005962:	68fb      	ldr	r3, [r7, #12]
 8005964:	33a0      	adds	r3, #160	; 0xa0
 8005966:	2228      	movs	r2, #40	; 0x28
 8005968:	4903      	ldr	r1, [pc, #12]	; (8005978 <sp_256_add_points_10+0xa4>)
 800596a:	4618      	mov	r0, r3
 800596c:	f7fa ffd9 	bl	8000922 <memcpy>
 8005970:	bf00      	nop
 8005972:	3710      	adds	r7, #16
 8005974:	46bd      	mov	sp, r7
 8005976:	bd80      	pop	{r7, pc}
 8005978:	08006bdc 	.word	0x08006bdc

0800597c <sp_256_calc_vfy_point_10>:
 800597c:	b580      	push	{r7, lr}
 800597e:	b088      	sub	sp, #32
 8005980:	af02      	add	r7, sp, #8
 8005982:	60f8      	str	r0, [r7, #12]
 8005984:	60b9      	str	r1, [r7, #8]
 8005986:	607a      	str	r2, [r7, #4]
 8005988:	603b      	str	r3, [r7, #0]
 800598a:	4a31      	ldr	r2, [pc, #196]	; (8005a50 <sp_256_calc_vfy_point_10+0xd4>)
 800598c:	6879      	ldr	r1, [r7, #4]
 800598e:	6878      	ldr	r0, [r7, #4]
 8005990:	f7fc fff4 	bl	800297c <sp_256_mul_10>
 8005994:	4a2f      	ldr	r2, [pc, #188]	; (8005a54 <sp_256_calc_vfy_point_10+0xd8>)
 8005996:	6879      	ldr	r1, [r7, #4]
 8005998:	6878      	ldr	r0, [r7, #4]
 800599a:	f7ff ff16 	bl	80057ca <sp_256_mod_10>
 800599e:	6178      	str	r0, [r7, #20]
 80059a0:	697b      	ldr	r3, [r7, #20]
 80059a2:	2b00      	cmp	r3, #0
 80059a4:	d11a      	bne.n	80059dc <sp_256_calc_vfy_point_10+0x60>
 80059a6:	6878      	ldr	r0, [r7, #4]
 80059a8:	f7fd fc05 	bl	80031b6 <sp_256_norm_10>
 80059ac:	6a7a      	ldr	r2, [r7, #36]	; 0x24
 80059ae:	6879      	ldr	r1, [r7, #4]
 80059b0:	6878      	ldr	r0, [r7, #4]
 80059b2:	f7ff ff4d 	bl	8005850 <sp_256_mont_inv_order_10>
 80059b6:	687a      	ldr	r2, [r7, #4]
 80059b8:	6839      	ldr	r1, [r7, #0]
 80059ba:	6838      	ldr	r0, [r7, #0]
 80059bc:	f7ff ff16 	bl	80057ec <sp_256_mont_mul_order_10>
 80059c0:	687a      	ldr	r2, [r7, #4]
 80059c2:	6a39      	ldr	r1, [r7, #32]
 80059c4:	6a38      	ldr	r0, [r7, #32]
 80059c6:	f7ff ff11 	bl	80057ec <sp_256_mont_mul_order_10>
 80059ca:	6abb      	ldr	r3, [r7, #40]	; 0x28
 80059cc:	9300      	str	r3, [sp, #0]
 80059ce:	2300      	movs	r3, #0
 80059d0:	2200      	movs	r2, #0
 80059d2:	6839      	ldr	r1, [r7, #0]
 80059d4:	68f8      	ldr	r0, [r7, #12]
 80059d6:	f7ff fbd1 	bl	800517c <sp_256_ecc_mulmod_base_10>
 80059da:	6178      	str	r0, [r7, #20]
 80059dc:	697b      	ldr	r3, [r7, #20]
 80059de:	2b00      	cmp	r3, #0
 80059e0:	d10b      	bne.n	80059fa <sp_256_calc_vfy_point_10+0x7e>
 80059e2:	68fb      	ldr	r3, [r7, #12]
 80059e4:	33a0      	adds	r3, #160	; 0xa0
 80059e6:	4618      	mov	r0, r3
 80059e8:	f7ff fc1f 	bl	800522a <sp_256_iszero_10>
 80059ec:	4603      	mov	r3, r0
 80059ee:	2b00      	cmp	r3, #0
 80059f0:	d003      	beq.n	80059fa <sp_256_calc_vfy_point_10+0x7e>
 80059f2:	68fb      	ldr	r3, [r7, #12]
 80059f4:	2201      	movs	r2, #1
 80059f6:	f8c3 20f0 	str.w	r2, [r3, #240]	; 0xf0
 80059fa:	697b      	ldr	r3, [r7, #20]
 80059fc:	2b00      	cmp	r3, #0
 80059fe:	d10a      	bne.n	8005a16 <sp_256_calc_vfy_point_10+0x9a>
 8005a00:	6abb      	ldr	r3, [r7, #40]	; 0x28
 8005a02:	9301      	str	r3, [sp, #4]
 8005a04:	2300      	movs	r3, #0
 8005a06:	9300      	str	r3, [sp, #0]
 8005a08:	2300      	movs	r3, #0
 8005a0a:	6a3a      	ldr	r2, [r7, #32]
 8005a0c:	68b9      	ldr	r1, [r7, #8]
 8005a0e:	68b8      	ldr	r0, [r7, #8]
 8005a10:	f7ff fa8a 	bl	8004f28 <sp_256_ecc_mulmod_10>
 8005a14:	6178      	str	r0, [r7, #20]
 8005a16:	697b      	ldr	r3, [r7, #20]
 8005a18:	2b00      	cmp	r3, #0
 8005a1a:	d10b      	bne.n	8005a34 <sp_256_calc_vfy_point_10+0xb8>
 8005a1c:	68bb      	ldr	r3, [r7, #8]
 8005a1e:	33a0      	adds	r3, #160	; 0xa0
 8005a20:	4618      	mov	r0, r3
 8005a22:	f7ff fc02 	bl	800522a <sp_256_iszero_10>
 8005a26:	4603      	mov	r3, r0
 8005a28:	2b00      	cmp	r3, #0
 8005a2a:	d003      	beq.n	8005a34 <sp_256_calc_vfy_point_10+0xb8>
 8005a2c:	68bb      	ldr	r3, [r7, #8]
 8005a2e:	2201      	movs	r2, #1
 8005a30:	f8c3 20f0 	str.w	r2, [r3, #240]	; 0xf0
 8005a34:	697b      	ldr	r3, [r7, #20]
 8005a36:	2b00      	cmp	r3, #0
 8005a38:	d104      	bne.n	8005a44 <sp_256_calc_vfy_point_10+0xc8>
 8005a3a:	6a7a      	ldr	r2, [r7, #36]	; 0x24
 8005a3c:	68b9      	ldr	r1, [r7, #8]
 8005a3e:	68f8      	ldr	r0, [r7, #12]
 8005a40:	f7ff ff48 	bl	80058d4 <sp_256_add_points_10>
 8005a44:	697b      	ldr	r3, [r7, #20]
 8005a46:	4618      	mov	r0, r3
 8005a48:	3718      	adds	r7, #24
 8005a4a:	46bd      	mov	sp, r7
 8005a4c:	bd80      	pop	{r7, pc}
 8005a4e:	bf00      	nop
 8005a50:	08006c2c 	.word	0x08006c2c
 8005a54:	08006c04 	.word	0x08006c04

08005a58 <sp_ecc_verify_256>:
 8005a58:	b590      	push	{r4, r7, lr}
 8005a5a:	f2ad 4dac 	subw	sp, sp, #1196	; 0x4ac
 8005a5e:	af04      	add	r7, sp, #16
 8005a60:	f107 040c 	add.w	r4, r7, #12
 8005a64:	6020      	str	r0, [r4, #0]
 8005a66:	f107 0008 	add.w	r0, r7, #8
 8005a6a:	6001      	str	r1, [r0, #0]
 8005a6c:	1d39      	adds	r1, r7, #4
 8005a6e:	600a      	str	r2, [r1, #0]
 8005a70:	463a      	mov	r2, r7
 8005a72:	6013      	str	r3, [r2, #0]
 8005a74:	2300      	movs	r3, #0
 8005a76:	f8c7 3494 	str.w	r3, [r7, #1172]	; 0x494
 8005a7a:	2300      	movs	r3, #0
 8005a7c:	f8c7 3488 	str.w	r3, [r7, #1160]	; 0x488
 8005a80:	2300      	movs	r3, #0
 8005a82:	f8c7 3484 	str.w	r3, [r7, #1156]	; 0x484
 8005a86:	2300      	movs	r3, #0
 8005a88:	f8c7 3480 	str.w	r3, [r7, #1152]	; 0x480
 8005a8c:	2300      	movs	r3, #0
 8005a8e:	f8c7 3490 	str.w	r3, [r7, #1168]	; 0x490
 8005a92:	2300      	movs	r3, #0
 8005a94:	f8c7 348c 	str.w	r3, [r7, #1164]	; 0x48c
 8005a98:	f8d7 348c 	ldr.w	r3, [r7, #1164]	; 0x48c
 8005a9c:	2b00      	cmp	r3, #0
 8005a9e:	d164      	bne.n	8005b6a <sp_ecc_verify_256+0x112>
 8005aa0:	f507 73fe 	add.w	r3, r7, #508	; 0x1fc
 8005aa4:	3350      	adds	r3, #80	; 0x50
 8005aa6:	f8c7 3494 	str.w	r3, [r7, #1172]	; 0x494
 8005aaa:	f507 73fe 	add.w	r3, r7, #508	; 0x1fc
 8005aae:	33a0      	adds	r3, #160	; 0xa0
 8005ab0:	f8c7 3488 	str.w	r3, [r7, #1160]	; 0x488
 8005ab4:	f507 73fe 	add.w	r3, r7, #508	; 0x1fc
 8005ab8:	33f0      	adds	r3, #240	; 0xf0
 8005aba:	f8c7 3484 	str.w	r3, [r7, #1156]	; 0x484
 8005abe:	f107 0314 	add.w	r3, r7, #20
 8005ac2:	33f4      	adds	r3, #244	; 0xf4
 8005ac4:	f8c7 3480 	str.w	r3, [r7, #1152]	; 0x480
 8005ac8:	f107 0308 	add.w	r3, r7, #8
 8005acc:	681b      	ldr	r3, [r3, #0]
 8005ace:	2b20      	cmp	r3, #32
 8005ad0:	d903      	bls.n	8005ada <sp_ecc_verify_256+0x82>
 8005ad2:	f107 0308 	add.w	r3, r7, #8
 8005ad6:	2220      	movs	r2, #32
 8005ad8:	601a      	str	r2, [r3, #0]
 8005ada:	f107 0308 	add.w	r3, r7, #8
 8005ade:	681b      	ldr	r3, [r3, #0]
 8005ae0:	f107 020c 	add.w	r2, r7, #12
 8005ae4:	f507 70fe 	add.w	r0, r7, #508	; 0x1fc
 8005ae8:	6812      	ldr	r2, [r2, #0]
 8005aea:	210a      	movs	r1, #10
 8005aec:	f7ff fbd1 	bl	8005292 <sp_256_from_bin>
 8005af0:	f8d7 24ac 	ldr.w	r2, [r7, #1196]	; 0x4ac
 8005af4:	210a      	movs	r1, #10
 8005af6:	f8d7 0494 	ldr.w	r0, [r7, #1172]	; 0x494
 8005afa:	f7fd f95d 	bl	8002db8 <sp_256_from_mp>
 8005afe:	f8d7 24b0 	ldr.w	r2, [r7, #1200]	; 0x4b0
 8005b02:	210a      	movs	r1, #10
 8005b04:	f8d7 0488 	ldr.w	r0, [r7, #1160]	; 0x488
 8005b08:	f7fd f956 	bl	8002db8 <sp_256_from_mp>
 8005b0c:	f8d7 0480 	ldr.w	r0, [r7, #1152]	; 0x480
 8005b10:	1d3b      	adds	r3, r7, #4
 8005b12:	681a      	ldr	r2, [r3, #0]
 8005b14:	210a      	movs	r1, #10
 8005b16:	f7fd f94f 	bl	8002db8 <sp_256_from_mp>
 8005b1a:	f8d7 3480 	ldr.w	r3, [r7, #1152]	; 0x480
 8005b1e:	f103 0050 	add.w	r0, r3, #80	; 0x50
 8005b22:	463b      	mov	r3, r7
 8005b24:	681a      	ldr	r2, [r3, #0]
 8005b26:	210a      	movs	r1, #10
 8005b28:	f7fd f946 	bl	8002db8 <sp_256_from_mp>
 8005b2c:	f8d7 3480 	ldr.w	r3, [r7, #1152]	; 0x480
 8005b30:	33a0      	adds	r3, #160	; 0xa0
 8005b32:	f8d7 24a8 	ldr.w	r2, [r7, #1192]	; 0x4a8
 8005b36:	210a      	movs	r1, #10
 8005b38:	4618      	mov	r0, r3
 8005b3a:	f7fd f93d 	bl	8002db8 <sp_256_from_mp>
 8005b3e:	f507 72fe 	add.w	r2, r7, #508	; 0x1fc
 8005b42:	f107 0014 	add.w	r0, r7, #20
 8005b46:	f8d7 34b8 	ldr.w	r3, [r7, #1208]	; 0x4b8
 8005b4a:	9302      	str	r3, [sp, #8]
 8005b4c:	f8d7 3484 	ldr.w	r3, [r7, #1156]	; 0x484
 8005b50:	9301      	str	r3, [sp, #4]
 8005b52:	f8d7 3494 	ldr.w	r3, [r7, #1172]	; 0x494
 8005b56:	9300      	str	r3, [sp, #0]
 8005b58:	4613      	mov	r3, r2
 8005b5a:	f8d7 2488 	ldr.w	r2, [r7, #1160]	; 0x488
 8005b5e:	f8d7 1480 	ldr.w	r1, [r7, #1152]	; 0x480
 8005b62:	f7ff ff0b 	bl	800597c <sp_256_calc_vfy_point_10>
 8005b66:	f8c7 048c 	str.w	r0, [r7, #1164]	; 0x48c
 8005b6a:	f8d7 348c 	ldr.w	r3, [r7, #1164]	; 0x48c
 8005b6e:	2b00      	cmp	r3, #0
 8005b70:	d10f      	bne.n	8005b92 <sp_ecc_verify_256+0x13a>
 8005b72:	f8d7 24ac 	ldr.w	r2, [r7, #1196]	; 0x4ac
 8005b76:	210a      	movs	r1, #10
 8005b78:	f8d7 0494 	ldr.w	r0, [r7, #1172]	; 0x494
 8005b7c:	f7fd f91c 	bl	8002db8 <sp_256_from_mp>
 8005b80:	4a4c      	ldr	r2, [pc, #304]	; (8005cb4 <sp_ecc_verify_256+0x25c>)
 8005b82:	f8d7 1494 	ldr.w	r1, [r7, #1172]	; 0x494
 8005b86:	f8d7 0494 	ldr.w	r0, [r7, #1172]	; 0x494
 8005b8a:	f7fe f927 	bl	8003ddc <sp_256_mod_mul_norm_10>
 8005b8e:	f8c7 048c 	str.w	r0, [r7, #1164]	; 0x48c
 8005b92:	f8d7 348c 	ldr.w	r3, [r7, #1164]	; 0x48c
 8005b96:	2b00      	cmp	r3, #0
 8005b98:	f040 8085 	bne.w	8005ca6 <sp_ecc_verify_256+0x24e>
 8005b9c:	2201      	movs	r2, #1
 8005b9e:	f107 0314 	add.w	r3, r7, #20
 8005ba2:	f103 01a0 	add.w	r1, r3, #160	; 0xa0
 8005ba6:	f107 0314 	add.w	r3, r7, #20
 8005baa:	f103 00a0 	add.w	r0, r3, #160	; 0xa0
 8005bae:	4613      	mov	r3, r2
 8005bb0:	4a40      	ldr	r2, [pc, #256]	; (8005cb4 <sp_ecc_verify_256+0x25c>)
 8005bb2:	f7fd fc76 	bl	80034a2 <sp_256_mont_sqr_10>
 8005bb6:	2101      	movs	r1, #1
 8005bb8:	f107 0314 	add.w	r3, r7, #20
 8005bbc:	f103 02a0 	add.w	r2, r3, #160	; 0xa0
 8005bc0:	f507 70fe 	add.w	r0, r7, #508	; 0x1fc
 8005bc4:	9100      	str	r1, [sp, #0]
 8005bc6:	4b3b      	ldr	r3, [pc, #236]	; (8005cb4 <sp_ecc_verify_256+0x25c>)
 8005bc8:	f8d7 1494 	ldr.w	r1, [r7, #1172]	; 0x494
 8005bcc:	f7fd fc54 	bl	8003478 <sp_256_mont_mul_10>
 8005bd0:	f507 72fe 	add.w	r2, r7, #508	; 0x1fc
 8005bd4:	f107 0314 	add.w	r3, r7, #20
 8005bd8:	4611      	mov	r1, r2
 8005bda:	4618      	mov	r0, r3
 8005bdc:	f7fd fa32 	bl	8003044 <sp_256_cmp_10>
 8005be0:	4603      	mov	r3, r0
 8005be2:	2b00      	cmp	r3, #0
 8005be4:	bf0c      	ite	eq
 8005be6:	2301      	moveq	r3, #1
 8005be8:	2300      	movne	r3, #0
 8005bea:	b2db      	uxtb	r3, r3
 8005bec:	461a      	mov	r2, r3
 8005bee:	f8d7 34b4 	ldr.w	r3, [r7, #1204]	; 0x4b4
 8005bf2:	601a      	str	r2, [r3, #0]
 8005bf4:	f8d7 34b4 	ldr.w	r3, [r7, #1204]	; 0x4b4
 8005bf8:	681b      	ldr	r3, [r3, #0]
 8005bfa:	2b00      	cmp	r3, #0
 8005bfc:	d11e      	bne.n	8005c3c <sp_ecc_verify_256+0x1e4>
 8005bfe:	f8d7 24ac 	ldr.w	r2, [r7, #1196]	; 0x4ac
 8005c02:	210a      	movs	r1, #10
 8005c04:	f8d7 0494 	ldr.w	r0, [r7, #1172]	; 0x494
 8005c08:	f7fd f8d6 	bl	8002db8 <sp_256_from_mp>
 8005c0c:	4a2a      	ldr	r2, [pc, #168]	; (8005cb8 <sp_ecc_verify_256+0x260>)
 8005c0e:	f8d7 1494 	ldr.w	r1, [r7, #1172]	; 0x494
 8005c12:	f8d7 0494 	ldr.w	r0, [r7, #1172]	; 0x494
 8005c16:	f7fd f885 	bl	8002d24 <sp_256_add_10>
 8005c1a:	f8c7 047c 	str.w	r0, [r7, #1148]	; 0x47c
 8005c1e:	f8d7 347c 	ldr.w	r3, [r7, #1148]	; 0x47c
 8005c22:	2b00      	cmp	r3, #0
 8005c24:	d10a      	bne.n	8005c3c <sp_ecc_verify_256+0x1e4>
 8005c26:	f8d7 0494 	ldr.w	r0, [r7, #1172]	; 0x494
 8005c2a:	f7fd fac4 	bl	80031b6 <sp_256_norm_10>
 8005c2e:	4921      	ldr	r1, [pc, #132]	; (8005cb4 <sp_ecc_verify_256+0x25c>)
 8005c30:	f8d7 0494 	ldr.w	r0, [r7, #1172]	; 0x494
 8005c34:	f7fd fa06 	bl	8003044 <sp_256_cmp_10>
 8005c38:	f8c7 0490 	str.w	r0, [r7, #1168]	; 0x490
 8005c3c:	f8d7 34b4 	ldr.w	r3, [r7, #1204]	; 0x4b4
 8005c40:	681b      	ldr	r3, [r3, #0]
 8005c42:	2b00      	cmp	r3, #0
 8005c44:	d12f      	bne.n	8005ca6 <sp_ecc_verify_256+0x24e>
 8005c46:	f8d7 3490 	ldr.w	r3, [r7, #1168]	; 0x490
 8005c4a:	2b00      	cmp	r3, #0
 8005c4c:	da2b      	bge.n	8005ca6 <sp_ecc_verify_256+0x24e>
 8005c4e:	4a19      	ldr	r2, [pc, #100]	; (8005cb4 <sp_ecc_verify_256+0x25c>)
 8005c50:	f8d7 1494 	ldr.w	r1, [r7, #1172]	; 0x494
 8005c54:	f8d7 0494 	ldr.w	r0, [r7, #1172]	; 0x494
 8005c58:	f7fe f8c0 	bl	8003ddc <sp_256_mod_mul_norm_10>
 8005c5c:	f8c7 048c 	str.w	r0, [r7, #1164]	; 0x48c
 8005c60:	f8d7 348c 	ldr.w	r3, [r7, #1164]	; 0x48c
 8005c64:	2b00      	cmp	r3, #0
 8005c66:	d11e      	bne.n	8005ca6 <sp_ecc_verify_256+0x24e>
 8005c68:	2101      	movs	r1, #1
 8005c6a:	f107 0314 	add.w	r3, r7, #20
 8005c6e:	f103 02a0 	add.w	r2, r3, #160	; 0xa0
 8005c72:	f507 70fe 	add.w	r0, r7, #508	; 0x1fc
 8005c76:	9100      	str	r1, [sp, #0]
 8005c78:	4b0e      	ldr	r3, [pc, #56]	; (8005cb4 <sp_ecc_verify_256+0x25c>)
 8005c7a:	f8d7 1494 	ldr.w	r1, [r7, #1172]	; 0x494
 8005c7e:	f7fd fbfb 	bl	8003478 <sp_256_mont_mul_10>
 8005c82:	f507 72fe 	add.w	r2, r7, #508	; 0x1fc
 8005c86:	f107 0314 	add.w	r3, r7, #20
 8005c8a:	4611      	mov	r1, r2
 8005c8c:	4618      	mov	r0, r3
 8005c8e:	f7fd f9d9 	bl	8003044 <sp_256_cmp_10>
 8005c92:	4603      	mov	r3, r0
 8005c94:	2b00      	cmp	r3, #0
 8005c96:	bf0c      	ite	eq
 8005c98:	2301      	moveq	r3, #1
 8005c9a:	2300      	movne	r3, #0
 8005c9c:	b2db      	uxtb	r3, r3
 8005c9e:	461a      	mov	r2, r3
 8005ca0:	f8d7 34b4 	ldr.w	r3, [r7, #1204]	; 0x4b4
 8005ca4:	601a      	str	r2, [r3, #0]
 8005ca6:	f8d7 348c 	ldr.w	r3, [r7, #1164]	; 0x48c
 8005caa:	4618      	mov	r0, r3
 8005cac:	f207 479c 	addw	r7, r7, #1180	; 0x49c
 8005cb0:	46bd      	mov	sp, r7
 8005cb2:	bd90      	pop	{r4, r7, pc}
 8005cb4:	08006bb4 	.word	0x08006bb4
 8005cb8:	08006c04 	.word	0x08006c04

08005cbc <wc_ecc_curve_cache_free_spec_item>:
 8005cbc:	b580      	push	{r7, lr}
 8005cbe:	b084      	sub	sp, #16
 8005cc0:	af00      	add	r7, sp, #0
 8005cc2:	60f8      	str	r0, [r7, #12]
 8005cc4:	60b9      	str	r1, [r7, #8]
 8005cc6:	4613      	mov	r3, r2
 8005cc8:	71fb      	strb	r3, [r7, #7]
 8005cca:	68bb      	ldr	r3, [r7, #8]
 8005ccc:	2b00      	cmp	r3, #0
 8005cce:	d002      	beq.n	8005cd6 <wc_ecc_curve_cache_free_spec_item+0x1a>
 8005cd0:	68b8      	ldr	r0, [r7, #8]
 8005cd2:	f7fc fbd3 	bl	800247c <sp_clear>
 8005cd6:	68fb      	ldr	r3, [r7, #12]
 8005cd8:	f893 3024 	ldrb.w	r3, [r3, #36]	; 0x24
 8005cdc:	b25a      	sxtb	r2, r3
 8005cde:	f997 3007 	ldrsb.w	r3, [r7, #7]
 8005ce2:	43db      	mvns	r3, r3
 8005ce4:	b25b      	sxtb	r3, r3
 8005ce6:	4013      	ands	r3, r2
 8005ce8:	b25b      	sxtb	r3, r3
 8005cea:	b2da      	uxtb	r2, r3
 8005cec:	68fb      	ldr	r3, [r7, #12]
 8005cee:	f883 2024 	strb.w	r2, [r3, #36]	; 0x24
 8005cf2:	bf00      	nop
 8005cf4:	3710      	adds	r7, #16
 8005cf6:	46bd      	mov	sp, r7
 8005cf8:	bd80      	pop	{r7, pc}

08005cfa <wc_ecc_curve_cache_free_spec>:
 8005cfa:	b580      	push	{r7, lr}
 8005cfc:	b082      	sub	sp, #8
 8005cfe:	af00      	add	r7, sp, #0
 8005d00:	6078      	str	r0, [r7, #4]
 8005d02:	687b      	ldr	r3, [r7, #4]
 8005d04:	2b00      	cmp	r3, #0
 8005d06:	d04a      	beq.n	8005d9e <wc_ecc_curve_cache_free_spec+0xa4>
 8005d08:	687b      	ldr	r3, [r7, #4]
 8005d0a:	f893 3024 	ldrb.w	r3, [r3, #36]	; 0x24
 8005d0e:	f003 0301 	and.w	r3, r3, #1
 8005d12:	2b00      	cmp	r3, #0
 8005d14:	d006      	beq.n	8005d24 <wc_ecc_curve_cache_free_spec+0x2a>
 8005d16:	687b      	ldr	r3, [r7, #4]
 8005d18:	685b      	ldr	r3, [r3, #4]
 8005d1a:	2201      	movs	r2, #1
 8005d1c:	4619      	mov	r1, r3
 8005d1e:	6878      	ldr	r0, [r7, #4]
 8005d20:	f7ff ffcc 	bl	8005cbc <wc_ecc_curve_cache_free_spec_item>
 8005d24:	687b      	ldr	r3, [r7, #4]
 8005d26:	f893 3024 	ldrb.w	r3, [r3, #36]	; 0x24
 8005d2a:	f003 0302 	and.w	r3, r3, #2
 8005d2e:	2b00      	cmp	r3, #0
 8005d30:	d006      	beq.n	8005d40 <wc_ecc_curve_cache_free_spec+0x46>
 8005d32:	687b      	ldr	r3, [r7, #4]
 8005d34:	689b      	ldr	r3, [r3, #8]
 8005d36:	2202      	movs	r2, #2
 8005d38:	4619      	mov	r1, r3
 8005d3a:	6878      	ldr	r0, [r7, #4]
 8005d3c:	f7ff ffbe 	bl	8005cbc <wc_ecc_curve_cache_free_spec_item>
 8005d40:	687b      	ldr	r3, [r7, #4]
 8005d42:	f893 3024 	ldrb.w	r3, [r3, #36]	; 0x24
 8005d46:	f003 0308 	and.w	r3, r3, #8
 8005d4a:	2b00      	cmp	r3, #0
 8005d4c:	d006      	beq.n	8005d5c <wc_ecc_curve_cache_free_spec+0x62>
 8005d4e:	687b      	ldr	r3, [r7, #4]
 8005d50:	68db      	ldr	r3, [r3, #12]
 8005d52:	2208      	movs	r2, #8
 8005d54:	4619      	mov	r1, r3
 8005d56:	6878      	ldr	r0, [r7, #4]
 8005d58:	f7ff ffb0 	bl	8005cbc <wc_ecc_curve_cache_free_spec_item>
 8005d5c:	687b      	ldr	r3, [r7, #4]
 8005d5e:	f893 3024 	ldrb.w	r3, [r3, #36]	; 0x24
 8005d62:	f003 0310 	and.w	r3, r3, #16
 8005d66:	2b00      	cmp	r3, #0
 8005d68:	d006      	beq.n	8005d78 <wc_ecc_curve_cache_free_spec+0x7e>
 8005d6a:	687b      	ldr	r3, [r7, #4]
 8005d6c:	691b      	ldr	r3, [r3, #16]
 8005d6e:	2210      	movs	r2, #16
 8005d70:	4619      	mov	r1, r3
 8005d72:	6878      	ldr	r0, [r7, #4]
 8005d74:	f7ff ffa2 	bl	8005cbc <wc_ecc_curve_cache_free_spec_item>
 8005d78:	687b      	ldr	r3, [r7, #4]
 8005d7a:	f893 3024 	ldrb.w	r3, [r3, #36]	; 0x24
 8005d7e:	f003 0320 	and.w	r3, r3, #32
 8005d82:	2b00      	cmp	r3, #0
 8005d84:	d006      	beq.n	8005d94 <wc_ecc_curve_cache_free_spec+0x9a>
 8005d86:	687b      	ldr	r3, [r7, #4]
 8005d88:	695b      	ldr	r3, [r3, #20]
 8005d8a:	2220      	movs	r2, #32
 8005d8c:	4619      	mov	r1, r3
 8005d8e:	6878      	ldr	r0, [r7, #4]
 8005d90:	f7ff ff94 	bl	8005cbc <wc_ecc_curve_cache_free_spec_item>
 8005d94:	687b      	ldr	r3, [r7, #4]
 8005d96:	2200      	movs	r2, #0
 8005d98:	f883 2024 	strb.w	r2, [r3, #36]	; 0x24
 8005d9c:	e000      	b.n	8005da0 <wc_ecc_curve_cache_free_spec+0xa6>
 8005d9e:	bf00      	nop
 8005da0:	3708      	adds	r7, #8
 8005da2:	46bd      	mov	sp, r7
 8005da4:	bd80      	pop	{r7, pc}

08005da6 <wc_ecc_curve_free>:
 8005da6:	b580      	push	{r7, lr}
 8005da8:	b082      	sub	sp, #8
 8005daa:	af00      	add	r7, sp, #0
 8005dac:	6078      	str	r0, [r7, #4]
 8005dae:	687b      	ldr	r3, [r7, #4]
 8005db0:	2b00      	cmp	r3, #0
 8005db2:	d002      	beq.n	8005dba <wc_ecc_curve_free+0x14>
 8005db4:	6878      	ldr	r0, [r7, #4]
 8005db6:	f7ff ffa0 	bl	8005cfa <wc_ecc_curve_cache_free_spec>
 8005dba:	bf00      	nop
 8005dbc:	3708      	adds	r7, #8
 8005dbe:	46bd      	mov	sp, r7
 8005dc0:	bd80      	pop	{r7, pc}

08005dc2 <wc_ecc_curve_cache_load_item>:
 8005dc2:	b580      	push	{r7, lr}
 8005dc4:	b086      	sub	sp, #24
 8005dc6:	af00      	add	r7, sp, #0
 8005dc8:	60f8      	str	r0, [r7, #12]
 8005dca:	60b9      	str	r1, [r7, #8]
 8005dcc:	607a      	str	r2, [r7, #4]
 8005dce:	70fb      	strb	r3, [r7, #3]
 8005dd0:	68fb      	ldr	r3, [r7, #12]
 8005dd2:	6a1a      	ldr	r2, [r3, #32]
 8005dd4:	68fb      	ldr	r3, [r7, #12]
 8005dd6:	69db      	ldr	r3, [r3, #28]
 8005dd8:	429a      	cmp	r2, r3
 8005dda:	d302      	bcc.n	8005de2 <wc_ecc_curve_cache_load_item+0x20>
 8005ddc:	f06f 03a9 	mvn.w	r3, #169	; 0xa9
 8005de0:	e028      	b.n	8005e34 <wc_ecc_curve_cache_load_item+0x72>
 8005de2:	68fb      	ldr	r3, [r7, #12]
 8005de4:	6999      	ldr	r1, [r3, #24]
 8005de6:	68fb      	ldr	r3, [r7, #12]
 8005de8:	6a1a      	ldr	r2, [r3, #32]
 8005dea:	1c50      	adds	r0, r2, #1
 8005dec:	68fb      	ldr	r3, [r7, #12]
 8005dee:	6218      	str	r0, [r3, #32]
 8005df0:	4613      	mov	r3, r2
 8005df2:	009b      	lsls	r3, r3, #2
 8005df4:	4413      	add	r3, r2
 8005df6:	011b      	lsls	r3, r3, #4
 8005df8:	18ca      	adds	r2, r1, r3
 8005dfa:	687b      	ldr	r3, [r7, #4]
 8005dfc:	601a      	str	r2, [r3, #0]
 8005dfe:	687b      	ldr	r3, [r7, #4]
 8005e00:	681b      	ldr	r3, [r3, #0]
 8005e02:	4618      	mov	r0, r3
 8005e04:	f7fc fa9a 	bl	800233c <sp_init>
 8005e08:	6178      	str	r0, [r7, #20]
 8005e0a:	697b      	ldr	r3, [r7, #20]
 8005e0c:	2b00      	cmp	r3, #0
 8005e0e:	d110      	bne.n	8005e32 <wc_ecc_curve_cache_load_item+0x70>
 8005e10:	68fb      	ldr	r3, [r7, #12]
 8005e12:	f893 2024 	ldrb.w	r2, [r3, #36]	; 0x24
 8005e16:	78fb      	ldrb	r3, [r7, #3]
 8005e18:	4313      	orrs	r3, r2
 8005e1a:	b2da      	uxtb	r2, r3
 8005e1c:	68fb      	ldr	r3, [r7, #12]
 8005e1e:	f883 2024 	strb.w	r2, [r3, #36]	; 0x24
 8005e22:	687b      	ldr	r3, [r7, #4]
 8005e24:	681b      	ldr	r3, [r3, #0]
 8005e26:	2210      	movs	r2, #16
 8005e28:	68b9      	ldr	r1, [r7, #8]
 8005e2a:	4618      	mov	r0, r3
 8005e2c:	f7fc fd60 	bl	80028f0 <sp_read_radix>
 8005e30:	6178      	str	r0, [r7, #20]
 8005e32:	697b      	ldr	r3, [r7, #20]
 8005e34:	4618      	mov	r0, r3
 8005e36:	3718      	adds	r7, #24
 8005e38:	46bd      	mov	sp, r7
 8005e3a:	bd80      	pop	{r7, pc}

08005e3c <wc_ecc_curve_load>:
 8005e3c:	b580      	push	{r7, lr}
 8005e3e:	b088      	sub	sp, #32
 8005e40:	af00      	add	r7, sp, #0
 8005e42:	60f8      	str	r0, [r7, #12]
 8005e44:	60b9      	str	r1, [r7, #8]
 8005e46:	4613      	mov	r3, r2
 8005e48:	71fb      	strb	r3, [r7, #7]
 8005e4a:	2300      	movs	r3, #0
 8005e4c:	61fb      	str	r3, [r7, #28]
 8005e4e:	2300      	movs	r3, #0
 8005e50:	76fb      	strb	r3, [r7, #27]
 8005e52:	68fb      	ldr	r3, [r7, #12]
 8005e54:	2b00      	cmp	r3, #0
 8005e56:	d002      	beq.n	8005e5e <wc_ecc_curve_load+0x22>
 8005e58:	68bb      	ldr	r3, [r7, #8]
 8005e5a:	2b00      	cmp	r3, #0
 8005e5c:	d102      	bne.n	8005e64 <wc_ecc_curve_load+0x28>
 8005e5e:	f06f 03ac 	mvn.w	r3, #172	; 0xac
 8005e62:	e082      	b.n	8005f6a <wc_ecc_curve_load+0x12e>
 8005e64:	68bb      	ldr	r3, [r7, #8]
 8005e66:	681b      	ldr	r3, [r3, #0]
 8005e68:	617b      	str	r3, [r7, #20]
 8005e6a:	697b      	ldr	r3, [r7, #20]
 8005e6c:	681b      	ldr	r3, [r3, #0]
 8005e6e:	68fa      	ldr	r2, [r7, #12]
 8005e70:	429a      	cmp	r2, r3
 8005e72:	d003      	beq.n	8005e7c <wc_ecc_curve_load+0x40>
 8005e74:	697b      	ldr	r3, [r7, #20]
 8005e76:	2200      	movs	r2, #0
 8005e78:	f883 2024 	strb.w	r2, [r3, #36]	; 0x24
 8005e7c:	697b      	ldr	r3, [r7, #20]
 8005e7e:	68fa      	ldr	r2, [r7, #12]
 8005e80:	601a      	str	r2, [r3, #0]
 8005e82:	697b      	ldr	r3, [r7, #20]
 8005e84:	f893 3024 	ldrb.w	r3, [r3, #36]	; 0x24
 8005e88:	43db      	mvns	r3, r3
 8005e8a:	b2da      	uxtb	r2, r3
 8005e8c:	79fb      	ldrb	r3, [r7, #7]
 8005e8e:	4013      	ands	r3, r2
 8005e90:	76fb      	strb	r3, [r7, #27]
 8005e92:	697b      	ldr	r3, [r7, #20]
 8005e94:	f893 2024 	ldrb.w	r2, [r3, #36]	; 0x24
 8005e98:	7efb      	ldrb	r3, [r7, #27]
 8005e9a:	4313      	orrs	r3, r2
 8005e9c:	b2da      	uxtb	r2, r3
 8005e9e:	697b      	ldr	r3, [r7, #20]
 8005ea0:	f883 2024 	strb.w	r2, [r3, #36]	; 0x24
 8005ea4:	7efb      	ldrb	r3, [r7, #27]
 8005ea6:	f003 0301 	and.w	r3, r3, #1
 8005eaa:	2b00      	cmp	r3, #0
 8005eac:	d00b      	beq.n	8005ec6 <wc_ecc_curve_load+0x8a>
 8005eae:	68fb      	ldr	r3, [r7, #12]
 8005eb0:	68d9      	ldr	r1, [r3, #12]
 8005eb2:	697b      	ldr	r3, [r7, #20]
 8005eb4:	1d1a      	adds	r2, r3, #4
 8005eb6:	2301      	movs	r3, #1
 8005eb8:	6978      	ldr	r0, [r7, #20]
 8005eba:	f7ff ff82 	bl	8005dc2 <wc_ecc_curve_cache_load_item>
 8005ebe:	4602      	mov	r2, r0
 8005ec0:	69fb      	ldr	r3, [r7, #28]
 8005ec2:	4413      	add	r3, r2
 8005ec4:	61fb      	str	r3, [r7, #28]
 8005ec6:	7efb      	ldrb	r3, [r7, #27]
 8005ec8:	f003 0302 	and.w	r3, r3, #2
 8005ecc:	2b00      	cmp	r3, #0
 8005ece:	d00c      	beq.n	8005eea <wc_ecc_curve_load+0xae>
 8005ed0:	68fb      	ldr	r3, [r7, #12]
 8005ed2:	6919      	ldr	r1, [r3, #16]
 8005ed4:	697b      	ldr	r3, [r7, #20]
 8005ed6:	f103 0208 	add.w	r2, r3, #8
 8005eda:	2302      	movs	r3, #2
 8005edc:	6978      	ldr	r0, [r7, #20]
 8005ede:	f7ff ff70 	bl	8005dc2 <wc_ecc_curve_cache_load_item>
 8005ee2:	4602      	mov	r2, r0
 8005ee4:	69fb      	ldr	r3, [r7, #28]
 8005ee6:	4413      	add	r3, r2
 8005ee8:	61fb      	str	r3, [r7, #28]
 8005eea:	7efb      	ldrb	r3, [r7, #27]
 8005eec:	f003 0308 	and.w	r3, r3, #8
 8005ef0:	2b00      	cmp	r3, #0
 8005ef2:	d00c      	beq.n	8005f0e <wc_ecc_curve_load+0xd2>
 8005ef4:	68fb      	ldr	r3, [r7, #12]
 8005ef6:	6999      	ldr	r1, [r3, #24]
 8005ef8:	697b      	ldr	r3, [r7, #20]
 8005efa:	f103 020c 	add.w	r2, r3, #12
 8005efe:	2308      	movs	r3, #8
 8005f00:	6978      	ldr	r0, [r7, #20]
 8005f02:	f7ff ff5e 	bl	8005dc2 <wc_ecc_curve_cache_load_item>
 8005f06:	4602      	mov	r2, r0
 8005f08:	69fb      	ldr	r3, [r7, #28]
 8005f0a:	4413      	add	r3, r2
 8005f0c:	61fb      	str	r3, [r7, #28]
 8005f0e:	7efb      	ldrb	r3, [r7, #27]
 8005f10:	f003 0310 	and.w	r3, r3, #16
 8005f14:	2b00      	cmp	r3, #0
 8005f16:	d00c      	beq.n	8005f32 <wc_ecc_curve_load+0xf6>
 8005f18:	68fb      	ldr	r3, [r7, #12]
 8005f1a:	69d9      	ldr	r1, [r3, #28]
 8005f1c:	697b      	ldr	r3, [r7, #20]
 8005f1e:	f103 0210 	add.w	r2, r3, #16
 8005f22:	2310      	movs	r3, #16
 8005f24:	6978      	ldr	r0, [r7, #20]
 8005f26:	f7ff ff4c 	bl	8005dc2 <wc_ecc_curve_cache_load_item>
 8005f2a:	4602      	mov	r2, r0
 8005f2c:	69fb      	ldr	r3, [r7, #28]
 8005f2e:	4413      	add	r3, r2
 8005f30:	61fb      	str	r3, [r7, #28]
 8005f32:	7efb      	ldrb	r3, [r7, #27]
 8005f34:	f003 0320 	and.w	r3, r3, #32
 8005f38:	2b00      	cmp	r3, #0
 8005f3a:	d00c      	beq.n	8005f56 <wc_ecc_curve_load+0x11a>
 8005f3c:	68fb      	ldr	r3, [r7, #12]
 8005f3e:	6a19      	ldr	r1, [r3, #32]
 8005f40:	697b      	ldr	r3, [r7, #20]
 8005f42:	f103 0214 	add.w	r2, r3, #20
 8005f46:	2320      	movs	r3, #32
 8005f48:	6978      	ldr	r0, [r7, #20]
 8005f4a:	f7ff ff3a 	bl	8005dc2 <wc_ecc_curve_cache_load_item>
 8005f4e:	4602      	mov	r2, r0
 8005f50:	69fb      	ldr	r3, [r7, #28]
 8005f52:	4413      	add	r3, r2
 8005f54:	61fb      	str	r3, [r7, #28]
 8005f56:	69fb      	ldr	r3, [r7, #28]
 8005f58:	2b00      	cmp	r3, #0
 8005f5a:	d005      	beq.n	8005f68 <wc_ecc_curve_load+0x12c>
 8005f5c:	6978      	ldr	r0, [r7, #20]
 8005f5e:	f7ff ff22 	bl	8005da6 <wc_ecc_curve_free>
 8005f62:	f06f 036e 	mvn.w	r3, #110	; 0x6e
 8005f66:	61fb      	str	r3, [r7, #28]
 8005f68:	69fb      	ldr	r3, [r7, #28]
 8005f6a:	4618      	mov	r0, r3
 8005f6c:	3720      	adds	r7, #32
 8005f6e:	46bd      	mov	sp, r7
 8005f70:	bd80      	pop	{r7, pc}
	...

08005f74 <wc_ecc_set_curve>:
 8005f74:	b480      	push	{r7}
 8005f76:	b087      	sub	sp, #28
 8005f78:	af00      	add	r7, sp, #0
 8005f7a:	60f8      	str	r0, [r7, #12]
 8005f7c:	60b9      	str	r1, [r7, #8]
 8005f7e:	607a      	str	r2, [r7, #4]
 8005f80:	68bb      	ldr	r3, [r7, #8]
 8005f82:	2b00      	cmp	r3, #0
 8005f84:	dc05      	bgt.n	8005f92 <wc_ecc_set_curve+0x1e>
 8005f86:	687b      	ldr	r3, [r7, #4]
 8005f88:	2b00      	cmp	r3, #0
 8005f8a:	da02      	bge.n	8005f92 <wc_ecc_set_curve+0x1e>
 8005f8c:	f06f 03ac 	mvn.w	r3, #172	; 0xac
 8005f90:	e052      	b.n	8006038 <wc_ecc_set_curve+0xc4>
 8005f92:	68bb      	ldr	r3, [r7, #8]
 8005f94:	2b42      	cmp	r3, #66	; 0x42
 8005f96:	dd02      	ble.n	8005f9e <wc_ecc_set_curve+0x2a>
 8005f98:	f06f 03a9 	mvn.w	r3, #169	; 0xa9
 8005f9c:	e04c      	b.n	8006038 <wc_ecc_set_curve+0xc4>
 8005f9e:	68fb      	ldr	r3, [r7, #12]
 8005fa0:	685b      	ldr	r3, [r3, #4]
 8005fa2:	f1b3 3fff 	cmp.w	r3, #4294967295	; 0xffffffff
 8005fa6:	d046      	beq.n	8006036 <wc_ecc_set_curve+0xc2>
 8005fa8:	68fb      	ldr	r3, [r7, #12]
 8005faa:	2200      	movs	r2, #0
 8005fac:	605a      	str	r2, [r3, #4]
 8005fae:	68fb      	ldr	r3, [r7, #12]
 8005fb0:	2200      	movs	r2, #0
 8005fb2:	611a      	str	r2, [r3, #16]
 8005fb4:	2300      	movs	r3, #0
 8005fb6:	617b      	str	r3, [r7, #20]
 8005fb8:	e01b      	b.n	8005ff2 <wc_ecc_set_curve+0x7e>
 8005fba:	687b      	ldr	r3, [r7, #4]
 8005fbc:	2b00      	cmp	r3, #0
 8005fbe:	dd0b      	ble.n	8005fd8 <wc_ecc_set_curve+0x64>
 8005fc0:	4a20      	ldr	r2, [pc, #128]	; (8006044 <wc_ecc_set_curve+0xd0>)
 8005fc2:	697b      	ldr	r3, [r7, #20]
 8005fc4:	2134      	movs	r1, #52	; 0x34
 8005fc6:	fb01 f303 	mul.w	r3, r1, r3
 8005fca:	4413      	add	r3, r2
 8005fcc:	3304      	adds	r3, #4
 8005fce:	681b      	ldr	r3, [r3, #0]
 8005fd0:	687a      	ldr	r2, [r7, #4]
 8005fd2:	429a      	cmp	r2, r3
 8005fd4:	d10a      	bne.n	8005fec <wc_ecc_set_curve+0x78>
 8005fd6:	e017      	b.n	8006008 <wc_ecc_set_curve+0x94>
 8005fd8:	4a1a      	ldr	r2, [pc, #104]	; (8006044 <wc_ecc_set_curve+0xd0>)
 8005fda:	697b      	ldr	r3, [r7, #20]
 8005fdc:	2134      	movs	r1, #52	; 0x34
 8005fde:	fb01 f303 	mul.w	r3, r1, r3
 8005fe2:	4413      	add	r3, r2
 8005fe4:	681b      	ldr	r3, [r3, #0]
 8005fe6:	68ba      	ldr	r2, [r7, #8]
 8005fe8:	429a      	cmp	r2, r3
 8005fea:	dd0c      	ble.n	8006006 <wc_ecc_set_curve+0x92>
 8005fec:	697b      	ldr	r3, [r7, #20]
 8005fee:	3301      	adds	r3, #1
 8005ff0:	617b      	str	r3, [r7, #20]
 8005ff2:	4a14      	ldr	r2, [pc, #80]	; (8006044 <wc_ecc_set_curve+0xd0>)
 8005ff4:	697b      	ldr	r3, [r7, #20]
 8005ff6:	2134      	movs	r1, #52	; 0x34
 8005ff8:	fb01 f303 	mul.w	r3, r1, r3
 8005ffc:	4413      	add	r3, r2
 8005ffe:	681b      	ldr	r3, [r3, #0]
 8006000:	2b00      	cmp	r3, #0
 8006002:	d1da      	bne.n	8005fba <wc_ecc_set_curve+0x46>
 8006004:	e000      	b.n	8006008 <wc_ecc_set_curve+0x94>
 8006006:	bf00      	nop
 8006008:	4a0e      	ldr	r2, [pc, #56]	; (8006044 <wc_ecc_set_curve+0xd0>)
 800600a:	697b      	ldr	r3, [r7, #20]
 800600c:	2134      	movs	r1, #52	; 0x34
 800600e:	fb01 f303 	mul.w	r3, r1, r3
 8006012:	4413      	add	r3, r2
 8006014:	681b      	ldr	r3, [r3, #0]
 8006016:	2b00      	cmp	r3, #0
 8006018:	d102      	bne.n	8006020 <wc_ecc_set_curve+0xac>
 800601a:	f06f 03ab 	mvn.w	r3, #171	; 0xab
 800601e:	e00b      	b.n	8006038 <wc_ecc_set_curve+0xc4>
 8006020:	68fb      	ldr	r3, [r7, #12]
 8006022:	697a      	ldr	r2, [r7, #20]
 8006024:	605a      	str	r2, [r3, #4]
 8006026:	697b      	ldr	r3, [r7, #20]
 8006028:	2234      	movs	r2, #52	; 0x34
 800602a:	fb02 f303 	mul.w	r3, r2, r3
 800602e:	4a05      	ldr	r2, [pc, #20]	; (8006044 <wc_ecc_set_curve+0xd0>)
 8006030:	441a      	add	r2, r3
 8006032:	68fb      	ldr	r3, [r7, #12]
 8006034:	611a      	str	r2, [r3, #16]
 8006036:	2300      	movs	r3, #0
 8006038:	4618      	mov	r0, r3
 800603a:	371c      	adds	r7, #28
 800603c:	46bd      	mov	sp, r7
 800603e:	bc80      	pop	{r7}
 8006040:	4770      	bx	lr
 8006042:	bf00      	nop
 8006044:	08006f34 	.word	0x08006f34

08006048 <wc_ecc_is_valid_idx>:
 8006048:	b480      	push	{r7}
 800604a:	b085      	sub	sp, #20
 800604c:	af00      	add	r7, sp, #0
 800604e:	6078      	str	r0, [r7, #4]
 8006050:	2300      	movs	r3, #0
 8006052:	60fb      	str	r3, [r7, #12]
 8006054:	e002      	b.n	800605c <wc_ecc_is_valid_idx+0x14>
 8006056:	68fb      	ldr	r3, [r7, #12]
 8006058:	3301      	adds	r3, #1
 800605a:	60fb      	str	r3, [r7, #12]
 800605c:	4a0c      	ldr	r2, [pc, #48]	; (8006090 <wc_ecc_is_valid_idx+0x48>)
 800605e:	68fb      	ldr	r3, [r7, #12]
 8006060:	2134      	movs	r1, #52	; 0x34
 8006062:	fb01 f303 	mul.w	r3, r1, r3
 8006066:	4413      	add	r3, r2
 8006068:	681b      	ldr	r3, [r3, #0]
 800606a:	2b00      	cmp	r3, #0
 800606c:	d1f3      	bne.n	8006056 <wc_ecc_is_valid_idx+0xe>
 800606e:	687b      	ldr	r3, [r7, #4]
 8006070:	f1b3 3fff 	cmp.w	r3, #4294967295	; 0xffffffff
 8006074:	db05      	blt.n	8006082 <wc_ecc_is_valid_idx+0x3a>
 8006076:	687a      	ldr	r2, [r7, #4]
 8006078:	68fb      	ldr	r3, [r7, #12]
 800607a:	429a      	cmp	r2, r3
 800607c:	da01      	bge.n	8006082 <wc_ecc_is_valid_idx+0x3a>
 800607e:	2301      	movs	r3, #1
 8006080:	e000      	b.n	8006084 <wc_ecc_is_valid_idx+0x3c>
 8006082:	2300      	movs	r3, #0
 8006084:	4618      	mov	r0, r3
 8006086:	3714      	adds	r7, #20
 8006088:	46bd      	mov	sp, r7
 800608a:	bc80      	pop	{r7}
 800608c:	4770      	bx	lr
 800608e:	bf00      	nop
 8006090:	08006f34 	.word	0x08006f34

08006094 <wc_ecc_reset>:
 8006094:	b480      	push	{r7}
 8006096:	b083      	sub	sp, #12
 8006098:	af00      	add	r7, sp, #0
 800609a:	6078      	str	r0, [r7, #4]
 800609c:	687b      	ldr	r3, [r7, #4]
 800609e:	2200      	movs	r2, #0
 80060a0:	609a      	str	r2, [r3, #8]
 80060a2:	bf00      	nop
 80060a4:	370c      	adds	r7, #12
 80060a6:	46bd      	mov	sp, r7
 80060a8:	bc80      	pop	{r7}
 80060aa:	4770      	bx	lr

080060ac <ecc_make_pub_ex>:
 80060ac:	b590      	push	{r4, r7, lr}
 80060ae:	b0f9      	sub	sp, #484	; 0x1e4
 80060b0:	af02      	add	r7, sp, #8
 80060b2:	f107 040c 	add.w	r4, r7, #12
 80060b6:	6020      	str	r0, [r4, #0]
 80060b8:	f107 0008 	add.w	r0, r7, #8
 80060bc:	6001      	str	r1, [r0, #0]
 80060be:	1d39      	adds	r1, r7, #4
 80060c0:	600a      	str	r2, [r1, #0]
 80060c2:	463a      	mov	r2, r7
 80060c4:	6013      	str	r3, [r2, #0]
 80060c6:	2300      	movs	r3, #0
 80060c8:	f8c7 31d4 	str.w	r3, [r7, #468]	; 0x1d4
 80060cc:	f107 0314 	add.w	r3, r7, #20
 80060d0:	f107 0218 	add.w	r2, r7, #24
 80060d4:	601a      	str	r2, [r3, #0]
 80060d6:	f107 0314 	add.w	r3, r7, #20
 80060da:	681b      	ldr	r3, [r3, #0]
 80060dc:	2228      	movs	r2, #40	; 0x28
 80060de:	2100      	movs	r1, #0
 80060e0:	4618      	mov	r0, r3
 80060e2:	f7fa fbee 	bl	80008c2 <memset>
 80060e6:	f107 0314 	add.w	r3, r7, #20
 80060ea:	681b      	ldr	r3, [r3, #0]
 80060ec:	f107 0240 	add.w	r2, r7, #64	; 0x40
 80060f0:	619a      	str	r2, [r3, #24]
 80060f2:	f107 0314 	add.w	r3, r7, #20
 80060f6:	681b      	ldr	r3, [r3, #0]
 80060f8:	2205      	movs	r2, #5
 80060fa:	61da      	str	r2, [r3, #28]
 80060fc:	f107 030c 	add.w	r3, r7, #12
 8006100:	681b      	ldr	r3, [r3, #0]
 8006102:	2b00      	cmp	r3, #0
 8006104:	d102      	bne.n	800610c <ecc_make_pub_ex+0x60>
 8006106:	f06f 03ac 	mvn.w	r3, #172	; 0xac
 800610a:	e0c4      	b.n	8006296 <ecc_make_pub_ex+0x1ea>
 800610c:	1d3b      	adds	r3, r7, #4
 800610e:	681b      	ldr	r3, [r3, #0]
 8006110:	2b00      	cmp	r3, #0
 8006112:	d004      	beq.n	800611e <ecc_make_pub_ex+0x72>
 8006114:	1d3b      	adds	r3, r7, #4
 8006116:	681b      	ldr	r3, [r3, #0]
 8006118:	f8c7 31d0 	str.w	r3, [r7, #464]	; 0x1d0
 800611c:	e00a      	b.n	8006134 <ecc_make_pub_ex+0x88>
 800611e:	f107 030c 	add.w	r3, r7, #12
 8006122:	681b      	ldr	r3, [r3, #0]
 8006124:	3318      	adds	r3, #24
 8006126:	f8c7 31d0 	str.w	r3, [r7, #464]	; 0x1d0
 800612a:	f107 030c 	add.w	r3, r7, #12
 800612e:	681b      	ldr	r3, [r3, #0]
 8006130:	2203      	movs	r2, #3
 8006132:	601a      	str	r2, [r3, #0]
 8006134:	f107 0308 	add.w	r3, r7, #8
 8006138:	681b      	ldr	r3, [r3, #0]
 800613a:	2b00      	cmp	r3, #0
 800613c:	d006      	beq.n	800614c <ecc_make_pub_ex+0xa0>
 800613e:	f107 0314 	add.w	r3, r7, #20
 8006142:	f107 0208 	add.w	r2, r7, #8
 8006146:	6812      	ldr	r2, [r2, #0]
 8006148:	601a      	str	r2, [r3, #0]
 800614a:	e00f      	b.n	800616c <ecc_make_pub_ex+0xc0>
 800614c:	f8d7 31d4 	ldr.w	r3, [r7, #468]	; 0x1d4
 8006150:	2b00      	cmp	r3, #0
 8006152:	d10b      	bne.n	800616c <ecc_make_pub_ex+0xc0>
 8006154:	f107 030c 	add.w	r3, r7, #12
 8006158:	681b      	ldr	r3, [r3, #0]
 800615a:	691b      	ldr	r3, [r3, #16]
 800615c:	f107 0114 	add.w	r1, r7, #20
 8006160:	223b      	movs	r2, #59	; 0x3b
 8006162:	4618      	mov	r0, r3
 8006164:	f7ff fe6a 	bl	8005e3c <wc_ecc_curve_load>
 8006168:	f8c7 01d4 	str.w	r0, [r7, #468]	; 0x1d4
 800616c:	f8d7 31d4 	ldr.w	r3, [r7, #468]	; 0x1d4
 8006170:	2b00      	cmp	r3, #0
 8006172:	d11b      	bne.n	80061ac <ecc_make_pub_ex+0x100>
 8006174:	f107 030c 	add.w	r3, r7, #12
 8006178:	681b      	ldr	r3, [r3, #0]
 800617a:	f8d3 3108 	ldr.w	r3, [r3, #264]	; 0x108
 800617e:	2b00      	cmp	r3, #0
 8006180:	d010      	beq.n	80061a4 <ecc_make_pub_ex+0xf8>
 8006182:	f107 030c 	add.w	r3, r7, #12
 8006186:	681b      	ldr	r3, [r3, #0]
 8006188:	f503 7284 	add.w	r2, r3, #264	; 0x108
 800618c:	f107 0314 	add.w	r3, r7, #20
 8006190:	681b      	ldr	r3, [r3, #0]
 8006192:	68db      	ldr	r3, [r3, #12]
 8006194:	4619      	mov	r1, r3
 8006196:	4610      	mov	r0, r2
 8006198:	f7fc f9e8 	bl	800256c <sp_cmp>
 800619c:	4603      	mov	r3, r0
 800619e:	f1b3 3fff 	cmp.w	r3, #4294967295	; 0xffffffff
 80061a2:	d003      	beq.n	80061ac <ecc_make_pub_ex+0x100>
 80061a4:	f06f 03d7 	mvn.w	r3, #215	; 0xd7
 80061a8:	f8c7 31d4 	str.w	r3, [r7, #468]	; 0x1d4
 80061ac:	f8d7 31d4 	ldr.w	r3, [r7, #468]	; 0x1d4
 80061b0:	2b00      	cmp	r3, #0
 80061b2:	d112      	bne.n	80061da <ecc_make_pub_ex+0x12e>
 80061b4:	f8d7 01d0 	ldr.w	r0, [r7, #464]	; 0x1d0
 80061b8:	f8d7 31d0 	ldr.w	r3, [r7, #464]	; 0x1d0
 80061bc:	f103 0150 	add.w	r1, r3, #80	; 0x50
 80061c0:	f8d7 31d0 	ldr.w	r3, [r7, #464]	; 0x1d0
 80061c4:	f103 02a0 	add.w	r2, r3, #160	; 0xa0
 80061c8:	2300      	movs	r3, #0
 80061ca:	9301      	str	r3, [sp, #4]
 80061cc:	2300      	movs	r3, #0
 80061ce:	9300      	str	r3, [sp, #0]
 80061d0:	2300      	movs	r3, #0
 80061d2:	f7fc f8cd 	bl	8002370 <sp_init_multi>
 80061d6:	f8c7 01d4 	str.w	r0, [r7, #468]	; 0x1d4
 80061da:	f8d7 31d4 	ldr.w	r3, [r7, #468]	; 0x1d4
 80061de:	2b00      	cmp	r3, #0
 80061e0:	d128      	bne.n	8006234 <ecc_make_pub_ex+0x188>
 80061e2:	f107 030c 	add.w	r3, r7, #12
 80061e6:	681b      	ldr	r3, [r3, #0]
 80061e8:	685b      	ldr	r3, [r3, #4]
 80061ea:	f1b3 3fff 	cmp.w	r3, #4294967295	; 0xffffffff
 80061ee:	d01d      	beq.n	800622c <ecc_make_pub_ex+0x180>
 80061f0:	f107 030c 	add.w	r3, r7, #12
 80061f4:	681b      	ldr	r3, [r3, #0]
 80061f6:	685b      	ldr	r3, [r3, #4]
 80061f8:	4a29      	ldr	r2, [pc, #164]	; (80062a0 <ecc_make_pub_ex+0x1f4>)
 80061fa:	2134      	movs	r1, #52	; 0x34
 80061fc:	fb01 f303 	mul.w	r3, r1, r3
 8006200:	4413      	add	r3, r2
 8006202:	3304      	adds	r3, #4
 8006204:	681b      	ldr	r3, [r3, #0]
 8006206:	2b07      	cmp	r3, #7
 8006208:	d110      	bne.n	800622c <ecc_make_pub_ex+0x180>
 800620a:	f107 030c 	add.w	r3, r7, #12
 800620e:	681b      	ldr	r3, [r3, #0]
 8006210:	f503 7084 	add.w	r0, r3, #264	; 0x108
 8006214:	f107 030c 	add.w	r3, r7, #12
 8006218:	681b      	ldr	r3, [r3, #0]
 800621a:	695b      	ldr	r3, [r3, #20]
 800621c:	2201      	movs	r2, #1
 800621e:	f8d7 11d0 	ldr.w	r1, [r7, #464]	; 0x1d0
 8006222:	f7fe ffc3 	bl	80051ac <sp_ecc_mulmod_base_256>
 8006226:	f8c7 01d4 	str.w	r0, [r7, #468]	; 0x1d4
 800622a:	e003      	b.n	8006234 <ecc_make_pub_ex+0x188>
 800622c:	f06f 03e9 	mvn.w	r3, #233	; 0xe9
 8006230:	f8c7 31d4 	str.w	r3, [r7, #468]	; 0x1d4
 8006234:	f8d7 31d4 	ldr.w	r3, [r7, #468]	; 0x1d4
 8006238:	2b00      	cmp	r3, #0
 800623a:	d010      	beq.n	800625e <ecc_make_pub_ex+0x1b2>
 800623c:	f8d7 31d0 	ldr.w	r3, [r7, #464]	; 0x1d0
 8006240:	4618      	mov	r0, r3
 8006242:	f7fc f91b 	bl	800247c <sp_clear>
 8006246:	f8d7 31d0 	ldr.w	r3, [r7, #464]	; 0x1d0
 800624a:	3350      	adds	r3, #80	; 0x50
 800624c:	4618      	mov	r0, r3
 800624e:	f7fc f915 	bl	800247c <sp_clear>
 8006252:	f8d7 31d0 	ldr.w	r3, [r7, #464]	; 0x1d0
 8006256:	33a0      	adds	r3, #160	; 0xa0
 8006258:	4618      	mov	r0, r3
 800625a:	f7fc f90f 	bl	800247c <sp_clear>
 800625e:	f107 0308 	add.w	r3, r7, #8
 8006262:	681b      	ldr	r3, [r3, #0]
 8006264:	2b00      	cmp	r3, #0
 8006266:	d105      	bne.n	8006274 <ecc_make_pub_ex+0x1c8>
 8006268:	f107 0314 	add.w	r3, r7, #20
 800626c:	681b      	ldr	r3, [r3, #0]
 800626e:	4618      	mov	r0, r3
 8006270:	f7ff fd99 	bl	8005da6 <wc_ecc_curve_free>
 8006274:	f107 030c 	add.w	r3, r7, #12
 8006278:	681b      	ldr	r3, [r3, #0]
 800627a:	681b      	ldr	r3, [r3, #0]
 800627c:	2b03      	cmp	r3, #3
 800627e:	d108      	bne.n	8006292 <ecc_make_pub_ex+0x1e6>
 8006280:	1d3b      	adds	r3, r7, #4
 8006282:	681b      	ldr	r3, [r3, #0]
 8006284:	2b00      	cmp	r3, #0
 8006286:	d104      	bne.n	8006292 <ecc_make_pub_ex+0x1e6>
 8006288:	f107 030c 	add.w	r3, r7, #12
 800628c:	681b      	ldr	r3, [r3, #0]
 800628e:	2202      	movs	r2, #2
 8006290:	601a      	str	r2, [r3, #0]
 8006292:	f8d7 31d4 	ldr.w	r3, [r7, #468]	; 0x1d4
 8006296:	4618      	mov	r0, r3
 8006298:	f507 77ee 	add.w	r7, r7, #476	; 0x1dc
 800629c:	46bd      	mov	sp, r7
 800629e:	bd90      	pop	{r4, r7, pc}
 80062a0:	08006f34 	.word	0x08006f34

080062a4 <wc_ecc_init_ex>:
 80062a4:	b590      	push	{r4, r7, lr}
 80062a6:	b089      	sub	sp, #36	; 0x24
 80062a8:	af02      	add	r7, sp, #8
 80062aa:	60f8      	str	r0, [r7, #12]
 80062ac:	60b9      	str	r1, [r7, #8]
 80062ae:	607a      	str	r2, [r7, #4]
 80062b0:	2300      	movs	r3, #0
 80062b2:	617b      	str	r3, [r7, #20]
 80062b4:	68fb      	ldr	r3, [r7, #12]
 80062b6:	2b00      	cmp	r3, #0
 80062b8:	d102      	bne.n	80062c0 <wc_ecc_init_ex+0x1c>
 80062ba:	f06f 03ac 	mvn.w	r3, #172	; 0xac
 80062be:	e024      	b.n	800630a <wc_ecc_init_ex+0x66>
 80062c0:	f44f 72ae 	mov.w	r2, #348	; 0x15c
 80062c4:	2100      	movs	r1, #0
 80062c6:	68f8      	ldr	r0, [r7, #12]
 80062c8:	f7fa fafb 	bl	80008c2 <memset>
 80062cc:	68fb      	ldr	r3, [r7, #12]
 80062ce:	2200      	movs	r2, #0
 80062d0:	609a      	str	r2, [r3, #8]
 80062d2:	68fb      	ldr	r3, [r7, #12]
 80062d4:	f503 7084 	add.w	r0, r3, #264	; 0x108
 80062d8:	68fb      	ldr	r3, [r7, #12]
 80062da:	f103 0118 	add.w	r1, r3, #24
 80062de:	68fb      	ldr	r3, [r7, #12]
 80062e0:	f103 0268 	add.w	r2, r3, #104	; 0x68
 80062e4:	68fb      	ldr	r3, [r7, #12]
 80062e6:	33b8      	adds	r3, #184	; 0xb8
 80062e8:	2400      	movs	r4, #0
 80062ea:	9401      	str	r4, [sp, #4]
 80062ec:	2400      	movs	r4, #0
 80062ee:	9400      	str	r4, [sp, #0]
 80062f0:	f7fc f83e 	bl	8002370 <sp_init_multi>
 80062f4:	6178      	str	r0, [r7, #20]
 80062f6:	697b      	ldr	r3, [r7, #20]
 80062f8:	2b00      	cmp	r3, #0
 80062fa:	d002      	beq.n	8006302 <wc_ecc_init_ex+0x5e>
 80062fc:	f06f 037c 	mvn.w	r3, #124	; 0x7c
 8006300:	e003      	b.n	800630a <wc_ecc_init_ex+0x66>
 8006302:	68fb      	ldr	r3, [r7, #12]
 8006304:	68ba      	ldr	r2, [r7, #8]
 8006306:	615a      	str	r2, [r3, #20]
 8006308:	697b      	ldr	r3, [r7, #20]
 800630a:	4618      	mov	r0, r3
 800630c:	371c      	adds	r7, #28
 800630e:	46bd      	mov	sp, r7
 8006310:	bd90      	pop	{r4, r7, pc}

08006312 <wc_ecc_init>:
 8006312:	b580      	push	{r7, lr}
 8006314:	b082      	sub	sp, #8
 8006316:	af00      	add	r7, sp, #0
 8006318:	6078      	str	r0, [r7, #4]
 800631a:	f06f 0201 	mvn.w	r2, #1
 800631e:	2100      	movs	r1, #0
 8006320:	6878      	ldr	r0, [r7, #4]
 8006322:	f7ff ffbf 	bl	80062a4 <wc_ecc_init_ex>
 8006326:	4603      	mov	r3, r0
 8006328:	4618      	mov	r0, r3
 800632a:	3708      	adds	r7, #8
 800632c:	46bd      	mov	sp, r7
 800632e:	bd80      	pop	{r7, pc}

08006330 <wc_ecc_check_r_s_range>:
 8006330:	b580      	push	{r7, lr}
 8006332:	b0a4      	sub	sp, #144	; 0x90
 8006334:	af00      	add	r7, sp, #0
 8006336:	60f8      	str	r0, [r7, #12]
 8006338:	60b9      	str	r1, [r7, #8]
 800633a:	607a      	str	r2, [r7, #4]
 800633c:	f107 0314 	add.w	r3, r7, #20
 8006340:	613b      	str	r3, [r7, #16]
 8006342:	693b      	ldr	r3, [r7, #16]
 8006344:	2228      	movs	r2, #40	; 0x28
 8006346:	2100      	movs	r1, #0
 8006348:	4618      	mov	r0, r3
 800634a:	f7fa faba 	bl	80008c2 <memset>
 800634e:	693b      	ldr	r3, [r7, #16]
 8006350:	f107 023c 	add.w	r2, r7, #60	; 0x3c
 8006354:	619a      	str	r2, [r3, #24]
 8006356:	693b      	ldr	r3, [r7, #16]
 8006358:	2201      	movs	r2, #1
 800635a:	61da      	str	r2, [r3, #28]
 800635c:	68fb      	ldr	r3, [r7, #12]
 800635e:	691b      	ldr	r3, [r3, #16]
 8006360:	f107 0110 	add.w	r1, r7, #16
 8006364:	2208      	movs	r2, #8
 8006366:	4618      	mov	r0, r3
 8006368:	f7ff fd68 	bl	8005e3c <wc_ecc_curve_load>
 800636c:	f8c7 008c 	str.w	r0, [r7, #140]	; 0x8c
 8006370:	f8d7 308c 	ldr.w	r3, [r7, #140]	; 0x8c
 8006374:	2b00      	cmp	r3, #0
 8006376:	d002      	beq.n	800637e <wc_ecc_check_r_s_range+0x4e>
 8006378:	f8d7 308c 	ldr.w	r3, [r7, #140]	; 0x8c
 800637c:	e035      	b.n	80063ea <wc_ecc_check_r_s_range+0xba>
 800637e:	68bb      	ldr	r3, [r7, #8]
 8006380:	681b      	ldr	r3, [r3, #0]
 8006382:	2b00      	cmp	r3, #0
 8006384:	d003      	beq.n	800638e <wc_ecc_check_r_s_range+0x5e>
 8006386:	687b      	ldr	r3, [r7, #4]
 8006388:	681b      	ldr	r3, [r3, #0]
 800638a:	2b00      	cmp	r3, #0
 800638c:	d103      	bne.n	8006396 <wc_ecc_check_r_s_range+0x66>
 800638e:	f06f 0378 	mvn.w	r3, #120	; 0x78
 8006392:	f8c7 308c 	str.w	r3, [r7, #140]	; 0x8c
 8006396:	f8d7 308c 	ldr.w	r3, [r7, #140]	; 0x8c
 800639a:	2b00      	cmp	r3, #0
 800639c:	d10d      	bne.n	80063ba <wc_ecc_check_r_s_range+0x8a>
 800639e:	693b      	ldr	r3, [r7, #16]
 80063a0:	68db      	ldr	r3, [r3, #12]
 80063a2:	4619      	mov	r1, r3
 80063a4:	68b8      	ldr	r0, [r7, #8]
 80063a6:	f7fc f8e1 	bl	800256c <sp_cmp>
 80063aa:	4603      	mov	r3, r0
 80063ac:	f1b3 3fff 	cmp.w	r3, #4294967295	; 0xffffffff
 80063b0:	d003      	beq.n	80063ba <wc_ecc_check_r_s_range+0x8a>
 80063b2:	f06f 0302 	mvn.w	r3, #2
 80063b6:	f8c7 308c 	str.w	r3, [r7, #140]	; 0x8c
 80063ba:	f8d7 308c 	ldr.w	r3, [r7, #140]	; 0x8c
 80063be:	2b00      	cmp	r3, #0
 80063c0:	d10d      	bne.n	80063de <wc_ecc_check_r_s_range+0xae>
 80063c2:	693b      	ldr	r3, [r7, #16]
 80063c4:	68db      	ldr	r3, [r3, #12]
 80063c6:	4619      	mov	r1, r3
 80063c8:	6878      	ldr	r0, [r7, #4]
 80063ca:	f7fc f8cf 	bl	800256c <sp_cmp>
 80063ce:	4603      	mov	r3, r0
 80063d0:	f1b3 3fff 	cmp.w	r3, #4294967295	; 0xffffffff
 80063d4:	d003      	beq.n	80063de <wc_ecc_check_r_s_range+0xae>
 80063d6:	f06f 0302 	mvn.w	r3, #2
 80063da:	f8c7 308c 	str.w	r3, [r7, #140]	; 0x8c
 80063de:	693b      	ldr	r3, [r7, #16]
 80063e0:	4618      	mov	r0, r3
 80063e2:	f7ff fce0 	bl	8005da6 <wc_ecc_curve_free>
 80063e6:	f8d7 308c 	ldr.w	r3, [r7, #140]	; 0x8c
 80063ea:	4618      	mov	r0, r3
 80063ec:	3790      	adds	r7, #144	; 0x90
 80063ee:	46bd      	mov	sp, r7
 80063f0:	bd80      	pop	{r7, pc}
	...

080063f4 <wc_ecc_verify_hash_ex>:
 80063f4:	b580      	push	{r7, lr}
 80063f6:	b08c      	sub	sp, #48	; 0x30
 80063f8:	af06      	add	r7, sp, #24
 80063fa:	60f8      	str	r0, [r7, #12]
 80063fc:	60b9      	str	r1, [r7, #8]
 80063fe:	607a      	str	r2, [r7, #4]
 8006400:	603b      	str	r3, [r7, #0]
 8006402:	2300      	movs	r3, #0
 8006404:	613b      	str	r3, [r7, #16]
 8006406:	68fb      	ldr	r3, [r7, #12]
 8006408:	2b00      	cmp	r3, #0
 800640a:	d00b      	beq.n	8006424 <wc_ecc_verify_hash_ex+0x30>
 800640c:	68bb      	ldr	r3, [r7, #8]
 800640e:	2b00      	cmp	r3, #0
 8006410:	d008      	beq.n	8006424 <wc_ecc_verify_hash_ex+0x30>
 8006412:	687b      	ldr	r3, [r7, #4]
 8006414:	2b00      	cmp	r3, #0
 8006416:	d005      	beq.n	8006424 <wc_ecc_verify_hash_ex+0x30>
 8006418:	6a3b      	ldr	r3, [r7, #32]
 800641a:	2b00      	cmp	r3, #0
 800641c:	d002      	beq.n	8006424 <wc_ecc_verify_hash_ex+0x30>
 800641e:	6a7b      	ldr	r3, [r7, #36]	; 0x24
 8006420:	2b00      	cmp	r3, #0
 8006422:	d102      	bne.n	800642a <wc_ecc_verify_hash_ex+0x36>
 8006424:	f06f 03a9 	mvn.w	r3, #169	; 0xa9
 8006428:	e079      	b.n	800651e <wc_ecc_verify_hash_ex+0x12a>
 800642a:	6a3b      	ldr	r3, [r7, #32]
 800642c:	2200      	movs	r2, #0
 800642e:	601a      	str	r2, [r3, #0]
 8006430:	6a7b      	ldr	r3, [r7, #36]	; 0x24
 8006432:	685b      	ldr	r3, [r3, #4]
 8006434:	4618      	mov	r0, r3
 8006436:	f7ff fe07 	bl	8006048 <wc_ecc_is_valid_idx>
 800643a:	4603      	mov	r3, r0
 800643c:	2b00      	cmp	r3, #0
 800643e:	d003      	beq.n	8006448 <wc_ecc_verify_hash_ex+0x54>
 8006440:	6a7b      	ldr	r3, [r7, #36]	; 0x24
 8006442:	691b      	ldr	r3, [r3, #16]
 8006444:	2b00      	cmp	r3, #0
 8006446:	d102      	bne.n	800644e <wc_ecc_verify_hash_ex+0x5a>
 8006448:	f06f 03a9 	mvn.w	r3, #169	; 0xa9
 800644c:	e067      	b.n	800651e <wc_ecc_verify_hash_ex+0x12a>
 800644e:	68ba      	ldr	r2, [r7, #8]
 8006450:	68f9      	ldr	r1, [r7, #12]
 8006452:	6a78      	ldr	r0, [r7, #36]	; 0x24
 8006454:	f7ff ff6c 	bl	8006330 <wc_ecc_check_r_s_range>
 8006458:	6178      	str	r0, [r7, #20]
 800645a:	697b      	ldr	r3, [r7, #20]
 800645c:	2b00      	cmp	r3, #0
 800645e:	d001      	beq.n	8006464 <wc_ecc_verify_hash_ex+0x70>
 8006460:	697b      	ldr	r3, [r7, #20]
 8006462:	e05c      	b.n	800651e <wc_ecc_verify_hash_ex+0x12a>
 8006464:	6a7b      	ldr	r3, [r7, #36]	; 0x24
 8006466:	691b      	ldr	r3, [r3, #16]
 8006468:	681b      	ldr	r3, [r3, #0]
 800646a:	613b      	str	r3, [r7, #16]
 800646c:	6a7b      	ldr	r3, [r7, #36]	; 0x24
 800646e:	681b      	ldr	r3, [r3, #0]
 8006470:	2b03      	cmp	r3, #3
 8006472:	d10b      	bne.n	800648c <wc_ecc_verify_hash_ex+0x98>
 8006474:	2300      	movs	r3, #0
 8006476:	2200      	movs	r2, #0
 8006478:	2100      	movs	r1, #0
 800647a:	6a78      	ldr	r0, [r7, #36]	; 0x24
 800647c:	f7ff fe16 	bl	80060ac <ecc_make_pub_ex>
 8006480:	6178      	str	r0, [r7, #20]
 8006482:	697b      	ldr	r3, [r7, #20]
 8006484:	2b00      	cmp	r3, #0
 8006486:	d001      	beq.n	800648c <wc_ecc_verify_hash_ex+0x98>
 8006488:	697b      	ldr	r3, [r7, #20]
 800648a:	e048      	b.n	800651e <wc_ecc_verify_hash_ex+0x12a>
 800648c:	6a7b      	ldr	r3, [r7, #36]	; 0x24
 800648e:	685b      	ldr	r3, [r3, #4]
 8006490:	f1b3 3fff 	cmp.w	r3, #4294967295	; 0xffffffff
 8006494:	d015      	beq.n	80064c2 <wc_ecc_verify_hash_ex+0xce>
 8006496:	6a7b      	ldr	r3, [r7, #36]	; 0x24
 8006498:	685b      	ldr	r3, [r3, #4]
 800649a:	4a23      	ldr	r2, [pc, #140]	; (8006528 <wc_ecc_verify_hash_ex+0x134>)
 800649c:	2134      	movs	r1, #52	; 0x34
 800649e:	fb01 f303 	mul.w	r3, r1, r3
 80064a2:	4413      	add	r3, r2
 80064a4:	3304      	adds	r3, #4
 80064a6:	681b      	ldr	r3, [r3, #0]
 80064a8:	2b07      	cmp	r3, #7
 80064aa:	d00d      	beq.n	80064c8 <wc_ecc_verify_hash_ex+0xd4>
 80064ac:	6a7b      	ldr	r3, [r7, #36]	; 0x24
 80064ae:	685b      	ldr	r3, [r3, #4]
 80064b0:	4a1d      	ldr	r2, [pc, #116]	; (8006528 <wc_ecc_verify_hash_ex+0x134>)
 80064b2:	2134      	movs	r1, #52	; 0x34
 80064b4:	fb01 f303 	mul.w	r3, r1, r3
 80064b8:	4413      	add	r3, r2
 80064ba:	3304      	adds	r3, #4
 80064bc:	681b      	ldr	r3, [r3, #0]
 80064be:	2b0f      	cmp	r3, #15
 80064c0:	d002      	beq.n	80064c8 <wc_ecc_verify_hash_ex+0xd4>
 80064c2:	f06f 03e9 	mvn.w	r3, #233	; 0xe9
 80064c6:	e02a      	b.n	800651e <wc_ecc_verify_hash_ex+0x12a>
 80064c8:	6a7b      	ldr	r3, [r7, #36]	; 0x24
 80064ca:	685b      	ldr	r3, [r3, #4]
 80064cc:	f1b3 3fff 	cmp.w	r3, #4294967295	; 0xffffffff
 80064d0:	d024      	beq.n	800651c <wc_ecc_verify_hash_ex+0x128>
 80064d2:	6a7b      	ldr	r3, [r7, #36]	; 0x24
 80064d4:	685b      	ldr	r3, [r3, #4]
 80064d6:	4a14      	ldr	r2, [pc, #80]	; (8006528 <wc_ecc_verify_hash_ex+0x134>)
 80064d8:	2134      	movs	r1, #52	; 0x34
 80064da:	fb01 f303 	mul.w	r3, r1, r3
 80064de:	4413      	add	r3, r2
 80064e0:	3304      	adds	r3, #4
 80064e2:	681b      	ldr	r3, [r3, #0]
 80064e4:	2b07      	cmp	r3, #7
 80064e6:	d119      	bne.n	800651c <wc_ecc_verify_hash_ex+0x128>
 80064e8:	6a7b      	ldr	r3, [r7, #36]	; 0x24
 80064ea:	f103 0118 	add.w	r1, r3, #24
 80064ee:	6a7b      	ldr	r3, [r7, #36]	; 0x24
 80064f0:	f103 0068 	add.w	r0, r3, #104	; 0x68
 80064f4:	6a7b      	ldr	r3, [r7, #36]	; 0x24
 80064f6:	33b8      	adds	r3, #184	; 0xb8
 80064f8:	6a7a      	ldr	r2, [r7, #36]	; 0x24
 80064fa:	6952      	ldr	r2, [r2, #20]
 80064fc:	9204      	str	r2, [sp, #16]
 80064fe:	6a3a      	ldr	r2, [r7, #32]
 8006500:	9203      	str	r2, [sp, #12]
 8006502:	68ba      	ldr	r2, [r7, #8]
 8006504:	9202      	str	r2, [sp, #8]
 8006506:	68fa      	ldr	r2, [r7, #12]
 8006508:	9201      	str	r2, [sp, #4]
 800650a:	9300      	str	r3, [sp, #0]
 800650c:	4603      	mov	r3, r0
 800650e:	460a      	mov	r2, r1
 8006510:	6839      	ldr	r1, [r7, #0]
 8006512:	6878      	ldr	r0, [r7, #4]
 8006514:	f7ff faa0 	bl	8005a58 <sp_ecc_verify_256>
 8006518:	4603      	mov	r3, r0
 800651a:	e000      	b.n	800651e <wc_ecc_verify_hash_ex+0x12a>
 800651c:	697b      	ldr	r3, [r7, #20]
 800651e:	4618      	mov	r0, r3
 8006520:	3718      	adds	r7, #24
 8006522:	46bd      	mov	sp, r7
 8006524:	bd80      	pop	{r7, pc}
 8006526:	bf00      	nop
 8006528:	08006f34 	.word	0x08006f34

0800652c <wc_ecc_import_raw_private>:
 800652c:	b590      	push	{r4, r7, lr}
 800652e:	b089      	sub	sp, #36	; 0x24
 8006530:	af02      	add	r7, sp, #8
 8006532:	60f8      	str	r0, [r7, #12]
 8006534:	60b9      	str	r1, [r7, #8]
 8006536:	607a      	str	r2, [r7, #4]
 8006538:	603b      	str	r3, [r7, #0]
 800653a:	2300      	movs	r3, #0
 800653c:	617b      	str	r3, [r7, #20]
 800653e:	68fb      	ldr	r3, [r7, #12]
 8006540:	2b00      	cmp	r3, #0
 8006542:	d005      	beq.n	8006550 <wc_ecc_import_raw_private+0x24>
 8006544:	68bb      	ldr	r3, [r7, #8]
 8006546:	2b00      	cmp	r3, #0
 8006548:	d002      	beq.n	8006550 <wc_ecc_import_raw_private+0x24>
 800654a:	687b      	ldr	r3, [r7, #4]
 800654c:	2b00      	cmp	r3, #0
 800654e:	d102      	bne.n	8006556 <wc_ecc_import_raw_private+0x2a>
 8006550:	f06f 03ac 	mvn.w	r3, #172	; 0xac
 8006554:	e0b6      	b.n	80066c4 <wc_ecc_import_raw_private+0x198>
 8006556:	68f8      	ldr	r0, [r7, #12]
 8006558:	f7ff fd9c 	bl	8006094 <wc_ecc_reset>
 800655c:	6aba      	ldr	r2, [r7, #40]	; 0x28
 800655e:	2100      	movs	r1, #0
 8006560:	68f8      	ldr	r0, [r7, #12]
 8006562:	f7ff fd07 	bl	8005f74 <wc_ecc_set_curve>
 8006566:	6178      	str	r0, [r7, #20]
 8006568:	697b      	ldr	r3, [r7, #20]
 800656a:	2b00      	cmp	r3, #0
 800656c:	d001      	beq.n	8006572 <wc_ecc_import_raw_private+0x46>
 800656e:	697b      	ldr	r3, [r7, #20]
 8006570:	e0a8      	b.n	80066c4 <wc_ecc_import_raw_private+0x198>
 8006572:	68fb      	ldr	r3, [r7, #12]
 8006574:	f503 7084 	add.w	r0, r3, #264	; 0x108
 8006578:	68fb      	ldr	r3, [r7, #12]
 800657a:	f103 0118 	add.w	r1, r3, #24
 800657e:	68fb      	ldr	r3, [r7, #12]
 8006580:	f103 0268 	add.w	r2, r3, #104	; 0x68
 8006584:	68fb      	ldr	r3, [r7, #12]
 8006586:	33b8      	adds	r3, #184	; 0xb8
 8006588:	2400      	movs	r4, #0
 800658a:	9401      	str	r4, [sp, #4]
 800658c:	2400      	movs	r4, #0
 800658e:	9400      	str	r4, [sp, #0]
 8006590:	f7fb feee 	bl	8002370 <sp_init_multi>
 8006594:	6178      	str	r0, [r7, #20]
 8006596:	697b      	ldr	r3, [r7, #20]
 8006598:	2b00      	cmp	r3, #0
 800659a:	d002      	beq.n	80065a2 <wc_ecc_import_raw_private+0x76>
 800659c:	f06f 037c 	mvn.w	r3, #124	; 0x7c
 80065a0:	e090      	b.n	80066c4 <wc_ecc_import_raw_private+0x198>
 80065a2:	697b      	ldr	r3, [r7, #20]
 80065a4:	2b00      	cmp	r3, #0
 80065a6:	d11d      	bne.n	80065e4 <wc_ecc_import_raw_private+0xb8>
 80065a8:	6afb      	ldr	r3, [r7, #44]	; 0x2c
 80065aa:	2b01      	cmp	r3, #1
 80065ac:	d108      	bne.n	80065c0 <wc_ecc_import_raw_private+0x94>
 80065ae:	68fb      	ldr	r3, [r7, #12]
 80065b0:	3318      	adds	r3, #24
 80065b2:	2210      	movs	r2, #16
 80065b4:	68b9      	ldr	r1, [r7, #8]
 80065b6:	4618      	mov	r0, r3
 80065b8:	f7fc f99a 	bl	80028f0 <sp_read_radix>
 80065bc:	6178      	str	r0, [r7, #20]
 80065be:	e00a      	b.n	80065d6 <wc_ecc_import_raw_private+0xaa>
 80065c0:	68fb      	ldr	r3, [r7, #12]
 80065c2:	f103 0018 	add.w	r0, r3, #24
 80065c6:	68fb      	ldr	r3, [r7, #12]
 80065c8:	691b      	ldr	r3, [r3, #16]
 80065ca:	681b      	ldr	r3, [r3, #0]
 80065cc:	461a      	mov	r2, r3
 80065ce:	68b9      	ldr	r1, [r7, #8]
 80065d0:	f7fc f812 	bl	80025f8 <sp_read_unsigned_bin>
 80065d4:	6178      	str	r0, [r7, #20]
 80065d6:	68fb      	ldr	r3, [r7, #12]
 80065d8:	699b      	ldr	r3, [r3, #24]
 80065da:	2b00      	cmp	r3, #0
 80065dc:	d102      	bne.n	80065e4 <wc_ecc_import_raw_private+0xb8>
 80065de:	f06f 03ac 	mvn.w	r3, #172	; 0xac
 80065e2:	617b      	str	r3, [r7, #20]
 80065e4:	697b      	ldr	r3, [r7, #20]
 80065e6:	2b00      	cmp	r3, #0
 80065e8:	d11d      	bne.n	8006626 <wc_ecc_import_raw_private+0xfa>
 80065ea:	6afb      	ldr	r3, [r7, #44]	; 0x2c
 80065ec:	2b01      	cmp	r3, #1
 80065ee:	d108      	bne.n	8006602 <wc_ecc_import_raw_private+0xd6>
 80065f0:	68fb      	ldr	r3, [r7, #12]
 80065f2:	3368      	adds	r3, #104	; 0x68
 80065f4:	2210      	movs	r2, #16
 80065f6:	6879      	ldr	r1, [r7, #4]
 80065f8:	4618      	mov	r0, r3
 80065fa:	f7fc f979 	bl	80028f0 <sp_read_radix>
 80065fe:	6178      	str	r0, [r7, #20]
 8006600:	e00a      	b.n	8006618 <wc_ecc_import_raw_private+0xec>
 8006602:	68fb      	ldr	r3, [r7, #12]
 8006604:	f103 0068 	add.w	r0, r3, #104	; 0x68
 8006608:	68fb      	ldr	r3, [r7, #12]
 800660a:	691b      	ldr	r3, [r3, #16]
 800660c:	681b      	ldr	r3, [r3, #0]
 800660e:	461a      	mov	r2, r3
 8006610:	6879      	ldr	r1, [r7, #4]
 8006612:	f7fb fff1 	bl	80025f8 <sp_read_unsigned_bin>
 8006616:	6178      	str	r0, [r7, #20]
 8006618:	68fb      	ldr	r3, [r7, #12]
 800661a:	6e9b      	ldr	r3, [r3, #104]	; 0x68
 800661c:	2b00      	cmp	r3, #0
 800661e:	d102      	bne.n	8006626 <wc_ecc_import_raw_private+0xfa>
 8006620:	f06f 03ac 	mvn.w	r3, #172	; 0xac
 8006624:	617b      	str	r3, [r7, #20]
 8006626:	697b      	ldr	r3, [r7, #20]
 8006628:	2b00      	cmp	r3, #0
 800662a:	d106      	bne.n	800663a <wc_ecc_import_raw_private+0x10e>
 800662c:	68fb      	ldr	r3, [r7, #12]
 800662e:	33b8      	adds	r3, #184	; 0xb8
 8006630:	2101      	movs	r1, #1
 8006632:	4618      	mov	r0, r3
 8006634:	f7fb ffbd 	bl	80025b2 <sp_set>
 8006638:	6178      	str	r0, [r7, #20]
 800663a:	697b      	ldr	r3, [r7, #20]
 800663c:	2b00      	cmp	r3, #0
 800663e:	d128      	bne.n	8006692 <wc_ecc_import_raw_private+0x166>
 8006640:	683b      	ldr	r3, [r7, #0]
 8006642:	2b00      	cmp	r3, #0
 8006644:	d022      	beq.n	800668c <wc_ecc_import_raw_private+0x160>
 8006646:	68fb      	ldr	r3, [r7, #12]
 8006648:	2202      	movs	r2, #2
 800664a:	601a      	str	r2, [r3, #0]
 800664c:	6afb      	ldr	r3, [r7, #44]	; 0x2c
 800664e:	2b01      	cmp	r3, #1
 8006650:	d109      	bne.n	8006666 <wc_ecc_import_raw_private+0x13a>
 8006652:	68fb      	ldr	r3, [r7, #12]
 8006654:	f503 7384 	add.w	r3, r3, #264	; 0x108
 8006658:	2210      	movs	r2, #16
 800665a:	6839      	ldr	r1, [r7, #0]
 800665c:	4618      	mov	r0, r3
 800665e:	f7fc f947 	bl	80028f0 <sp_read_radix>
 8006662:	6178      	str	r0, [r7, #20]
 8006664:	e00a      	b.n	800667c <wc_ecc_import_raw_private+0x150>
 8006666:	68fb      	ldr	r3, [r7, #12]
 8006668:	f503 7084 	add.w	r0, r3, #264	; 0x108
 800666c:	68fb      	ldr	r3, [r7, #12]
 800666e:	691b      	ldr	r3, [r3, #16]
 8006670:	681b      	ldr	r3, [r3, #0]
 8006672:	461a      	mov	r2, r3
 8006674:	6839      	ldr	r1, [r7, #0]
 8006676:	f7fb ffbf 	bl	80025f8 <sp_read_unsigned_bin>
 800667a:	6178      	str	r0, [r7, #20]
 800667c:	68fb      	ldr	r3, [r7, #12]
 800667e:	f8d3 3108 	ldr.w	r3, [r3, #264]	; 0x108
 8006682:	2b00      	cmp	r3, #0
 8006684:	d105      	bne.n	8006692 <wc_ecc_import_raw_private+0x166>
 8006686:	f06f 03ac 	mvn.w	r3, #172	; 0xac
 800668a:	e01b      	b.n	80066c4 <wc_ecc_import_raw_private+0x198>
 800668c:	68fb      	ldr	r3, [r7, #12]
 800668e:	2201      	movs	r2, #1
 8006690:	601a      	str	r2, [r3, #0]
 8006692:	697b      	ldr	r3, [r7, #20]
 8006694:	2b00      	cmp	r3, #0
 8006696:	d014      	beq.n	80066c2 <wc_ecc_import_raw_private+0x196>
 8006698:	68fb      	ldr	r3, [r7, #12]
 800669a:	3318      	adds	r3, #24
 800669c:	4618      	mov	r0, r3
 800669e:	f7fb feed 	bl	800247c <sp_clear>
 80066a2:	68fb      	ldr	r3, [r7, #12]
 80066a4:	3368      	adds	r3, #104	; 0x68
 80066a6:	4618      	mov	r0, r3
 80066a8:	f7fb fee8 	bl	800247c <sp_clear>
 80066ac:	68fb      	ldr	r3, [r7, #12]
 80066ae:	33b8      	adds	r3, #184	; 0xb8
 80066b0:	4618      	mov	r0, r3
 80066b2:	f7fb fee3 	bl	800247c <sp_clear>
 80066b6:	68fb      	ldr	r3, [r7, #12]
 80066b8:	f503 7384 	add.w	r3, r3, #264	; 0x108
 80066bc:	4618      	mov	r0, r3
 80066be:	f7fb fedd 	bl	800247c <sp_clear>
 80066c2:	697b      	ldr	r3, [r7, #20]
 80066c4:	4618      	mov	r0, r3
 80066c6:	371c      	adds	r7, #28
 80066c8:	46bd      	mov	sp, r7
 80066ca:	bd90      	pop	{r4, r7, pc}

080066cc <wc_ecc_import_unsigned>:
 80066cc:	b580      	push	{r7, lr}
 80066ce:	b086      	sub	sp, #24
 80066d0:	af02      	add	r7, sp, #8
 80066d2:	60f8      	str	r0, [r7, #12]
 80066d4:	60b9      	str	r1, [r7, #8]
 80066d6:	607a      	str	r2, [r7, #4]
 80066d8:	603b      	str	r3, [r7, #0]
 80066da:	2302      	movs	r3, #2
 80066dc:	9301      	str	r3, [sp, #4]
 80066de:	69bb      	ldr	r3, [r7, #24]
 80066e0:	9300      	str	r3, [sp, #0]
 80066e2:	683b      	ldr	r3, [r7, #0]
 80066e4:	687a      	ldr	r2, [r7, #4]
 80066e6:	68b9      	ldr	r1, [r7, #8]
 80066e8:	68f8      	ldr	r0, [r7, #12]
 80066ea:	f7ff ff1f 	bl	800652c <wc_ecc_import_raw_private>
 80066ee:	4603      	mov	r3, r0
 80066f0:	4618      	mov	r0, r3
 80066f2:	3710      	adds	r7, #16
 80066f4:	46bd      	mov	sp, r7
 80066f6:	bd80      	pop	{r7, pc}

080066f8 <__aeabi_ldivmod>:
 80066f8:	b97b      	cbnz	r3, 800671a <__aeabi_ldivmod+0x22>
 80066fa:	b972      	cbnz	r2, 800671a <__aeabi_ldivmod+0x22>
 80066fc:	2900      	cmp	r1, #0
 80066fe:	bfbe      	ittt	lt
 8006700:	2000      	movlt	r0, #0
 8006702:	f04f 4100 	movlt.w	r1, #2147483648	; 0x80000000
 8006706:	e006      	blt.n	8006716 <__aeabi_ldivmod+0x1e>
 8006708:	bf08      	it	eq
 800670a:	2800      	cmpeq	r0, #0
 800670c:	bf1c      	itt	ne
 800670e:	f06f 4100 	mvnne.w	r1, #2147483648	; 0x80000000
 8006712:	f04f 30ff 	movne.w	r0, #4294967295	; 0xffffffff
 8006716:	f000 b9a3 	b.w	8006a60 <__aeabi_idiv0>
 800671a:	f1ad 0c08 	sub.w	ip, sp, #8
 800671e:	e96d ce04 	strd	ip, lr, [sp, #-16]!
 8006722:	2900      	cmp	r1, #0
 8006724:	db09      	blt.n	800673a <__aeabi_ldivmod+0x42>
 8006726:	2b00      	cmp	r3, #0
 8006728:	db1a      	blt.n	8006760 <__aeabi_ldivmod+0x68>
 800672a:	f000 f835 	bl	8006798 <__udivmoddi4>
 800672e:	f8dd e004 	ldr.w	lr, [sp, #4]
 8006732:	e9dd 2302 	ldrd	r2, r3, [sp, #8]
 8006736:	b004      	add	sp, #16
 8006738:	4770      	bx	lr
 800673a:	4240      	negs	r0, r0
 800673c:	eb61 0141 	sbc.w	r1, r1, r1, lsl #1
 8006740:	2b00      	cmp	r3, #0
 8006742:	db1b      	blt.n	800677c <__aeabi_ldivmod+0x84>
 8006744:	f000 f828 	bl	8006798 <__udivmoddi4>
 8006748:	f8dd e004 	ldr.w	lr, [sp, #4]
 800674c:	e9dd 2302 	ldrd	r2, r3, [sp, #8]
 8006750:	b004      	add	sp, #16
 8006752:	4240      	negs	r0, r0
 8006754:	eb61 0141 	sbc.w	r1, r1, r1, lsl #1
 8006758:	4252      	negs	r2, r2
 800675a:	eb63 0343 	sbc.w	r3, r3, r3, lsl #1
 800675e:	4770      	bx	lr
 8006760:	4252      	negs	r2, r2
 8006762:	eb63 0343 	sbc.w	r3, r3, r3, lsl #1
 8006766:	f000 f817 	bl	8006798 <__udivmoddi4>
 800676a:	f8dd e004 	ldr.w	lr, [sp, #4]
 800676e:	e9dd 2302 	ldrd	r2, r3, [sp, #8]
 8006772:	b004      	add	sp, #16
 8006774:	4240      	negs	r0, r0
 8006776:	eb61 0141 	sbc.w	r1, r1, r1, lsl #1
 800677a:	4770      	bx	lr
 800677c:	4252      	negs	r2, r2
 800677e:	eb63 0343 	sbc.w	r3, r3, r3, lsl #1
 8006782:	f000 f809 	bl	8006798 <__udivmoddi4>
 8006786:	f8dd e004 	ldr.w	lr, [sp, #4]
 800678a:	e9dd 2302 	ldrd	r2, r3, [sp, #8]
 800678e:	b004      	add	sp, #16
 8006790:	4252      	negs	r2, r2
 8006792:	eb63 0343 	sbc.w	r3, r3, r3, lsl #1
 8006796:	4770      	bx	lr

08006798 <__udivmoddi4>:
 8006798:	e92d 47f0 	stmdb	sp!, {r4, r5, r6, r7, r8, r9, sl, lr}
 800679c:	9e08      	ldr	r6, [sp, #32]
 800679e:	460d      	mov	r5, r1
 80067a0:	4604      	mov	r4, r0
 80067a2:	468a      	mov	sl, r1
 80067a4:	2b00      	cmp	r3, #0
 80067a6:	d17f      	bne.n	80068a8 <__udivmoddi4+0x110>
 80067a8:	428a      	cmp	r2, r1
 80067aa:	4617      	mov	r7, r2
 80067ac:	d941      	bls.n	8006832 <__udivmoddi4+0x9a>
 80067ae:	fab2 f282 	clz	r2, r2
 80067b2:	b14a      	cbz	r2, 80067c8 <__udivmoddi4+0x30>
 80067b4:	f1c2 0120 	rsb	r1, r2, #32
 80067b8:	fa05 f302 	lsl.w	r3, r5, r2
 80067bc:	4097      	lsls	r7, r2
 80067be:	4094      	lsls	r4, r2
 80067c0:	fa20 f101 	lsr.w	r1, r0, r1
 80067c4:	ea41 0a03 	orr.w	sl, r1, r3
 80067c8:	ea4f 4817 	mov.w	r8, r7, lsr #16
 80067cc:	ea4f 4c14 	mov.w	ip, r4, lsr #16
 80067d0:	fa1f f987 	uxth.w	r9, r7
 80067d4:	fbba fef8 	udiv	lr, sl, r8
 80067d8:	fb08 a31e 	mls	r3, r8, lr, sl
 80067dc:	fb0e f109 	mul.w	r1, lr, r9
 80067e0:	ea4c 4303 	orr.w	r3, ip, r3, lsl #16
 80067e4:	4299      	cmp	r1, r3
 80067e6:	d906      	bls.n	80067f6 <__udivmoddi4+0x5e>
 80067e8:	18fb      	adds	r3, r7, r3
 80067ea:	d202      	bcs.n	80067f2 <__udivmoddi4+0x5a>
 80067ec:	4299      	cmp	r1, r3
 80067ee:	f200 8124 	bhi.w	8006a3a <__udivmoddi4+0x2a2>
 80067f2:	f10e 3eff 	add.w	lr, lr, #4294967295	; 0xffffffff
 80067f6:	1a59      	subs	r1, r3, r1
 80067f8:	b2a3      	uxth	r3, r4
 80067fa:	fbb1 f0f8 	udiv	r0, r1, r8
 80067fe:	fb08 1110 	mls	r1, r8, r0, r1
 8006802:	fb00 f909 	mul.w	r9, r0, r9
 8006806:	ea43 4401 	orr.w	r4, r3, r1, lsl #16
 800680a:	45a1      	cmp	r9, r4
 800680c:	d905      	bls.n	800681a <__udivmoddi4+0x82>
 800680e:	193c      	adds	r4, r7, r4
 8006810:	d202      	bcs.n	8006818 <__udivmoddi4+0x80>
 8006812:	45a1      	cmp	r9, r4
 8006814:	f200 810e 	bhi.w	8006a34 <__udivmoddi4+0x29c>
 8006818:	3801      	subs	r0, #1
 800681a:	eba4 0409 	sub.w	r4, r4, r9
 800681e:	ea40 400e 	orr.w	r0, r0, lr, lsl #16
 8006822:	2100      	movs	r1, #0
 8006824:	b11e      	cbz	r6, 800682e <__udivmoddi4+0x96>
 8006826:	40d4      	lsrs	r4, r2
 8006828:	2300      	movs	r3, #0
 800682a:	e9c6 4300 	strd	r4, r3, [r6]
 800682e:	e8bd 87f0 	ldmia.w	sp!, {r4, r5, r6, r7, r8, r9, sl, pc}
 8006832:	b902      	cbnz	r2, 8006836 <__udivmoddi4+0x9e>
 8006834:	deff      	udf	#255	; 0xff
 8006836:	fab2 f282 	clz	r2, r2
 800683a:	2a00      	cmp	r2, #0
 800683c:	d14f      	bne.n	80068de <__udivmoddi4+0x146>
 800683e:	1bcb      	subs	r3, r1, r7
 8006840:	ea4f 4e17 	mov.w	lr, r7, lsr #16
 8006844:	fa1f f887 	uxth.w	r8, r7
 8006848:	2101      	movs	r1, #1
 800684a:	0c25      	lsrs	r5, r4, #16
 800684c:	fbb3 fcfe 	udiv	ip, r3, lr
 8006850:	fb0e 301c 	mls	r0, lr, ip, r3
 8006854:	462b      	mov	r3, r5
 8006856:	fb08 f90c 	mul.w	r9, r8, ip
 800685a:	ea45 4500 	orr.w	r5, r5, r0, lsl #16
 800685e:	45a9      	cmp	r9, r5
 8006860:	d90a      	bls.n	8006878 <__udivmoddi4+0xe0>
 8006862:	197d      	adds	r5, r7, r5
 8006864:	bf2c      	ite	cs
 8006866:	2301      	movcs	r3, #1
 8006868:	2300      	movcc	r3, #0
 800686a:	45a9      	cmp	r9, r5
 800686c:	d902      	bls.n	8006874 <__udivmoddi4+0xdc>
 800686e:	2b00      	cmp	r3, #0
 8006870:	f000 80d9 	beq.w	8006a26 <__udivmoddi4+0x28e>
 8006874:	f10c 3cff 	add.w	ip, ip, #4294967295	; 0xffffffff
 8006878:	eba5 0509 	sub.w	r5, r5, r9
 800687c:	b2a3      	uxth	r3, r4
 800687e:	fbb5 f0fe 	udiv	r0, r5, lr
 8006882:	fb0e 5510 	mls	r5, lr, r0, r5
 8006886:	fb08 f800 	mul.w	r8, r8, r0
 800688a:	ea43 4405 	orr.w	r4, r3, r5, lsl #16
 800688e:	45a0      	cmp	r8, r4
 8006890:	d905      	bls.n	800689e <__udivmoddi4+0x106>
 8006892:	193c      	adds	r4, r7, r4
 8006894:	d202      	bcs.n	800689c <__udivmoddi4+0x104>
 8006896:	45a0      	cmp	r8, r4
 8006898:	f200 80c9 	bhi.w	8006a2e <__udivmoddi4+0x296>
 800689c:	3801      	subs	r0, #1
 800689e:	eba4 0408 	sub.w	r4, r4, r8
 80068a2:	ea40 400c 	orr.w	r0, r0, ip, lsl #16
 80068a6:	e7bd      	b.n	8006824 <__udivmoddi4+0x8c>
 80068a8:	428b      	cmp	r3, r1
 80068aa:	d908      	bls.n	80068be <__udivmoddi4+0x126>
 80068ac:	2e00      	cmp	r6, #0
 80068ae:	f000 80b1 	beq.w	8006a14 <__udivmoddi4+0x27c>
 80068b2:	2100      	movs	r1, #0
 80068b4:	e9c6 0500 	strd	r0, r5, [r6]
 80068b8:	4608      	mov	r0, r1
 80068ba:	e8bd 87f0 	ldmia.w	sp!, {r4, r5, r6, r7, r8, r9, sl, pc}
 80068be:	fab3 f183 	clz	r1, r3
 80068c2:	2900      	cmp	r1, #0
 80068c4:	d146      	bne.n	8006954 <__udivmoddi4+0x1bc>
 80068c6:	42ab      	cmp	r3, r5
 80068c8:	f0c0 80a7 	bcc.w	8006a1a <__udivmoddi4+0x282>
 80068cc:	4282      	cmp	r2, r0
 80068ce:	f240 80a4 	bls.w	8006a1a <__udivmoddi4+0x282>
 80068d2:	4608      	mov	r0, r1
 80068d4:	2e00      	cmp	r6, #0
 80068d6:	d0aa      	beq.n	800682e <__udivmoddi4+0x96>
 80068d8:	e9c6 4a00 	strd	r4, sl, [r6]
 80068dc:	e7a7      	b.n	800682e <__udivmoddi4+0x96>
 80068de:	f1c2 0020 	rsb	r0, r2, #32
 80068e2:	4097      	lsls	r7, r2
 80068e4:	fa01 f302 	lsl.w	r3, r1, r2
 80068e8:	ea4f 4e17 	mov.w	lr, r7, lsr #16
 80068ec:	40c1      	lsrs	r1, r0
 80068ee:	fa24 f500 	lsr.w	r5, r4, r0
 80068f2:	fa1f f887 	uxth.w	r8, r7
 80068f6:	4094      	lsls	r4, r2
 80068f8:	431d      	orrs	r5, r3
 80068fa:	fbb1 f0fe 	udiv	r0, r1, lr
 80068fe:	0c2b      	lsrs	r3, r5, #16
 8006900:	fb0e 1110 	mls	r1, lr, r0, r1
 8006904:	fb00 fc08 	mul.w	ip, r0, r8
 8006908:	ea43 4301 	orr.w	r3, r3, r1, lsl #16
 800690c:	459c      	cmp	ip, r3
 800690e:	d909      	bls.n	8006924 <__udivmoddi4+0x18c>
 8006910:	18fb      	adds	r3, r7, r3
 8006912:	bf2c      	ite	cs
 8006914:	2101      	movcs	r1, #1
 8006916:	2100      	movcc	r1, #0
 8006918:	459c      	cmp	ip, r3
 800691a:	d902      	bls.n	8006922 <__udivmoddi4+0x18a>
 800691c:	2900      	cmp	r1, #0
 800691e:	f000 8095 	beq.w	8006a4c <__udivmoddi4+0x2b4>
 8006922:	3801      	subs	r0, #1
 8006924:	eba3 030c 	sub.w	r3, r3, ip
 8006928:	b2ad      	uxth	r5, r5
 800692a:	fbb3 f1fe 	udiv	r1, r3, lr
 800692e:	fb0e 3311 	mls	r3, lr, r1, r3
 8006932:	fb01 fc08 	mul.w	ip, r1, r8
 8006936:	ea45 4503 	orr.w	r5, r5, r3, lsl #16
 800693a:	45ac      	cmp	ip, r5
 800693c:	d905      	bls.n	800694a <__udivmoddi4+0x1b2>
 800693e:	197d      	adds	r5, r7, r5
 8006940:	d202      	bcs.n	8006948 <__udivmoddi4+0x1b0>
 8006942:	45ac      	cmp	ip, r5
 8006944:	f200 8089 	bhi.w	8006a5a <__udivmoddi4+0x2c2>
 8006948:	3901      	subs	r1, #1
 800694a:	eba5 030c 	sub.w	r3, r5, ip
 800694e:	ea41 4100 	orr.w	r1, r1, r0, lsl #16
 8006952:	e77a      	b.n	800684a <__udivmoddi4+0xb2>
 8006954:	f1c1 0420 	rsb	r4, r1, #32
 8006958:	408b      	lsls	r3, r1
 800695a:	fa02 f701 	lsl.w	r7, r2, r1
 800695e:	fa05 fc01 	lsl.w	ip, r5, r1
 8006962:	40e2      	lsrs	r2, r4
 8006964:	fa20 f804 	lsr.w	r8, r0, r4
 8006968:	40e5      	lsrs	r5, r4
 800696a:	fa00 fe01 	lsl.w	lr, r0, r1
 800696e:	4313      	orrs	r3, r2
 8006970:	ea48 020c 	orr.w	r2, r8, ip
 8006974:	ea4f 4813 	mov.w	r8, r3, lsr #16
 8006978:	ea4f 4c12 	mov.w	ip, r2, lsr #16
 800697c:	fa1f f983 	uxth.w	r9, r3
 8006980:	fbb5 faf8 	udiv	sl, r5, r8
 8006984:	fb08 551a 	mls	r5, r8, sl, r5
 8006988:	fb0a f009 	mul.w	r0, sl, r9
 800698c:	ea4c 4c05 	orr.w	ip, ip, r5, lsl #16
 8006990:	4560      	cmp	r0, ip
 8006992:	d90a      	bls.n	80069aa <__udivmoddi4+0x212>
 8006994:	eb13 0c0c 	adds.w	ip, r3, ip
 8006998:	bf2c      	ite	cs
 800699a:	2501      	movcs	r5, #1
 800699c:	2500      	movcc	r5, #0
 800699e:	4560      	cmp	r0, ip
 80069a0:	d901      	bls.n	80069a6 <__udivmoddi4+0x20e>
 80069a2:	2d00      	cmp	r5, #0
 80069a4:	d055      	beq.n	8006a52 <__udivmoddi4+0x2ba>
 80069a6:	f10a 3aff 	add.w	sl, sl, #4294967295	; 0xffffffff
 80069aa:	ebac 0c00 	sub.w	ip, ip, r0
 80069ae:	b292      	uxth	r2, r2
 80069b0:	fbbc f0f8 	udiv	r0, ip, r8
 80069b4:	fb08 cc10 	mls	ip, r8, r0, ip
 80069b8:	fb00 f909 	mul.w	r9, r0, r9
 80069bc:	ea42 4c0c 	orr.w	ip, r2, ip, lsl #16
 80069c0:	45e1      	cmp	r9, ip
 80069c2:	d905      	bls.n	80069d0 <__udivmoddi4+0x238>
 80069c4:	eb13 0c0c 	adds.w	ip, r3, ip
 80069c8:	d201      	bcs.n	80069ce <__udivmoddi4+0x236>
 80069ca:	45e1      	cmp	r9, ip
 80069cc:	d83b      	bhi.n	8006a46 <__udivmoddi4+0x2ae>
 80069ce:	3801      	subs	r0, #1
 80069d0:	ea40 400a 	orr.w	r0, r0, sl, lsl #16
 80069d4:	ebac 0c09 	sub.w	ip, ip, r9
 80069d8:	fba0 8907 	umull	r8, r9, r0, r7
 80069dc:	45cc      	cmp	ip, r9
 80069de:	4645      	mov	r5, r8
 80069e0:	464a      	mov	r2, r9
 80069e2:	d302      	bcc.n	80069ea <__udivmoddi4+0x252>
 80069e4:	d106      	bne.n	80069f4 <__udivmoddi4+0x25c>
 80069e6:	45c6      	cmp	lr, r8
 80069e8:	d204      	bcs.n	80069f4 <__udivmoddi4+0x25c>
 80069ea:	3801      	subs	r0, #1
 80069ec:	ebb8 0507 	subs.w	r5, r8, r7
 80069f0:	eb69 0203 	sbc.w	r2, r9, r3
 80069f4:	b32e      	cbz	r6, 8006a42 <__udivmoddi4+0x2aa>
 80069f6:	ebbe 0305 	subs.w	r3, lr, r5
 80069fa:	eb6c 0c02 	sbc.w	ip, ip, r2
 80069fe:	fa23 f201 	lsr.w	r2, r3, r1
 8006a02:	fa0c f404 	lsl.w	r4, ip, r4
 8006a06:	fa2c f301 	lsr.w	r3, ip, r1
 8006a0a:	2100      	movs	r1, #0
 8006a0c:	4314      	orrs	r4, r2
 8006a0e:	e9c6 4300 	strd	r4, r3, [r6]
 8006a12:	e70c      	b.n	800682e <__udivmoddi4+0x96>
 8006a14:	4631      	mov	r1, r6
 8006a16:	4630      	mov	r0, r6
 8006a18:	e709      	b.n	800682e <__udivmoddi4+0x96>
 8006a1a:	1a84      	subs	r4, r0, r2
 8006a1c:	eb65 0303 	sbc.w	r3, r5, r3
 8006a20:	2001      	movs	r0, #1
 8006a22:	469a      	mov	sl, r3
 8006a24:	e756      	b.n	80068d4 <__udivmoddi4+0x13c>
 8006a26:	f1ac 0c02 	sub.w	ip, ip, #2
 8006a2a:	443d      	add	r5, r7
 8006a2c:	e724      	b.n	8006878 <__udivmoddi4+0xe0>
 8006a2e:	3802      	subs	r0, #2
 8006a30:	443c      	add	r4, r7
 8006a32:	e734      	b.n	800689e <__udivmoddi4+0x106>
 8006a34:	3802      	subs	r0, #2
 8006a36:	443c      	add	r4, r7
 8006a38:	e6ef      	b.n	800681a <__udivmoddi4+0x82>
 8006a3a:	f1ae 0e02 	sub.w	lr, lr, #2
 8006a3e:	443b      	add	r3, r7
 8006a40:	e6d9      	b.n	80067f6 <__udivmoddi4+0x5e>
 8006a42:	4631      	mov	r1, r6
 8006a44:	e6f3      	b.n	800682e <__udivmoddi4+0x96>
 8006a46:	3802      	subs	r0, #2
 8006a48:	449c      	add	ip, r3
 8006a4a:	e7c1      	b.n	80069d0 <__udivmoddi4+0x238>
 8006a4c:	3802      	subs	r0, #2
 8006a4e:	443b      	add	r3, r7
 8006a50:	e768      	b.n	8006924 <__udivmoddi4+0x18c>
 8006a52:	f1aa 0a02 	sub.w	sl, sl, #2
 8006a56:	449c      	add	ip, r3
 8006a58:	e7a7      	b.n	80069aa <__udivmoddi4+0x212>
 8006a5a:	3902      	subs	r1, #2
 8006a5c:	443d      	add	r5, r7
 8006a5e:	e774      	b.n	800694a <__udivmoddi4+0x1b2>

08006a60 <__aeabi_idiv0>:
 8006a60:	4770      	bx	lr
 8006a62:	bf00      	nop

08006a64 <wolfboot_magic_trail>:
 8006a64:	4f42 544f                                   BOOT

08006a68 <ecc256_pub_key>:
 8006a68:	74ed f0c4 099f cd19 e9f1 81d3 9588 0d00     .t..............
 8006a78:	46b2 cb6b ab0d f53b 3f33 5abe 3144 eda1     .Fk...;.3?.ZD1..
 8006a88:	2daa 2b61 3872 637f 4c5e f587 a12d 7a21     .-a+r8.c^L..-.!z
 8006a98:	e9ba e5b0 82f6 77b6 5738 92ce a785 4fd1     .......w8W.....O

08006aa8 <ecc256_pub_key_len>:
 8006aa8:	0040 0000                                   @...

08006aac <K>:
 8006aac:	2f98 428a 4491 7137 fbcf b5c0 dba5 e9b5     ./.B.D7q........
 8006abc:	c25b 3956 11f1 59f1 82a4 923f 5ed5 ab1c     [.V9...Y..?..^..
 8006acc:	aa98 d807 5b01 1283 85be 2431 7dc3 550c     .....[....1$.}.U
 8006adc:	5d74 72be b1fe 80de 06a7 9bdc f174 c19b     t].r........t...
 8006aec:	69c1 e49b 4786 efbe 9dc6 0fc1 a1cc 240c     .i...G.........$
 8006afc:	2c6f 2de9 84aa 4a74 a9dc 5cb0 88da 76f9     o,.-..tJ...\...v
 8006b0c:	5152 983e c66d a831 27c8 b003 7fc7 bf59     RQ>.m.1..'....Y.
 8006b1c:	0bf3 c6e0 9147 d5a7 6351 06ca 2967 1429     ....G...Qc..g)).
 8006b2c:	0a85 27b7 2138 2e1b 6dfc 4d2c 0d13 5338     ...'8!...m,M..8S
 8006b3c:	7354 650a 0abb 766a c92e 81c2 2c85 9272     Ts.e..jv.....,r.
 8006b4c:	e8a1 a2bf 664b a81a 8b70 c24b 51a3 c76c     ....Kf..p.K..Ql.
 8006b5c:	e819 d192 0624 d699 3585 f40e a070 106a     ....$....5..p.j.
 8006b6c:	c116 19a4 6c08 1e37 774c 2748 bcb5 34b0     .....l7.LwH'...4
 8006b7c:	0cb3 391c aa4a 4ed8 ca4f 5b9c 6ff3 682e     ...9J..NO..[.o.h
 8006b8c:	82ee 748f 636f 78a5 7814 84c8 0208 8cc7     ...toc.x.x......
 8006b9c:	fffa 90be 6ceb a450 a3f7 bef9 78f2 c671     .....lP......xq.

08006bac <addr_mask>:
 8006bac:	0000 0000 ffff ffff                         ........

08006bb4 <p256_mod>:
 8006bb4:	ffff 03ff ffff 03ff ffff 03ff ffff 0003     ................
	...
 8006bd0:	0400 0000 0000 03ff ffff 003f               ..........?.

08006bdc <p256_norm_mod>:
 8006bdc:	0001 0000 0000 0000 0000 0000 0000 03fc     ................
 8006bec:	ffff 03ff ffff 03ff ffff 03ff fbff 03ff     ................
 8006bfc:	ffff 0000 0000 0000                         ........

08006c04 <p256_order>:
 8006c04:	2551 0063 b0bf 0272 4f3b 01e8 9c5e 02b6     Q%c...r.;O..^...
 8006c14:	e6fa 03bc ffff 03ff ffff 03ff 03ff 0000     ................
 8006c24:	0000 03ff ffff 003f                         ......?.

08006c2c <p256_norm_order>:
 8006c2c:	daaf 039c 4f40 018d b0c4 0217 63a1 0149     ....@O.......cI.
 8006c3c:	1905 0043 0000 0000 0000 0000 fc00 03ff     ..C.............
 8006c4c:	ffff 0000 0000 0000                         ........

08006c54 <p256_base>:
 8006c54:	c296 0098 5176 004e 0f4a 033a b7ac 0204     ....vQN.J.:.....
 8006c64:	037d 0277 103c 00e9 6e56 03ce 1fe2 0109     }.w.<...Vn......
 8006c74:	e12c 01f2 c5f4 001a 0000 0000 0000 0000     ,...............
	...
 8006ca4:	51f5 03bf 1a0d 0190 ecbb 01ec acc5 015d     .Q............].
 8006cb4:	ce33 022b e785 0303 b4a7 027e 6e3b 01fe     3.+.......~.;n..
 8006cc4:	fe1a 02e2 f8d0 0013 0000 0000 0000 0000     ................
	...
 8006cf4:	0001 0000 0000 0000 0000 0000 0000 0000     ................
	...

08006d48 <p256_mod_minus_2>:
 8006d48:	fffd ffff ffff ffff ffff ffff 0000 0000     ................
	...
 8006d60:	0001 0000 ffff ffff                         ........

08006d68 <p256_order_minus_2>:
 8006d68:	254f fc63 cac2 f3b9 9e84 a717 faad bce6     O%c.............
 8006d78:	ffff ffff ffff ffff 0000 0000 ffff ffff     ................

08006d88 <ecc_oid_secp256r1>:
 8006d88:	862a ce48 033d 0701 4553 5043 3532 5236     *.H.=...SECP256R
 8006d98:	0031 0000 4646 4646 4646 4646 3030 3030     1...FFFFFFFF0000
 8006da8:	3030 3130 3030 3030 3030 3030 3030 3030     0001000000000000
 8006db8:	3030 3030 3030 3030 3030 3030 4646 4646     000000000000FFFF
 8006dc8:	4646 4646 4646 4646 4646 4646 4646 4646     FFFFFFFFFFFFFFFF
 8006dd8:	4646 4646 0000 0000 4646 4646 4646 4646     FFFF....FFFFFFFF
 8006de8:	3030 3030 3030 3130 3030 3030 3030 3030     0000000100000000
 8006df8:	3030 3030 3030 3030 3030 3030 3030 3030     0000000000000000
 8006e08:	4646 4646 4646 4646 4646 4646 4646 4646     FFFFFFFFFFFFFFFF
 8006e18:	4646 4646 4646 4346 0000 0000 4135 3643     FFFFFFFC....5AC6
 8006e28:	3533 3844 4141 4133 3339 3745 3342 4245     35D8AA3A93E7B3EB
 8006e38:	4442 3535 3637 3839 3638 4342 3536 4431     BD55769886BC651D
 8006e48:	3630 3042 4343 3335 3042 3646 4233 4543     06B0CC53B0F63BCE
 8006e58:	4333 4533 3732 3244 3036 4234 0000 0000     3C3E27D2604B....
 8006e68:	4646 4646 4646 4646 3030 3030 3030 3030     FFFFFFFF00000000
 8006e78:	4646 4646 4646 4646 4646 4646 4646 4646     FFFFFFFFFFFFFFFF
 8006e88:	4342 3645 4146 4441 3741 3731 4539 3438     BCE6FAADA7179E84
 8006e98:	3346 3942 4143 3243 4346 3336 3532 3135     F3B9CAC2FC632551
 8006ea8:	0000 0000 4236 3731 3144 3246 3145 4332     ....6B17D1F2E12C
 8006eb8:	3234 3734 3846 4342 3645 3545 3336 3441     4247F8BCE6E563A4
 8006ec8:	3034 3246 3737 3330 4437 3138 4432 4245     40F277037D812DEB
 8006ed8:	3333 3041 3446 3141 3933 3534 3844 3839     33A0F4A13945D898
 8006ee8:	3243 3639 0000 0000 4634 3345 3234 3245     C296....4FE342E2
 8006ef8:	4546 4131 4637 4239 4538 3745 4245 4134     FE1A7F9B8EE7EB4A
 8006f08:	4337 4630 4539 3631 4232 4543 3333 3735     7C0F9E162BCE3357
 8006f18:	4236 3133 4535 4543 4243 3642 3034 3836     6B315ECECBB64068
 8006f28:	3733 4642 3135 3546 0000 0000               37BF51F5....

08006f34 <ecc_sets>:
 8006f34:	0020 0000 0007 0000 6d90 0800 6d9c 0800      ........m...m..
 8006f44:	6de0 0800 6e24 0800 6e68 0800 6eac 0800     .m..$n..hn...n..
 8006f54:	6ef0 0800 6d88 0800 0008 0000 020e 0000     .n...m..........
 8006f64:	0001 0000 0000 0000 ffff ffff 0000 0000     ................
	...
